_ZNSt24__default_alloc_templateILb1ELi0EE8allocateEj
_ZN6Magick5ImageC1ERKSs
_ZN6Magick5Image10monochromeEb
_ZN6Magick5Image8quantizeEb
_ZN6Magick14PathCurvetoAbsC1ERKS0_
_Znaj
_ZN6Magick8ImageRefC1EPN9MagickLib6_ImageEPKNS_7OptionsE
_ZNK6Magick8ColorYUV1yEv
_ZN6Magick5Image8boxColorERKNS_5ColorE
_ZN6Magick7Options8fillRuleERKN9MagickLib8FillRuleE
_ZN6Magick7OptionsC1Ev
_ZN6MagickneERKNS_8GeometryES2_
_ZN6Magick13PathLinetoAbsC1ERKS0_
_ZN6Magick7Options4viewERKSs
_ZN6Magick5Image10matteColorERKNS_5ColorE
_ZNK6Magick7Options15backgroundColorEv
_ZN6Magick5Image6borderERKNS_8GeometryE
_ZN6Magick5ColorC2ERKS0_
_ZN6Magick5ImageC1ERKNS_8GeometryERKNS_5ColorE
_ZN6Magick5Image5sceneEj
_ZN6Magick13PathMovetoAbsC1ERKS0_
_ZN6Magick5Image13cycleColormapEi
_ZN6Magick5Image16floodFillTextureEjjRKS0_RKNS_5ColorE
_ZN6Magick5ImageD1Ev
_ZN6Magick5Image9fillColorERKNS_5ColorE
_ZN6Magick18ErrorResourceLimitC1ERKSs
_ZN6Magick19DrawableStrokeColorC1ERKS0_
_ZN6Magick5Image5shaveERKNS_8GeometryE
_ZNK6Magick5Image19throwImageExceptionEv
_ZN6MagickltERKNS_10CoordinateES2_
_ZNSt9exceptionD2Ev
_ZN6Magick5Image5matteEb
_ZN6MagickgtERKNS_5ColorES2_
_ZN6Magick14throwExceptionERN9MagickLib14_ExceptionInfoE
_ZN6Magick12DrawableTextC1ERKS0_
_ZN6Magick13ErrorFileOpenC1ERKSs
_ZN6Magick5Image5frameEjjii
_ZN6Magick14ErrorUndefinedC1ERKSs
_ZNSt10_List_baseIN6Magick5VPathESaIS1_EE5clearEv
_ZN6Magick5Image11strokeWidthEd
_ZN6Magick7MontageC2Ev
_ZNK6Magick7Options9fillColorEv
_ZN6Magick4BlobC1EPKvj
_ZN6Magick7Options10x11DisplayERKSs
_ZN6Magick5Image18chromaGreenPrimaryEdd
_ZNKSs4copyEPcjj
_ZN6Magick5Image4drawERKSt4listINS_8DrawableESaIS2_EE
_ZNSs4_Rep10_M_disposeERKSaIcE
_ZN6Magick9MutexLockC1Ev
_ZNSsC1ERKSs
_ZNK6Magick7Options8fillRuleEv
_ZN6Magick5Image4blurEdd
_ZN6Magick5Image13interlaceTypeEN9MagickLib13InterlaceTypeE
_ZN6Magick29PathSmoothQuadraticCurvetoAbsC1ERKS0_
_ZNK6Magick7Options15strokeDashArrayEv
_ZN6Magick5Image9colorFuzzEd
_ZN6Magick7Options15transformOriginEdd
_ZN6Magick5Image16chromaRedPrimaryEdd
_ZN6Magick5Image18quantizeColorSpaceEN9MagickLib14ColorspaceTypeE
_ZN6Magick7Options5debugEb
_ZN6Magick8GeometryC1ERKN9MagickLib14_RectangleInfoE
_ZN6Magick12DrawablePathC1ERKS0_
_ZNSt14__simple_allocISt10_List_nodeIN6Magick8DrawableEESt24__default_alloc_templateILb1ELi0EEE10deallocateEPS3_j
_ZN6Magick20ErrorMissingDelegateC1ERKSs
_ZN6Magick5Image15backgroundColorERKNS_5ColorE
_ZNK6Magick7Options8boxColorEv
_ZNSt4listIN6Magick10CoordinateESaIS1_EE18_M_insert_dispatchISt14_List_iteratorIS1_RKS1_PS6_EEEvS5_IS1_RS1_PS1_ET_SD_12__false_type
_ZN6Magick5VPathC1ERKS0_
_ZN6MagickgtERKNS_10CoordinateES2_
_ZN6Magick5Image16chromaWhitePointEdd
_ZN6Magick5Image7enhanceEv
_ZN6Magick9MutexLock4lockEv
_ZN6Magick5Image16floodFillTextureERKNS_8GeometryERKS0_
_ZNSt10_List_baseIN6Magick11PathArcArgsESaIS1_EED2Ev
_ZN6Magick8GeometryaSERKSs
_ZStplIcSt11char_traitsIcESaIcEESbIT_T0_T1_EPKS3_RKS6_
_ZN6Magick7Options6endianEN9MagickLib10EndianTypeE
_ZN6Magick23PathQuadraticCurvetoAbsC1ERKS0_
_ZNSt14__simple_allocISt10_List_nodeIN6Magick5VPathEESt24__default_alloc_templateILb1ELi0EEE10deallocateEPS3_j
_ZN6Magick12ErrorXServerC1ERKSs
_ZN6Magick5Image7magnifyEv
_ZN6Magick17DrawableDashArray9dasharrayEPKj
_ZN6Magick29PathSmoothQuadraticCurvetoRelC1ERKS0_
_ZNSt10_List_baseIN6Magick11PathArcArgsESaIS1_EE5clearEv
_ZN6Magick9MutexLockD1Ev
_ZN6Magick5Image9antiAliasEb
_ZN6Magick15WarningFileOpenC1ERKSs
_ZN6Magick5ImageC1ERKS0_
_ZNK6Magick7Options5debugEv
_ZN6Magick8ImageRefC1Ev
_ZN6MagickneERKNS_5ColorES2_
_ZN6Magick5Image6minifyEv
_ZN6Magick14WarningXServerC1ERKSs
_ZN6Magick7Options7densityERKNS_8GeometryE
_ZN6Magick5Image4cropERKNS_8GeometryE
_ZN6Magick5Image11borderColorERKNS_5ColorE
_ZN6Magick14PathCurvetoRelC1ERKS0_
_ZN6Magick8GeometryC1EPKc
_ZN6Magick5Image11strokeColorERKNS_5ColorE
_ZNSt4listIN6Magick11PathArcArgsESaIS1_EE14_M_create_nodeERKS1_
_ZN6Magick5Image7verboseEb
_ZN6Magick5Image8modulateEddd
_ZN6Magick5Image4fontERKSs
_ZN6Magick7BlobRefD1Ev
_ZN6Magick5ColorD1Ev
_ZNSs6assignERKSs
_ZN6Magick13MagickCleanUpC1Ev
_ZN6Magick5Image12compressTypeEN9MagickLib15CompressionTypeE
_ZN6Magick5Image11modifyImageEv
_ZN6Magick5Image7steganoERKS0_
_ZNSt4listIN6Magick24PathQuadraticCurvetoArgsESaIS1_EE18_M_insert_dispatchISt14_List_iteratorIS1_RKS1_PS6_EEEvS5_IS1_RS1_PS1_ET_SD_12__false_type
_ZNSsD1Ev
_ZN6Magick5Image14floodFillColorEjjRKNS_5ColorE
_ZN6Magick5ImageC1EPN9MagickLib6_ImageEPKNS_7OptionsE
_ZN6Magick5Image14quantizeColorsEj
_ZdlPv
_ZNK6Magick8GeometrycvN9MagickLib14_RectangleInfoEEv
_ZSt10__distanceISt14_List_iteratorIN6Magick10CoordinateERKS2_PS3_EENSt15iterator_traitsIT_E15difference_typeES8_S8_St18input_iterator_tag
_ZN6Magick5Image12medianFilterEd
_ZNK6Magick7Options6magickEv
_ZN6Magick5Image7qualityEj
_ZNSt10_List_baseIN6Magick5VPathESaIS1_EED2Ev
_ZN6Magick15DrawablePolygonC1ERKS0_
_ZN6Magick7Options15resolutionUnitsEN9MagickLib14ResolutionTypeE
_ZNSt4listIN6Magick11PathArcArgsESaIS1_EE18_M_insert_dispatchISt14_List_iteratorIS1_RKS1_PS6_EEEvS5_IS1_RS1_PS1_ET_SD_12__false_type
_ZNK6Magick5Image9signatureEb
_ZNSt10_List_baseIN6Magick24PathQuadraticCurvetoArgsESaIS1_EED2Ev
_ZNSt10_List_baseIN6Magick8DrawableESaIS1_EED2Ev
_ZN6Magick5Image6embossEdd
_ZN6Magick5Image4flopEv
_ZN6Magick19WarningCorruptImageC1ERKSs
_ZN6Magick5Image8fileNameERKSs
_ZN6Magick5Image4typeEN9MagickLib9ImageTypeE
_ZSt9terminatev
_ZN6Magick5Image8annotateERKSsRKNS_8GeometryEN9MagickLib11GravityTypeEd
_ZN6Magick5Image15renderingIntentEN9MagickLib15RenderingIntentE
_ZN6Magick5Image10x11DisplayERKSs
_ZN6Magick5Image4chopERKNS_8GeometryE
_ZN6Magick5Image9transformERKNS_8GeometryES3_
_ZNSt4listIN6Magick15PathCurvetoArgsESaIS1_EE14_M_create_nodeERKS1_
_ZNSs7replaceEjjPKcj
_ZN6Magick5Image10colorSpaceEN9MagickLib14ColorspaceTypeE
_ZNSt4listIN6Magick10CoordinateESaIS1_EE14_M_create_nodeERKS1_
_ZN6Magick7Options15strokeDashArrayEPKd
_ZNK6Magick7Options7densityEv
_ZN6Magick8GeometryaSEPKc
_ZN6Magick5Image4viewERKSs
_ZNSs7reserveEj
_ZNSt4listIN6Magick5VPathESaIS1_EE18_M_insert_dispatchISt14_List_iteratorIS1_RKS1_PS6_EEEvS5_IS1_RS1_PS1_ET_SD_12__false_type
_ZN6Magick5ColorC1ERKS0_
_ZNK6Magick8GeometrycvSsEv
_ZN6Magick5Image7channelEN9MagickLib11ChannelTypeE
_ZN6Magick5Image4readERKNS_4BlobERKNS_8GeometryERKSs
_ZN6Magick5ImageC1Ev
_ZN6Magick10PathArcRelC1ERKS0_
_ZNK6Magick7Montage17updateMontageInfoERN9MagickLib12_MontageInfoE
_ZN6Magick5Image6endianEN9MagickLib10EndianTypeE
_ZN6Magick5Image9thresholdEd
_ZN6Magick9ExceptionC2ERKS0_
_ZN6Magick5Image9compositeERKS0_iiN9MagickLib17CompositeOperatorE
_ZN6Magick6PixelsD1Ev
_ZN6Magick5Image12replaceImageEPN9MagickLib6_ImageE
_ZN6Magick8GeometryD1Ev
_ZN6Magick7Options14transformSkewYEd
_ZNK6Magick5Image14getConstPixelsEiijj
_ZN6Magick5Image7implodeEd
_ZN6MagickltERKNS_5ImageES2_
_ZN6MagickneERKNS_5ImageES2_
_ZN6Magick5Image15resolutionUnitsEN9MagickLib14ResolutionTypeE
_ZN6Magick5Image14matteFloodfillERKNS_5ColorEjiiN9MagickLib11PaintMethodE
_ZN6Magick5Image6adjoinEb
_ZN6Magick5Image4readERKNS_4BlobE
_ZN6Magick5Image16gifDisposeMethodEj
_ZN6Magick9ExceptionC2ERKSs
_ZN6Magick5Image7sharpenEdd
_ZN6Magick5Image9despeckleEv
_ZN6Magick5Image5labelERKSs
_ZN6Magick19DrawablePushPatternC1ERKS0_
_ZN6Magick11ErrorOptionC1ERKSs
_ZN6Magick5Image17quantizeTreeDepthEj
_ZN6Magick5Image11transparentERKNS_5ColorE
_ZN6Magick5Image7segmentEdd
_ZN6Magick22throwExceptionExplicitEN9MagickLib13ExceptionTypeEPKcS3_
_ZN6Magick5Image5scaleERKNS_8GeometryE
_ZN6MagickeqERKNS_5ImageES2_
_ZNSt4listIN6Magick8DrawableESaIS1_EE18_M_insert_dispatchISt14_List_iteratorIS1_RKS1_PS6_EEEvS5_IS1_RS1_PS1_ET_SD_12__false_type
_ZN6Magick5Image7densityERKNS_8GeometryE
_ZNK6Magick7Options8tileNameEv
_ZN6Magick5Image16floodFillTextureERKNS_8GeometryERKS0_RKNS_5ColorE
_ZN6Magick5Image14quantizeDitherEb
_ZN6Magick5Image13fontPointsizeEd
_ZN6Magick9MutexLock6unlockEv
_ZN6Magick5Image12gaussianBlurEdd
_ZN6Magick8GeometryC1Ev
_ZN6Magick12DrawableBaseD2Ev
_ZNSt10_List_baseIN6Magick8DrawableESaIS1_EE5clearEv
_ZN6Magick5ColoraSEPKc
_ZN6Magick8DrawableD1Ev
_ZN6Magick5Image10filterTypeEN9MagickLib11FilterTypesE
_ZNK6Magick8DrawableclEPN9MagickLib12_DrawContextE
_ZN6Magick5Image4sizeERKNS_8GeometryE
_ZN6Magick7Options4pageERKNS_8GeometryE
_ZNK6Magick7Options13strokePatternEv
_ZN6Magick17ErrorCorruptImageC1ERKSs
_ZN6Magick5Image6stereoERKS0_
_ZNSt10_List_baseIN6Magick15PathCurvetoArgsESaIS1_EE5clearEv
_ZNSt10_List_baseIN6Magick24PathQuadraticCurvetoArgsESaIS1_EE5clearEv
_ZN6Magick5Image8colorMapEjRKNS_5ColorE
_ZN6Magick5Image7textureERKS0_
_ZN6Magick7BlobRefC1EPKvj
_ZN6Magick12DrawableFontC1ERKS0_
_ZN6Magick5Image17chromaBluePrimaryEdd
_ZNSs6appendEjc
_ZN6Magick5Image4trimEv
_ZN6MagickeqERKNS_8GeometryES2_
_ZN6Magick5ColoraSERKS0_
_ZN6Magick5Image4flipEv
_ZNK6Magick7Options17backgroundTextureEv
_ZN6Magick5Image19animationIterationsEj
_ZN6Magick22WarningMissingDelegateC1ERKSs
_ZN6Magick5Image4waveEdd
_ZN6Magick6PixelsC1ERNS_5ImageE
_ZNK6Magick5Image6magickEv
_ZN6Magick8ImageRefD1Ev
_ZN6Magick5Image4readERKNS_4BlobERKNS_8GeometryEjRKSs
_ZNSt4listIN6Magick11PathArcArgsESaIS1_EE14_M_fill_insertESt14_List_iteratorIS1_RS1_PS1_EjRKS1_
_ZN6Magick5Image4readERKNS_4BlobERKNS_8GeometryE
_ZN6Magick7Options6magickERKSs
_ZN6Magick5Image4readERKNS_4BlobERKNS_8GeometryEj
_ZN6Magick5Image4pageERKNS_8GeometryE
_ZN6Magick17DrawableDashArray9dasharrayEPKd
_ZN6Magick8ImageRef5imageEPN9MagickLib6_ImageE
_ZN6Magick5Image6magickERKSs
_ZdaPv
_ZN6Magick8DrawableC1ERKS0_
_ZN6Magick7Options8tileNameERKSs
_ZN6Magick8ImageRef2idEl
_ZN6Magick5Image4readEjjRKSsN9MagickLib11StorageTypeEPKv
_ZN6Magick7Options14transformSkewXEd
_ZN6Magick20PathSmoothCurvetoAbsC1ERKS0_
_ZN6Magick5Image9transformERKNS_8GeometryE
_ZNK6Magick5Image15getConstIndexesEv
_ZN6Magick7WarningC2ERKSs
_ZN6Magick7Options14transformResetEv
_ZN6Magick5Image6spreadEj
_ZN6Magick5Image8colorizeEjjjRKNS_5ColorE
_ZN6Magick10ErrorCacheC1ERKSs
_ZNK6Magick7Options11borderColorEv
_ZNSs6appendERKSs
_ZNK6Magick5Image10pixelColorEjj
_ZN6Magick5Image14floodFillColorEjjRKNS_5ColorES3_
_ZN6Magick5Image8addNoiseEN9MagickLib9NoiseTypeE
_ZN6Magick8GeometryC1Ejjjjbb
_ZNSsC1EPKcRKSaIcE
_ZNSt10_List_baseIN6Magick10CoordinateESaIS1_EED2Ev
_ZNSt4listIN6Magick24PathQuadraticCurvetoArgsESaIS1_EE14_M_create_nodeERKS1_
_ZNK6Magick7Options10x11DisplayEv
_ZN6Magick5Image8tileNameERKSs
_ZN6Magick17DrawableFillColorC1ERKS0_
_ZNSt24__default_alloc_templateILb1ELi0EE10deallocateEPvj
_ZN6Magick5Image7commentERKSs
_ZN6Magick16DrawablePolylineC1ERKS0_
_ZN6MagickltERKNS_5ColorES2_
_ZN6Magick22DrawableCompositeImageC1ERKS0_
_ZNSt10_List_baseIN6Magick15PathCurvetoArgsESaIS1_EED2Ev
_ZN6Magick7OptionsC1ERKS0_
_ZN6Magick5Image6opaqueERKNS_5ColorES3_
_ZN6Magick7Options10matteColorERKNS_5ColorE
_ZN6Magick5Image9classTypeEN9MagickLib9ClassTypeE
_ZN6Magick5Image9normalizeEv
_ZN6Magick5Image4readERKSs
_ZN6Magick4Blob12updateNoCopyEPvjNS0_9AllocatorE
_ZN6Magick7Options17transformRotationEd
_ZN6Magick10PathArcAbsC1ERKS0_
_ZNK6Magick7Options11fillPatternEv
_ZN6Magick5Image8equalizeEv
_ZN6Magick23PathQuadraticCurvetoRelC1ERKS0_
_ZN6Magick5Image8contrastEj
_ZNK6Magick5Image8fileNameEv
_ZN6Magick7Options11strokeColorERKNS_5ColorE
_ZN6Magick7Options15backgroundColorERKNS_5ColorE
_ZNK6Magick7Options8fileNameEv
_ZN6Magick11WarningBlobC1ERKSs
_ZN6Magick5Image14animationDelayEj
_ZNK6Magick5VPathclEPN9MagickLib12_DrawContextE
_ZN6Magick5Image5gammaEddd
_ZN6Magick7Options17backgroundTextureERKSs
_ZN6Magick5Image6negateEb
_ZN6Magick7Options11borderColorERKNS_5ColorE
_ZN6Magick5Image5swirlEd
_ZN6Magick5Image4zoomERKNS_8GeometryE
_ZN6Magick5Image16floodFillTextureEjjRKS0_
_ZN6Magick13PathLinetoRelC1ERKS0_
_ZNSsC1EPKcjRKSaIcE
_ZN6Magick5Image11reduceNoiseEd
_ZN6Magick12WarningCacheC1ERKSs
_ZNK6Magick7Options15resolutionUnitsEv
_ZN6Magick7OptionsD1Ev
_ZN6Magick5Image17backgroundTextureERKSs
_ZN6Magick20PathSmoothCurvetoRelC1ERKS0_
_ZN6Magick5Image3mapERKS0_b
_ZN6Magick5Image6rotateEd
_ZN6Magick7Options9fillColorERKNS_5ColorE
_ZN6Magick5Image6sampleERKNS_8GeometryE
_ZN6Magick7Options11fillPatternEPKN9MagickLib6_ImageE
_ZN6Magick7Options4sizeERKNS_8GeometryE
_ZNK6Magick8ColorYUV1uEv
_ZNK6Magick5ColorcvSsEv
_ZN6Magick7Options8boxColorERKNS_5ColorE
_ZN6MagickeqERKNS_10CoordinateES2_
_ZN6Magick5Image7opacityEj
_ZN6Magick5Image4edgeEd
_ZN6Magick22DrawableTextUnderColorC1ERKS0_
_ZN6Magick5Image10pixelColorEjjRKNS_5ColorE
_ZNSt4listIN6Magick8DrawableESaIS1_EE14_M_create_nodeERKS1_
_ZNK6Magick7Options4fontEv
_ZN6Magick7Options4fontERKSs
_Znwj
_ZNSt10_List_baseIN6Magick10CoordinateESaIS1_EE5clearEv
_ZN6Magick5Image5shadeEddb
_ZN6Magick5Image8oilPaintEd
_ZNSt4listIN6Magick15PathCurvetoArgsESaIS1_EE18_M_insert_dispatchISt14_List_iteratorIS1_RKS1_PS6_EEEvS5_IS1_RS1_PS1_ET_SD_12__false_type
_ZN6Magick5Image10penTextureERKS0_
_ZN6Magick5ErrorC2ERKSs
_ZNSt4listIN6Magick10CoordinateESaIS1_EE14_M_fill_insertESt14_List_iteratorIS1_RS1_PS1_EjRKS1_
_ZN6MagickgtERKNS_8GeometryES2_
_ZN6Magick5Image5shearEdd
_ZNK6Magick8ColorYUV1vEv
_ZN6Magick5Image8subImageEj
_ZN6Magick5Image8charcoalEdd
_ZN6Magick14DrawableBezierC1ERKS0_
_ZN6Magick5Image5depthEj
_ZN6Magick13MagickCleanUpD1Ev
_ZN6MagickeqERKNS_5ColorES2_
_ZN6Magick13PathMovetoRelC1ERKS0_
_ZN6Magick5Image5raiseERKNS_8GeometryEb
_ZN6Magick5Image8solarizeEd
_ZN6MagickltERKNS_8GeometryES2_
_ZN6MagickneERKNS_10CoordinateES2_
_ZN6Magick6Pixels3getEiijj
_ZN6Magick9ErrorBlobC1ERKSs
_ZN6Magick7Options8fileNameERKSs
_ZN6Magick17DrawableDashArrayC1ERKS0_
_ZN6Magick5Image4rollEjj
_ZN6Magick5ColorC1ERKN9MagickLib12_PixelPacketE
_ZN6Magick13ErrorDelegateC1ERKSs
_ZN6Magick11CloneStringEPPcRKSs
_ZN6Magick5ColoraSERKSs
_ZNK6Magick7Options11strokeColorEv
_ZNK6Magick5Image8colorMapEj
_ZNSs4_Rep10_M_destroyERKSaIcE
_ZNSt4listIN6Magick24PathQuadraticCurvetoArgsESaIS1_EE14_M_fill_insertESt14_List_iteratorIS1_RS1_PS1_EjRKS1_
_ZN6Magick13WarningOptionC1ERKSs
_ZN6Magick7Options13strokePatternEPKN9MagickLib6_ImageE
_ZNK6Magick7Options4viewEv
_ZN6Magick5Image8subRangeEj
_ZN6Magick15WarningDelegateC1ERKSs
_ZN6Magick6Pixels4syncEv
_ZN6Magick20WarningResourceLimitC1ERKSs
_ZN6Magick7Options14transformScaleEdd
_ZN6Magick9VPathBaseD2Ev
_ZN6Magick8GeometryC1ERKS0_
_ZN6Magick5Image7isValidEb
_ZNSt4listIN6Magick15PathCurvetoArgsESaIS1_EE14_M_fill_insertESt14_List_iteratorIS1_RS1_PS1_EjRKS1_
_ZNK6Magick5Image7isValidEv
_ZNSs6appendEPKcj
_ZN6Magick5Image8penColorERKNS_5ColorE
_ZN6MagickgtERKNS_5ImageES2_
_ZN6Magick4BlobC2Ev
_ZN6Magick4BlobC1Ev
_ZN6Magick4BlobC2EPKvj
_ZN6Magick4BlobC1EPKvj
_ZN6Magick4BlobC2ERKS0_
_ZN6Magick4BlobC1ERKS0_
_ZN6Magick4BlobD2Ev
_ZN6Magick4BlobD1Ev
_ZN6Magick4BlobD0Ev
_ZN6Magick4BlobaSERKS0_
_ZN6Magick4Blob6base64ESs
_ZN6Magick4Blob6base64Ev
_ZN6Magick4Blob6updateEPKvj
_ZN6Magick4Blob12updateNoCopyEPvjNS0_9AllocatorE
_ZN6Magick7BlobRefC2EPKvj
_ZN6Magick7BlobRefC1EPKvj
_ZN6Magick7BlobRefD2Ev
_ZN6Magick7BlobRefD1Ev
_ZN6Magick9CoderInfoC2ERKSs
_ZN6Magick9CoderInfoC1ERKSs
_ZN6Magick9CoderInfoD2Ev
_ZN6Magick9CoderInfoD1Ev
_ZNK6Magick9CoderInfo4nameEv
_ZNK6Magick9CoderInfo11descriptionEv
_ZNK6Magick9CoderInfo10isReadableEv
_ZNK6Magick9CoderInfo10isWritableEv
_ZNK6Magick9CoderInfo12isMultiFrameEv
_ZN6Magick9CoderInfoC2EPKN9MagickLib11_MagickInfoE
_ZN6Magick9CoderInfoC1EPKN9MagickLib11_MagickInfoE
_ZN6MagickeqERKNS_5ColorES2_
_ZN6MagickneERKNS_5ColorES2_
_ZN6MagickgtERKNS_5ColorES2_
_ZN6MagickltERKNS_5ColorES2_
_ZN6MagickgeERKNS_5ColorES2_
_ZN6MagickleERKNS_5ColorES2_
_ZN6Magick5ColorC2ERKS0_
_ZN6Magick5ColorC1ERKS0_
_ZN6Magick5ColoraSERKS0_
_ZN6Magick5ColoraSERKSs
_ZN6Magick5ColoraSEPKc
_ZNK6Magick5ColorcvSsEv
_ZN6Magick5ColorC2ERKN9MagickLib12_PixelPacketE
_ZN6Magick5ColorC1ERKN9MagickLib12_PixelPacketE
_ZN6Magick5ColoraSERKN9MagickLib12_PixelPacketE
_ZN6Magick8ColorHSLC2Eddd
_ZN6Magick8ColorHSLC1Eddd
_ZN6Magick8ColorHSLC2Ev
_ZN6Magick8ColorHSLC1Ev
_ZN6Magick8ColorHSLC2ERKNS_5ColorE
_ZN6Magick8ColorHSLC1ERKNS_5ColorE
_ZN6Magick8ColorHSLD2Ev
_ZN6Magick8ColorHSLD1Ev
_ZN6Magick8ColorHSLD0Ev
_ZN6Magick8ColorHSL3hueEd
_ZNK6Magick8ColorHSL3hueEv
_ZN6Magick8ColorHSL10saturationEd
_ZNK6Magick8ColorHSL10saturationEv
_ZN6Magick8ColorHSL10luminosityEd
_ZNK6Magick8ColorHSL10luminosityEv
_ZN6Magick8ColorHSLaSERKNS_5ColorE
_ZN6Magick9ColorGrayC2Ed
_ZN6Magick9ColorGrayC1Ed
_ZN6Magick9ColorGrayC2Ev
_ZN6Magick9ColorGrayC1Ev
_ZN6Magick9ColorGrayC2ERKNS_5ColorE
_ZN6Magick9ColorGrayC1ERKNS_5ColorE
_ZN6Magick9ColorGrayD2Ev
_ZN6Magick9ColorGrayD1Ev
_ZN6Magick9ColorGrayD0Ev
_ZN6Magick9ColorGray5shadeEd
_ZNK6Magick9ColorGray5shadeEv
_ZN6Magick9ColorGrayaSERKNS_5ColorE
_ZN6Magick9ColorMonoC2Eb
_ZN6Magick9ColorMonoC1Eb
_ZN6Magick9ColorMonoC2Ev
_ZN6Magick9ColorMonoC1Ev
_ZN6Magick9ColorMonoC2ERKNS_5ColorE
_ZN6Magick9ColorMonoC1ERKNS_5ColorE
_ZN6Magick9ColorMonoD2Ev
_ZN6Magick9ColorMonoD1Ev
_ZN6Magick9ColorMonoD0Ev
_ZN6Magick9ColorMono4monoEb
_ZNK6Magick9ColorMono4monoEv
_ZN6Magick9ColorMonoaSERKNS_5ColorE
_ZN6Magick8ColorRGBC2Eddd
_ZN6Magick8ColorRGBC1Eddd
_ZN6Magick8ColorRGBC2Ev
_ZN6Magick8ColorRGBC1Ev
_ZN6Magick8ColorRGBC2ERKNS_5ColorE
_ZN6Magick8ColorRGBC1ERKNS_5ColorE
_ZN6Magick8ColorRGBD2Ev
_ZN6Magick8ColorRGBD1Ev
_ZN6Magick8ColorRGBD0Ev
_ZN6Magick8ColorRGBaSERKNS_5ColorE
_ZN6Magick8ColorYUVC2Eddd
_ZN6Magick8ColorYUVC1Eddd
_ZN6Magick8ColorYUVC2Ev
_ZN6Magick8ColorYUVC1Ev
_ZN6Magick8ColorYUVC2ERKNS_5ColorE
_ZN6Magick8ColorYUVC1ERKNS_5ColorE
_ZN6Magick8ColorYUVD2Ev
_ZN6Magick8ColorYUVD1Ev
_ZN6Magick8ColorYUVD0Ev
_ZN6Magick8ColorYUV1uEd
_ZNK6Magick8ColorYUV1uEv
_ZN6Magick8ColorYUV1vEd
_ZNK6Magick8ColorYUV1vEv
_ZN6Magick8ColorYUV1yEd
_ZNK6Magick8ColorYUV1yEv
_ZN6Magick8ColorYUVaSERKNS_5ColorE
_ZN6Magick5ColorD1Ev
_ZN6Magick5ColorD0Ev
_ZN6MagickeqERKNS_10CoordinateES2_
_ZN6MagickneERKNS_10CoordinateES2_
_ZN6MagickgtERKNS_10CoordinateES2_
_ZN6MagickltERKNS_10CoordinateES2_
_ZN6MagickgeERKNS_10CoordinateES2_
_ZN6MagickleERKNS_10CoordinateES2_
_ZN6Magick12DrawableBaseD2Ev
_ZN6Magick12DrawableBaseD1Ev
_ZN6Magick12DrawableBaseD0Ev
_ZN6Magick8DrawableC2Ev
_ZN6Magick8DrawableC1Ev
_ZN6Magick8DrawableC2ERKNS_12DrawableBaseE
_ZN6Magick8DrawableC1ERKNS_12DrawableBaseE
_ZN6Magick8DrawableD2Ev
_ZN6Magick8DrawableD1Ev
_ZN6Magick8DrawableC2ERKS0_
_ZN6Magick8DrawableC1ERKS0_
_ZN6Magick8DrawableaSERKS0_
_ZNK6Magick8DrawableclEPN9MagickLib12_DrawContextE
_ZN6Magick9VPathBaseD2Ev
_ZN6Magick9VPathBaseD1Ev
_ZN6Magick9VPathBaseD0Ev
_ZN6Magick5VPathC2Ev
_ZN6Magick5VPathC1Ev
_ZN6Magick5VPathC2ERKNS_9VPathBaseE
_ZN6Magick5VPathC1ERKNS_9VPathBaseE
_ZN6Magick5VPathD2Ev
_ZN6Magick5VPathD1Ev
_ZN6Magick5VPathD0Ev
_ZN6Magick5VPathC2ERKS0_
_ZN6Magick5VPathC1ERKS0_
_ZN6Magick5VPathaSERKS0_
_ZNK6Magick5VPathclEPN9MagickLib12_DrawContextE
_ZN6Magick14DrawableAffineC2Edddddd
_ZN6Magick14DrawableAffineC1Edddddd
_ZN6Magick14DrawableAffineC2Ev
_ZN6Magick14DrawableAffineC1Ev
_ZN6Magick14DrawableAffineD2Ev
_ZN6Magick14DrawableAffineD1Ev
_ZN6Magick14DrawableAffineD0Ev
_ZNK6Magick14DrawableAffineclEPN9MagickLib12_DrawContextE
_ZNK6Magick14DrawableAffine4copyEv
_ZN6Magick11DrawableArcD2Ev
_ZN6Magick11DrawableArcD1Ev
_ZN6Magick11DrawableArcD0Ev
_ZNK6Magick11DrawableArcclEPN9MagickLib12_DrawContextE
_ZNK6Magick11DrawableArc4copyEv
_ZN6Magick14DrawableBezierC2ERKSt4listINS_10CoordinateESaIS2_EE
_ZN6Magick14DrawableBezierC1ERKSt4listINS_10CoordinateESaIS2_EE
_ZN6Magick14DrawableBezierC2ERKS0_
_ZN6Magick14DrawableBezierC1ERKS0_
_ZN6Magick14DrawableBezierD2Ev
_ZN6Magick14DrawableBezierD1Ev
_ZN6Magick14DrawableBezierD0Ev
_ZNK6Magick14DrawableBezierclEPN9MagickLib12_DrawContextE
_ZNK6Magick14DrawableBezier4copyEv
_ZN6Magick14DrawableCircleD2Ev
_ZN6Magick14DrawableCircleD1Ev
_ZN6Magick14DrawableCircleD0Ev
_ZNK6Magick14DrawableCircleclEPN9MagickLib12_DrawContextE
_ZNK6Magick14DrawableCircle4copyEv
_ZN6Magick13DrawableColorD2Ev
_ZN6Magick13DrawableColorD1Ev
_ZN6Magick13DrawableColorD0Ev
_ZNK6Magick13DrawableColorclEPN9MagickLib12_DrawContextE
_ZNK6Magick13DrawableColor4copyEv
_ZN6Magick22DrawableCompositeImageC2EddddRKSsN9MagickLib17CompositeOperatorE
_ZN6Magick22DrawableCompositeImageC1EddddRKSsN9MagickLib17CompositeOperatorE
_ZN6Magick22DrawableCompositeImageC2EddddRKNS_5ImageEN9MagickLib17CompositeOperatorE
_ZN6Magick22DrawableCompositeImageC1EddddRKNS_5ImageEN9MagickLib17CompositeOperatorE
_ZN6Magick22DrawableCompositeImageC2EddddRKSs
_ZN6Magick22DrawableCompositeImageC1EddddRKSs
_ZN6Magick22DrawableCompositeImageC2EddddRKNS_5ImageE
_ZN6Magick22DrawableCompositeImageC1EddddRKNS_5ImageE
_ZN6Magick22DrawableCompositeImageC2EddRKSs
_ZN6Magick22DrawableCompositeImageC1EddRKSs
_ZN6Magick22DrawableCompositeImageC2EddRKNS_5ImageE
_ZN6Magick22DrawableCompositeImageC1EddRKNS_5ImageE
_ZN6Magick22DrawableCompositeImageC2ERKS0_
_ZN6Magick22DrawableCompositeImageC1ERKS0_
_ZN6Magick22DrawableCompositeImageD2Ev
_ZN6Magick22DrawableCompositeImageD1Ev
_ZN6Magick22DrawableCompositeImageD0Ev
_ZN6Magick22DrawableCompositeImageaSERKS0_
_ZN6Magick22DrawableCompositeImage8filenameERKSs
_ZNK6Magick22DrawableCompositeImage8filenameEv
_ZN6Magick22DrawableCompositeImage5imageERKNS_5ImageE
_ZNK6Magick22DrawableCompositeImage5imageEv
_ZN6Magick22DrawableCompositeImage6magickESs
_ZN6Magick22DrawableCompositeImage6magickEv
_ZNK6Magick22DrawableCompositeImageclEPN9MagickLib12_DrawContextE
_ZNK6Magick22DrawableCompositeImage4copyEv
_ZN6Magick15DrawableEllipseD2Ev
_ZN6Magick15DrawableEllipseD1Ev
_ZN6Magick15DrawableEllipseD0Ev
_ZNK6Magick15DrawableEllipseclEPN9MagickLib12_DrawContextE
_ZNK6Magick15DrawableEllipse4copyEv
_ZN6Magick17DrawableFillColorC2ERKNS_5ColorE
_ZN6Magick17DrawableFillColorC1ERKNS_5ColorE
_ZN6Magick17DrawableFillColorC2ERKS0_
_ZN6Magick17DrawableFillColorC1ERKS0_
_ZN6Magick17DrawableFillColorD2Ev
_ZN6Magick17DrawableFillColorD1Ev
_ZN6Magick17DrawableFillColorD0Ev
_ZNK6Magick17DrawableFillColorclEPN9MagickLib12_DrawContextE
_ZNK6Magick17DrawableFillColor4copyEv
_ZN6Magick16DrawableFillRuleD2Ev
_ZN6Magick16DrawableFillRuleD1Ev
_ZN6Magick16DrawableFillRuleD0Ev
_ZNK6Magick16DrawableFillRuleclEPN9MagickLib12_DrawContextE
_ZNK6Magick16DrawableFillRule4copyEv
_ZN6Magick19DrawableFillOpacityD2Ev
_ZN6Magick19DrawableFillOpacityD1Ev
_ZN6Magick19DrawableFillOpacityD0Ev
_ZNK6Magick19DrawableFillOpacityclEPN9MagickLib12_DrawContextE
_ZNK6Magick19DrawableFillOpacity4copyEv
_ZN6Magick12DrawableFontC2ERKSs
_ZN6Magick12DrawableFontC1ERKSs
_ZN6Magick12DrawableFontC2ERKSsN9MagickLib9StyleTypeEmNS3_11StretchTypeE
_ZN6Magick12DrawableFontC1ERKSsN9MagickLib9StyleTypeEmNS3_11StretchTypeE
_ZN6Magick12DrawableFontC2ERKS0_
_ZN6Magick12DrawableFontC1ERKS0_
_ZN6Magick12DrawableFontD2Ev
_ZN6Magick12DrawableFontD1Ev
_ZN6Magick12DrawableFontD0Ev
_ZNK6Magick12DrawableFontclEPN9MagickLib12_DrawContextE
_ZNK6Magick12DrawableFont4copyEv
_ZN6Magick15DrawableGravityD2Ev
_ZN6Magick15DrawableGravityD1Ev
_ZN6Magick15DrawableGravityD0Ev
_ZNK6Magick15DrawableGravityclEPN9MagickLib12_DrawContextE
_ZNK6Magick15DrawableGravity4copyEv
_ZN6Magick12DrawableLineD2Ev
_ZN6Magick12DrawableLineD1Ev
_ZN6Magick12DrawableLineD0Ev
_ZNK6Magick12DrawableLineclEPN9MagickLib12_DrawContextE
_ZNK6Magick12DrawableLine4copyEv
_ZN6Magick13DrawableMatteD2Ev
_ZN6Magick13DrawableMatteD1Ev
_ZN6Magick13DrawableMatteD0Ev
_ZNK6Magick13DrawableMatteclEPN9MagickLib12_DrawContextE
_ZNK6Magick13DrawableMatte4copyEv
_ZN6Magick12DrawablePathC2ERKSt4listINS_5VPathESaIS2_EE
_ZN6Magick12DrawablePathC1ERKSt4listINS_5VPathESaIS2_EE
_ZN6Magick12DrawablePathC2ERKS0_
_ZN6Magick12DrawablePathC1ERKS0_
_ZN6Magick12DrawablePathD2Ev
_ZN6Magick12DrawablePathD1Ev
_ZN6Magick12DrawablePathD0Ev
_ZNK6Magick12DrawablePathclEPN9MagickLib12_DrawContextE
_ZNK6Magick12DrawablePath4copyEv
_ZN6Magick13DrawablePointD2Ev
_ZN6Magick13DrawablePointD1Ev
_ZN6Magick13DrawablePointD0Ev
_ZNK6Magick13DrawablePointclEPN9MagickLib12_DrawContextE
_ZNK6Magick13DrawablePoint4copyEv
_ZN6Magick17DrawablePointSizeD2Ev
_ZN6Magick17DrawablePointSizeD1Ev
_ZN6Magick17DrawablePointSizeD0Ev
_ZNK6Magick17DrawablePointSizeclEPN9MagickLib12_DrawContextE
_ZNK6Magick17DrawablePointSize4copyEv
_ZN6Magick15DrawablePolygonC2ERKSt4listINS_10CoordinateESaIS2_EE
_ZN6Magick15DrawablePolygonC1ERKSt4listINS_10CoordinateESaIS2_EE
_ZN6Magick15DrawablePolygonC2ERKS0_
_ZN6Magick15DrawablePolygonC1ERKS0_
_ZN6Magick15DrawablePolygonD2Ev
_ZN6Magick15DrawablePolygonD1Ev
_ZN6Magick15DrawablePolygonD0Ev
_ZNK6Magick15DrawablePolygonclEPN9MagickLib12_DrawContextE
_ZNK6Magick15DrawablePolygon4copyEv
_ZN6Magick16DrawablePolylineC2ERKSt4listINS_10CoordinateESaIS2_EE
_ZN6Magick16DrawablePolylineC1ERKSt4listINS_10CoordinateESaIS2_EE
_ZN6Magick16DrawablePolylineC2ERKS0_
_ZN6Magick16DrawablePolylineC1ERKS0_
_ZN6Magick16DrawablePolylineD2Ev
_ZN6Magick16DrawablePolylineD1Ev
_ZN6Magick16DrawablePolylineD0Ev
_ZNK6Magick16DrawablePolylineclEPN9MagickLib12_DrawContextE
_ZNK6Magick16DrawablePolyline4copyEv
_ZN6Magick25DrawablePopGraphicContextD2Ev
_ZN6Magick25DrawablePopGraphicContextD1Ev
_ZN6Magick25DrawablePopGraphicContextD0Ev
_ZNK6Magick25DrawablePopGraphicContextclEPN9MagickLib12_DrawContextE
_ZNK6Magick25DrawablePopGraphicContext4copyEv
_ZN6Magick26DrawablePushGraphicContextD2Ev
_ZN6Magick26DrawablePushGraphicContextD1Ev
_ZN6Magick26DrawablePushGraphicContextD0Ev
_ZNK6Magick26DrawablePushGraphicContextclEPN9MagickLib12_DrawContextE
_ZNK6Magick26DrawablePushGraphicContext4copyEv
_ZN6Magick18DrawablePopPatternD2Ev
_ZN6Magick18DrawablePopPatternD1Ev
_ZN6Magick18DrawablePopPatternD0Ev
_ZNK6Magick18DrawablePopPatternclEPN9MagickLib12_DrawContextE
_ZNK6Magick18DrawablePopPattern4copyEv
_ZN6Magick19DrawablePushPatternC2ERKSsllll
_ZN6Magick19DrawablePushPatternC1ERKSsllll
_ZN6Magick19DrawablePushPatternC2ERKS0_
_ZN6Magick19DrawablePushPatternC1ERKS0_
_ZN6Magick19DrawablePushPatternD2Ev
_ZN6Magick19DrawablePushPatternD1Ev
_ZN6Magick19DrawablePushPatternD0Ev
_ZNK6Magick19DrawablePushPatternclEPN9MagickLib12_DrawContextE
_ZNK6Magick19DrawablePushPattern4copyEv
_ZN6Magick17DrawableRectangleD2Ev
_ZN6Magick17DrawableRectangleD1Ev
_ZN6Magick17DrawableRectangleD0Ev
_ZNK6Magick17DrawableRectangleclEPN9MagickLib12_DrawContextE
_ZNK6Magick17DrawableRectangle4copyEv
_ZN6Magick16DrawableRotationD2Ev
_ZN6Magick16DrawableRotationD1Ev
_ZN6Magick16DrawableRotationD0Ev
_ZNK6Magick16DrawableRotationclEPN9MagickLib12_DrawContextE
_ZNK6Magick16DrawableRotation4copyEv
_ZN6Magick22DrawableRoundRectangleD2Ev
_ZN6Magick22DrawableRoundRectangleD1Ev
_ZN6Magick22DrawableRoundRectangleD0Ev
_ZNK6Magick22DrawableRoundRectangleclEPN9MagickLib12_DrawContextE
_ZNK6Magick22DrawableRoundRectangle4copyEv
_ZN6Magick15DrawableScalingD2Ev
_ZN6Magick15DrawableScalingD1Ev
_ZN6Magick15DrawableScalingD0Ev
_ZNK6Magick15DrawableScalingclEPN9MagickLib12_DrawContextE
_ZNK6Magick15DrawableScaling4copyEv
_ZN6Magick13DrawableSkewXD2Ev
_ZN6Magick13DrawableSkewXD1Ev
_ZN6Magick13DrawableSkewXD0Ev
_ZNK6Magick13DrawableSkewXclEPN9MagickLib12_DrawContextE
_ZNK6Magick13DrawableSkewX4copyEv
_ZN6Magick13DrawableSkewYD2Ev
_ZN6Magick13DrawableSkewYD1Ev
_ZN6Magick13DrawableSkewYD0Ev
_ZNK6Magick13DrawableSkewYclEPN9MagickLib12_DrawContextE
_ZNK6Magick13DrawableSkewY4copyEv
_ZN6Magick17DrawableDashArrayC2EPKd
_ZN6Magick17DrawableDashArrayC1EPKd
_ZN6Magick17DrawableDashArrayC2EPKj
_ZN6Magick17DrawableDashArrayC1EPKj
_ZN6Magick17DrawableDashArrayC2ERKS0_
_ZN6Magick17DrawableDashArrayC1ERKS0_
_ZN6Magick17DrawableDashArrayD2Ev
_ZN6Magick17DrawableDashArrayD1Ev
_ZN6Magick17DrawableDashArrayD0Ev
_ZN6Magick17DrawableDashArrayaSERKS0_
_ZNK6Magick17DrawableDashArrayclEPN9MagickLib12_DrawContextE
_ZNK6Magick17DrawableDashArray4copyEv
_ZN6Magick17DrawableDashArray9dasharrayEPKd
_ZN6Magick17DrawableDashArray9dasharrayEPKj
_ZN6Magick18DrawableDashOffsetD2Ev
_ZN6Magick18DrawableDashOffsetD1Ev
_ZN6Magick18DrawableDashOffsetD0Ev
_ZNK6Magick18DrawableDashOffsetclEPN9MagickLib12_DrawContextE
_ZNK6Magick18DrawableDashOffset4copyEv
_ZN6Magick21DrawableStrokeLineCapD2Ev
_ZN6Magick21DrawableStrokeLineCapD1Ev
_ZN6Magick21DrawableStrokeLineCapD0Ev
_ZNK6Magick21DrawableStrokeLineCapclEPN9MagickLib12_DrawContextE
_ZNK6Magick21DrawableStrokeLineCap4copyEv
_ZN6Magick22DrawableStrokeLineJoinD2Ev
_ZN6Magick22DrawableStrokeLineJoinD1Ev
_ZN6Magick22DrawableStrokeLineJoinD0Ev
_ZNK6Magick22DrawableStrokeLineJoinclEPN9MagickLib12_DrawContextE
_ZNK6Magick22DrawableStrokeLineJoin4copyEv
_ZN6Magick18DrawableMiterLimitD2Ev
_ZN6Magick18DrawableMiterLimitD1Ev
_ZN6Magick18DrawableMiterLimitD0Ev
_ZNK6Magick18DrawableMiterLimitclEPN9MagickLib12_DrawContextE
_ZNK6Magick18DrawableMiterLimit4copyEv
_ZN6Magick23DrawableStrokeAntialiasD2Ev
_ZN6Magick23DrawableStrokeAntialiasD1Ev
_ZN6Magick23DrawableStrokeAntialiasD0Ev
_ZNK6Magick23DrawableStrokeAntialiasclEPN9MagickLib12_DrawContextE
_ZNK6Magick23DrawableStrokeAntialias4copyEv
_ZN6Magick19DrawableStrokeColorC2ERKNS_5ColorE
_ZN6Magick19DrawableStrokeColorC1ERKNS_5ColorE
_ZN6Magick19DrawableStrokeColorC2ERKS0_
_ZN6Magick19DrawableStrokeColorC1ERKS0_
_ZN6Magick19DrawableStrokeColorD2Ev
_ZN6Magick19DrawableStrokeColorD1Ev
_ZN6Magick19DrawableStrokeColorD0Ev
_ZNK6Magick19DrawableStrokeColorclEPN9MagickLib12_DrawContextE
_ZNK6Magick19DrawableStrokeColor4copyEv
_ZN6Magick21DrawableStrokeOpacityD2Ev
_ZN6Magick21DrawableStrokeOpacityD1Ev
_ZN6Magick21DrawableStrokeOpacityD0Ev
_ZNK6Magick21DrawableStrokeOpacityclEPN9MagickLib12_DrawContextE
_ZNK6Magick21DrawableStrokeOpacity4copyEv
_ZN6Magick19DrawableStrokeWidthD2Ev
_ZN6Magick19DrawableStrokeWidthD1Ev
_ZN6Magick19DrawableStrokeWidthD0Ev
_ZNK6Magick19DrawableStrokeWidthclEPN9MagickLib12_DrawContextE
_ZNK6Magick19DrawableStrokeWidth4copyEv
_ZN6Magick12DrawableTextC2EddRKSs
_ZN6Magick12DrawableTextC1EddRKSs
_ZN6Magick12DrawableTextC2ERKS0_
_ZN6Magick12DrawableTextC1ERKS0_
_ZN6Magick12DrawableTextD2Ev
_ZN6Magick12DrawableTextD1Ev
_ZN6Magick12DrawableTextD0Ev
_ZNK6Magick12DrawableTextclEPN9MagickLib12_DrawContextE
_ZNK6Magick12DrawableText4copyEv
_ZN6Magick21DrawableTextAntialiasD2Ev
_ZN6Magick21DrawableTextAntialiasD1Ev
_ZN6Magick21DrawableTextAntialiasD0Ev
_ZNK6Magick21DrawableTextAntialiasclEPN9MagickLib12_DrawContextE
_ZNK6Magick21DrawableTextAntialias4copyEv
_ZN6Magick22DrawableTextDecorationD2Ev
_ZN6Magick22DrawableTextDecorationD1Ev
_ZN6Magick22DrawableTextDecorationD0Ev
_ZNK6Magick22DrawableTextDecorationclEPN9MagickLib12_DrawContextE
_ZNK6Magick22DrawableTextDecoration4copyEv
_ZN6Magick22DrawableTextUnderColorC2ERKNS_5ColorE
_ZN6Magick22DrawableTextUnderColorC1ERKNS_5ColorE
_ZN6Magick22DrawableTextUnderColorC2ERKS0_
_ZN6Magick22DrawableTextUnderColorC1ERKS0_
_ZN6Magick22DrawableTextUnderColorD2Ev
_ZN6Magick22DrawableTextUnderColorD1Ev
_ZN6Magick22DrawableTextUnderColorD0Ev
_ZNK6Magick22DrawableTextUnderColorclEPN9MagickLib12_DrawContextE
_ZNK6Magick22DrawableTextUnderColor4copyEv
_ZN6Magick19DrawableTranslationD2Ev
_ZN6Magick19DrawableTranslationD1Ev
_ZN6Magick19DrawableTranslationD0Ev
_ZNK6Magick19DrawableTranslationclEPN9MagickLib12_DrawContextE
_ZNK6Magick19DrawableTranslation4copyEv
_ZN6Magick15DrawableViewboxD2Ev
_ZN6Magick15DrawableViewboxD1Ev
_ZN6Magick15DrawableViewboxD0Ev
_ZNK6Magick15DrawableViewboxclEPN9MagickLib12_DrawContextE
_ZNK6Magick15DrawableViewbox4copyEv
_ZN6Magick10PathArcAbsC2ERKNS_11PathArcArgsE
_ZN6Magick10PathArcAbsC1ERKNS_11PathArcArgsE
_ZN6Magick10PathArcAbsC2ERKSt4listINS_11PathArcArgsESaIS2_EE
_ZN6Magick10PathArcAbsC1ERKSt4listINS_11PathArcArgsESaIS2_EE
_ZN6Magick10PathArcAbsC2ERKS0_
_ZN6Magick10PathArcAbsC1ERKS0_
_ZN6Magick10PathArcAbsD2Ev
_ZN6Magick10PathArcAbsD1Ev
_ZN6Magick10PathArcAbsD0Ev
_ZNK6Magick10PathArcAbsclEPN9MagickLib12_DrawContextE
_ZNK6Magick10PathArcAbs4copyEv
_ZN6Magick10PathArcRelC2ERKNS_11PathArcArgsE
_ZN6Magick10PathArcRelC1ERKNS_11PathArcArgsE
_ZN6Magick10PathArcRelC2ERKSt4listINS_11PathArcArgsESaIS2_EE
_ZN6Magick10PathArcRelC1ERKSt4listINS_11PathArcArgsESaIS2_EE
_ZN6Magick10PathArcRelC2ERKS0_
_ZN6Magick10PathArcRelC1ERKS0_
_ZN6Magick10PathArcRelD2Ev
_ZN6Magick10PathArcRelD1Ev
_ZN6Magick10PathArcRelD0Ev
_ZNK6Magick10PathArcRelclEPN9MagickLib12_DrawContextE
_ZNK6Magick10PathArcRel4copyEv
_ZN6Magick13PathClosePathD2Ev
_ZN6Magick13PathClosePathD1Ev
_ZN6Magick13PathClosePathD0Ev
_ZNK6Magick13PathClosePathclEPN9MagickLib12_DrawContextE
_ZNK6Magick13PathClosePath4copyEv
_ZN6Magick14PathCurvetoAbsC2ERKNS_15PathCurvetoArgsE
_ZN6Magick14PathCurvetoAbsC1ERKNS_15PathCurvetoArgsE
_ZN6Magick14PathCurvetoAbsC2ERKSt4listINS_15PathCurvetoArgsESaIS2_EE
_ZN6Magick14PathCurvetoAbsC1ERKSt4listINS_15PathCurvetoArgsESaIS2_EE
_ZN6Magick14PathCurvetoAbsC2ERKS0_
_ZN6Magick14PathCurvetoAbsC1ERKS0_
_ZN6Magick14PathCurvetoAbsD2Ev
_ZN6Magick14PathCurvetoAbsD1Ev
_ZN6Magick14PathCurvetoAbsD0Ev
_ZNK6Magick14PathCurvetoAbsclEPN9MagickLib12_DrawContextE
_ZNK6Magick14PathCurvetoAbs4copyEv
_ZN6Magick14PathCurvetoRelC2ERKNS_15PathCurvetoArgsE
_ZN6Magick14PathCurvetoRelC1ERKNS_15PathCurvetoArgsE
_ZN6Magick14PathCurvetoRelC2ERKSt4listINS_15PathCurvetoArgsESaIS2_EE
_ZN6Magick14PathCurvetoRelC1ERKSt4listINS_15PathCurvetoArgsESaIS2_EE
_ZN6Magick14PathCurvetoRelC2ERKS0_
_ZN6Magick14PathCurvetoRelC1ERKS0_
_ZN6Magick14PathCurvetoRelD2Ev
_ZN6Magick14PathCurvetoRelD1Ev
_ZN6Magick14PathCurvetoRelD0Ev
_ZNK6Magick14PathCurvetoRelclEPN9MagickLib12_DrawContextE
_ZNK6Magick14PathCurvetoRel4copyEv
_ZN6Magick20PathSmoothCurvetoAbsC2ERKNS_10CoordinateE
_ZN6Magick20PathSmoothCurvetoAbsC1ERKNS_10CoordinateE
_ZN6Magick20PathSmoothCurvetoAbsC2ERKSt4listINS_10CoordinateESaIS2_EE
_ZN6Magick20PathSmoothCurvetoAbsC1ERKSt4listINS_10CoordinateESaIS2_EE
_ZN6Magick20PathSmoothCurvetoAbsC2ERKS0_
_ZN6Magick20PathSmoothCurvetoAbsC1ERKS0_
_ZN6Magick20PathSmoothCurvetoAbsD2Ev
_ZN6Magick20PathSmoothCurvetoAbsD1Ev
_ZN6Magick20PathSmoothCurvetoAbsD0Ev
_ZNK6Magick20PathSmoothCurvetoAbsclEPN9MagickLib12_DrawContextE
_ZNK6Magick20PathSmoothCurvetoAbs4copyEv
_ZN6Magick20PathSmoothCurvetoRelC2ERKNS_10CoordinateE
_ZN6Magick20PathSmoothCurvetoRelC1ERKNS_10CoordinateE
_ZN6Magick20PathSmoothCurvetoRelC2ERKSt4listINS_10CoordinateESaIS2_EE
_ZN6Magick20PathSmoothCurvetoRelC1ERKSt4listINS_10CoordinateESaIS2_EE
_ZN6Magick20PathSmoothCurvetoRelC2ERKS0_
_ZN6Magick20PathSmoothCurvetoRelC1ERKS0_
_ZN6Magick20PathSmoothCurvetoRelD2Ev
_ZN6Magick20PathSmoothCurvetoRelD1Ev
_ZN6Magick20PathSmoothCurvetoRelD0Ev
_ZNK6Magick20PathSmoothCurvetoRelclEPN9MagickLib12_DrawContextE
_ZNK6Magick20PathSmoothCurvetoRel4copyEv
_ZN6Magick23PathQuadraticCurvetoAbsC2ERKNS_24PathQuadraticCurvetoArgsE
_ZN6Magick23PathQuadraticCurvetoAbsC1ERKNS_24PathQuadraticCurvetoArgsE
_ZN6Magick23PathQuadraticCurvetoAbsC2ERKSt4listINS_24PathQuadraticCurvetoArgsESaIS2_EE
_ZN6Magick23PathQuadraticCurvetoAbsC1ERKSt4listINS_24PathQuadraticCurvetoArgsESaIS2_EE
_ZN6Magick23PathQuadraticCurvetoAbsC2ERKS0_
_ZN6Magick23PathQuadraticCurvetoAbsC1ERKS0_
_ZN6Magick23PathQuadraticCurvetoAbsD2Ev
_ZN6Magick23PathQuadraticCurvetoAbsD1Ev
_ZN6Magick23PathQuadraticCurvetoAbsD0Ev
_ZNK6Magick23PathQuadraticCurvetoAbsclEPN9MagickLib12_DrawContextE
_ZNK6Magick23PathQuadraticCurvetoAbs4copyEv
_ZN6Magick23PathQuadraticCurvetoRelC2ERKNS_24PathQuadraticCurvetoArgsE
_ZN6Magick23PathQuadraticCurvetoRelC1ERKNS_24PathQuadraticCurvetoArgsE
_ZN6Magick23PathQuadraticCurvetoRelC2ERKSt4listINS_24PathQuadraticCurvetoArgsESaIS2_EE
_ZN6Magick23PathQuadraticCurvetoRelC1ERKSt4listINS_24PathQuadraticCurvetoArgsESaIS2_EE
_ZN6Magick23PathQuadraticCurvetoRelC2ERKS0_
_ZN6Magick23PathQuadraticCurvetoRelC1ERKS0_
_ZN6Magick23PathQuadraticCurvetoRelD2Ev
_ZN6Magick23PathQuadraticCurvetoRelD1Ev
_ZN6Magick23PathQuadraticCurvetoRelD0Ev
_ZNK6Magick23PathQuadraticCurvetoRelclEPN9MagickLib12_DrawContextE
_ZNK6Magick23PathQuadraticCurvetoRel4copyEv
_ZN6Magick29PathSmoothQuadraticCurvetoAbsC2ERKNS_10CoordinateE
_ZN6Magick29PathSmoothQuadraticCurvetoAbsC1ERKNS_10CoordinateE
_ZN6Magick29PathSmoothQuadraticCurvetoAbsC2ERKSt4listINS_10CoordinateESaIS2_EE
_ZN6Magick29PathSmoothQuadraticCurvetoAbsC1ERKSt4listINS_10CoordinateESaIS2_EE
_ZN6Magick29PathSmoothQuadraticCurvetoAbsC2ERKS0_
_ZN6Magick29PathSmoothQuadraticCurvetoAbsC1ERKS0_
_ZN6Magick29PathSmoothQuadraticCurvetoAbsD2Ev
_ZN6Magick29PathSmoothQuadraticCurvetoAbsD1Ev
_ZN6Magick29PathSmoothQuadraticCurvetoAbsD0Ev
_ZNK6Magick29PathSmoothQuadraticCurvetoAbsclEPN9MagickLib12_DrawContextE
_ZNK6Magick29PathSmoothQuadraticCurvetoAbs4copyEv
_ZN6Magick29PathSmoothQuadraticCurvetoRelC2ERKNS_10CoordinateE
_ZN6Magick29PathSmoothQuadraticCurvetoRelC1ERKNS_10CoordinateE
_ZN6Magick29PathSmoothQuadraticCurvetoRelC2ERKSt4listINS_10CoordinateESaIS2_EE
_ZN6Magick29PathSmoothQuadraticCurvetoRelC1ERKSt4listINS_10CoordinateESaIS2_EE
_ZN6Magick29PathSmoothQuadraticCurvetoRelC2ERKS0_
_ZN6Magick29PathSmoothQuadraticCurvetoRelC1ERKS0_
_ZN6Magick29PathSmoothQuadraticCurvetoRelD2Ev
_ZN6Magick29PathSmoothQuadraticCurvetoRelD1Ev
_ZN6Magick29PathSmoothQuadraticCurvetoRelD0Ev
_ZNK6Magick29PathSmoothQuadraticCurvetoRelclEPN9MagickLib12_DrawContextE
_ZNK6Magick29PathSmoothQuadraticCurvetoRel4copyEv
_ZN6Magick13PathLinetoAbsC2ERKNS_10CoordinateE
_ZN6Magick13PathLinetoAbsC1ERKNS_10CoordinateE
_ZN6Magick13PathLinetoAbsC2ERKSt4listINS_10CoordinateESaIS2_EE
_ZN6Magick13PathLinetoAbsC1ERKSt4listINS_10CoordinateESaIS2_EE
_ZN6Magick13PathLinetoAbsC2ERKS0_
_ZN6Magick13PathLinetoAbsC1ERKS0_
_ZN6Magick13PathLinetoAbsD2Ev
_ZN6Magick13PathLinetoAbsD1Ev
_ZN6Magick13PathLinetoAbsD0Ev
_ZNK6Magick13PathLinetoAbsclEPN9MagickLib12_DrawContextE
_ZNK6Magick13PathLinetoAbs4copyEv
_ZN6Magick13PathLinetoRelC2ERKNS_10CoordinateE
_ZN6Magick13PathLinetoRelC1ERKNS_10CoordinateE
_ZN6Magick13PathLinetoRelC2ERKSt4listINS_10CoordinateESaIS2_EE
_ZN6Magick13PathLinetoRelC1ERKSt4listINS_10CoordinateESaIS2_EE
_ZN6Magick13PathLinetoRelC2ERKS0_
_ZN6Magick13PathLinetoRelC1ERKS0_
_ZN6Magick13PathLinetoRelD2Ev
_ZN6Magick13PathLinetoRelD1Ev
_ZN6Magick13PathLinetoRelD0Ev
_ZNK6Magick13PathLinetoRelclEPN9MagickLib12_DrawContextE
_ZNK6Magick13PathLinetoRel4copyEv
_ZN6Magick23PathLinetoHorizontalAbsD2Ev
_ZN6Magick23PathLinetoHorizontalAbsD1Ev
_ZN6Magick23PathLinetoHorizontalAbsD0Ev
_ZNK6Magick23PathLinetoHorizontalAbsclEPN9MagickLib12_DrawContextE
_ZNK6Magick23PathLinetoHorizontalAbs4copyEv
_ZN6Magick23PathLinetoHorizontalRelD2Ev
_ZN6Magick23PathLinetoHorizontalRelD1Ev
_ZN6Magick23PathLinetoHorizontalRelD0Ev
_ZNK6Magick23PathLinetoHorizontalRelclEPN9MagickLib12_DrawContextE
_ZNK6Magick23PathLinetoHorizontalRel4copyEv
_ZN6Magick21PathLinetoVerticalAbsD2Ev
_ZN6Magick21PathLinetoVerticalAbsD1Ev
_ZN6Magick21PathLinetoVerticalAbsD0Ev
_ZNK6Magick21PathLinetoVerticalAbsclEPN9MagickLib12_DrawContextE
_ZNK6Magick21PathLinetoVerticalAbs4copyEv
_ZN6Magick21PathLinetoVerticalRelD2Ev
_ZN6Magick21PathLinetoVerticalRelD1Ev
_ZN6Magick21PathLinetoVerticalRelD0Ev
_ZNK6Magick21PathLinetoVerticalRelclEPN9MagickLib12_DrawContextE
_ZNK6Magick21PathLinetoVerticalRel4copyEv
_ZN6Magick13PathMovetoAbsC2ERKNS_10CoordinateE
_ZN6Magick13PathMovetoAbsC1ERKNS_10CoordinateE
_ZN6Magick13PathMovetoAbsC2ERKSt4listINS_10CoordinateESaIS2_EE
_ZN6Magick13PathMovetoAbsC1ERKSt4listINS_10CoordinateESaIS2_EE
_ZN6Magick13PathMovetoAbsC2ERKS0_
_ZN6Magick13PathMovetoAbsC1ERKS0_
_ZN6Magick13PathMovetoAbsD2Ev
_ZN6Magick13PathMovetoAbsD1Ev
_ZN6Magick13PathMovetoAbsD0Ev
_ZNK6Magick13PathMovetoAbsclEPN9MagickLib12_DrawContextE
_ZNK6Magick13PathMovetoAbs4copyEv
_ZN6Magick13PathMovetoRelC2ERKNS_10CoordinateE
_ZN6Magick13PathMovetoRelC1ERKNS_10CoordinateE
_ZN6Magick13PathMovetoRelC2ERKSt4listINS_10CoordinateESaIS2_EE
_ZN6Magick13PathMovetoRelC1ERKSt4listINS_10CoordinateESaIS2_EE
_ZN6Magick13PathMovetoRelC2ERKS0_
_ZN6Magick13PathMovetoRelC1ERKS0_
_ZN6Magick13PathMovetoRelD2Ev
_ZN6Magick13PathMovetoRelD1Ev
_ZN6Magick13PathMovetoRelD0Ev
_ZNK6Magick13PathMovetoRelclEPN9MagickLib12_DrawContextE
_ZNK6Magick13PathMovetoRel4copyEv
_ZNSt10_List_baseIN6Magick10CoordinateESaIS1_EE5clearEv
_ZNSt4listIN6Magick10CoordinateESaIS1_EE18_M_insert_dispatchISt14_List_iteratorIS1_RKS1_PS6_EEEvS5_IS1_RS1_PS1_ET_SD_12__false_type
_ZNSt10_List_baseIN6Magick5VPathESaIS1_EE5clearEv
_ZNSt4listIN6Magick5VPathESaIS1_EE18_M_insert_dispatchISt14_List_iteratorIS1_RKS1_PS6_EEEvS5_IS1_RS1_PS1_ET_SD_12__false_type
_ZNSt10_List_baseIN6Magick11PathArcArgsESaIS1_EE5clearEv
_ZNSt4listIN6Magick11PathArcArgsESaIS1_EE14_M_fill_insertESt14_List_iteratorIS1_RS1_PS1_EjRKS1_
_ZNSt4listIN6Magick11PathArcArgsESaIS1_EE18_M_insert_dispatchISt14_List_iteratorIS1_RKS1_PS6_EEEvS5_IS1_RS1_PS1_ET_SD_12__false_type
_ZNSt10_List_baseIN6Magick15PathCurvetoArgsESaIS1_EE5clearEv
_ZNSt4listIN6Magick15PathCurvetoArgsESaIS1_EE14_M_fill_insertESt14_List_iteratorIS1_RS1_PS1_EjRKS1_
_ZNSt4listIN6Magick15PathCurvetoArgsESaIS1_EE18_M_insert_dispatchISt14_List_iteratorIS1_RKS1_PS6_EEEvS5_IS1_RS1_PS1_ET_SD_12__false_type
_ZNSt4listIN6Magick10CoordinateESaIS1_EE14_M_fill_insertESt14_List_iteratorIS1_RS1_PS1_EjRKS1_
_ZNSt10_List_baseIN6Magick24PathQuadraticCurvetoArgsESaIS1_EE5clearEv
_ZNSt4listIN6Magick24PathQuadraticCurvetoArgsESaIS1_EE14_M_fill_insertESt14_List_iteratorIS1_RS1_PS1_EjRKS1_
_ZNSt4listIN6Magick24PathQuadraticCurvetoArgsESaIS1_EE18_M_insert_dispatchISt14_List_iteratorIS1_RKS1_PS6_EEEvS5_IS1_RS1_PS1_ET_SD_12__false_type
_ZN6Magick10CoordinateD1Ev
_ZN6Magick10CoordinateD0Ev
_ZNSt10_List_baseIN6Magick10CoordinateESaIS1_EED2Ev
_ZSt10__distanceISt14_List_iteratorIN6Magick10CoordinateERKS2_PS3_EENSt15iterator_traitsIT_E15difference_typeES8_S8_St18input_iterator_tag
_ZNSt10_List_baseIN6Magick5VPathESaIS1_EED2Ev
_ZNSt14__simple_allocISt10_List_nodeIN6Magick5VPathEESt24__default_alloc_templateILb1ELi0EEE10deallocateEPS3_j
_ZNSt10_List_baseIN6Magick11PathArcArgsESaIS1_EED2Ev
_ZNSt10_List_baseIN6Magick15PathCurvetoArgsESaIS1_EED2Ev
_ZNSt10_List_baseIN6Magick24PathQuadraticCurvetoArgsESaIS1_EED2Ev
_ZNSt4listIN6Magick10CoordinateESaIS1_EE14_M_create_nodeERKS1_
_ZNSt4listIN6Magick11PathArcArgsESaIS1_EE14_M_create_nodeERKS1_
_ZNSt4listIN6Magick15PathCurvetoArgsESaIS1_EE14_M_create_nodeERKS1_
_ZNSt4listIN6Magick24PathQuadraticCurvetoArgsESaIS1_EE14_M_create_nodeERKS1_
_ZN6Magick9ExceptionC2ERKSs
_ZN6Magick9ExceptionC1ERKSs
_ZN6Magick9ExceptionC2ERKS0_
_ZN6Magick9ExceptionC1ERKS0_
_ZN6Magick9ExceptionaSERKS0_
_ZNK6Magick9Exception4whatEv
_ZN6Magick7WarningC2ERKSs
_ZN6Magick7WarningC1ERKSs
_ZN6Magick16WarningUndefinedC2ERKSs
_ZN6Magick16WarningUndefinedC1ERKSs
_ZN6Magick20WarningResourceLimitC2ERKSs
_ZN6Magick20WarningResourceLimitC1ERKSs
_ZN6Magick14WarningXServerC2ERKSs
_ZN6Magick14WarningXServerC1ERKSs
_ZN6Magick13WarningOptionC2ERKSs
_ZN6Magick13WarningOptionC1ERKSs
_ZN6Magick15WarningDelegateC2ERKSs
_ZN6Magick15WarningDelegateC1ERKSs
_ZN6Magick22WarningMissingDelegateC2ERKSs
_ZN6Magick22WarningMissingDelegateC1ERKSs
_ZN6Magick19WarningCorruptImageC2ERKSs
_ZN6Magick19WarningCorruptImageC1ERKSs
_ZN6Magick15WarningFileOpenC2ERKSs
_ZN6Magick15WarningFileOpenC1ERKSs
_ZN6Magick11WarningBlobC2ERKSs
_ZN6Magick11WarningBlobC1ERKSs
_ZN6Magick12WarningCacheC2ERKSs
_ZN6Magick12WarningCacheC1ERKSs
_ZN6Magick5ErrorC2ERKSs
_ZN6Magick5ErrorC1ERKSs
_ZN6Magick14ErrorUndefinedC2ERKSs
_ZN6Magick14ErrorUndefinedC1ERKSs
_ZN6Magick18ErrorResourceLimitC2ERKSs
_ZN6Magick18ErrorResourceLimitC1ERKSs
_ZN6Magick12ErrorXServerC2ERKSs
_ZN6Magick12ErrorXServerC1ERKSs
_ZN6Magick11ErrorOptionC2ERKSs
_ZN6Magick11ErrorOptionC1ERKSs
_ZN6Magick13ErrorDelegateC2ERKSs
_ZN6Magick13ErrorDelegateC1ERKSs
_ZN6Magick20ErrorMissingDelegateC2ERKSs
_ZN6Magick20ErrorMissingDelegateC1ERKSs
_ZN6Magick17ErrorCorruptImageC2ERKSs
_ZN6Magick17ErrorCorruptImageC1ERKSs
_ZN6Magick13ErrorFileOpenC2ERKSs
_ZN6Magick13ErrorFileOpenC1ERKSs
_ZN6Magick9ErrorBlobC2ERKSs
_ZN6Magick9ErrorBlobC1ERKSs
_ZN6Magick10ErrorCacheC2ERKSs
_ZN6Magick10ErrorCacheC1ERKSs
_ZN6Magick22throwExceptionExplicitEN9MagickLib13ExceptionTypeEPKcS3_
_ZN6Magick14throwExceptionERN9MagickLib14_ExceptionInfoE
_ZStplIcSt11char_traitsIcESaIcEESbIT_T0_T1_EPKS3_RKS6_
_ZN6Magick16WarningUndefinedD1Ev
_ZN6Magick16WarningUndefinedD0Ev
_ZN6Magick9ExceptionD1Ev
_ZN6Magick9ExceptionD0Ev
_ZN6Magick7WarningD0Ev
_ZN6Magick7WarningD1Ev
_ZN6Magick20WarningResourceLimitD0Ev
_ZN6Magick20WarningResourceLimitD1Ev
_ZN6Magick14WarningXServerD0Ev
_ZN6Magick14WarningXServerD1Ev
_ZN6Magick13WarningOptionD0Ev
_ZN6Magick13WarningOptionD1Ev
_ZN6Magick15WarningDelegateD0Ev
_ZN6Magick15WarningDelegateD1Ev
_ZN6Magick22WarningMissingDelegateD0Ev
_ZN6Magick22WarningMissingDelegateD1Ev
_ZN6Magick19WarningCorruptImageD0Ev
_ZN6Magick19WarningCorruptImageD1Ev
_ZN6Magick15WarningFileOpenD0Ev
_ZN6Magick15WarningFileOpenD1Ev
_ZN6Magick11WarningBlobD0Ev
_ZN6Magick11WarningBlobD1Ev
_ZN6Magick12WarningCacheD0Ev
_ZN6Magick12WarningCacheD1Ev
_ZN6Magick5ErrorD0Ev
_ZN6Magick5ErrorD1Ev
_ZN6Magick14ErrorUndefinedD0Ev
_ZN6Magick14ErrorUndefinedD1Ev
_ZN6Magick18ErrorResourceLimitD0Ev
_ZN6Magick18ErrorResourceLimitD1Ev
_ZN6Magick12ErrorXServerD0Ev
_ZN6Magick12ErrorXServerD1Ev
_ZN6Magick11ErrorOptionD0Ev
_ZN6Magick11ErrorOptionD1Ev
_ZN6Magick13ErrorDelegateD0Ev
_ZN6Magick13ErrorDelegateD1Ev
_ZN6Magick20ErrorMissingDelegateD0Ev
_ZN6Magick20ErrorMissingDelegateD1Ev
_ZN6Magick17ErrorCorruptImageD0Ev
_ZN6Magick17ErrorCorruptImageD1Ev
_ZN6Magick13ErrorFileOpenD0Ev
_ZN6Magick13ErrorFileOpenD1Ev
_ZN6Magick9ErrorBlobD0Ev
_ZN6Magick9ErrorBlobD1Ev
_ZN6Magick10ErrorCacheD0Ev
_ZN6Magick10ErrorCacheD1Ev
_ZN6Magick11CloneStringEPPcRKSs
_ZN6MagickeqERKNS_8GeometryES2_
_ZN6MagickneERKNS_8GeometryES2_
_ZN6MagickgtERKNS_8GeometryES2_
_ZN6MagickltERKNS_8GeometryES2_
_ZN6MagickgeERKNS_8GeometryES2_
_ZN6MagickleERKNS_8GeometryES2_
_ZN6Magick8GeometryC2Ejjjjbb
_ZN6Magick8GeometryC1Ejjjjbb
_ZN6Magick8GeometryC2ERKSs
_ZN6Magick8GeometryC1ERKSs
_ZN6Magick8GeometryC2EPKc
_ZN6Magick8GeometryC1EPKc
_ZN6Magick8GeometryC2ERKS0_
_ZN6Magick8GeometryC1ERKS0_
_ZN6Magick8GeometryC2Ev
_ZN6Magick8GeometryC1Ev
_ZN6Magick8GeometryD2Ev
_ZN6Magick8GeometryD1Ev
_ZN6Magick8GeometryaSERKS0_
_ZN6Magick8GeometryaSERKSs
_ZN6Magick8GeometryaSEPKc
_ZNK6Magick8GeometrycvSsEv
_ZN6Magick8GeometryC2ERKN9MagickLib14_RectangleInfoE
_ZN6Magick8GeometryC1ERKN9MagickLib14_RectangleInfoE
_ZNK6Magick8GeometrycvN9MagickLib14_RectangleInfoEEv
_ZN6MagickeqERKNS_5ImageES2_
_ZN6MagickneERKNS_5ImageES2_
_ZN6MagickgtERKNS_5ImageES2_
_ZN6MagickltERKNS_5ImageES2_
_ZN6MagickgeERKNS_5ImageES2_
_ZN6MagickleERKNS_5ImageES2_
_ZN6Magick5ImageC2ERKSs
_ZN6Magick5ImageC1ERKSs
_ZN6Magick5ImageC2ERKNS_8GeometryERKNS_5ColorE
_ZN6Magick5ImageC1ERKNS_8GeometryERKNS_5ColorE
_ZN6Magick5ImageC2ERKNS_4BlobE
_ZN6Magick5ImageC1ERKNS_4BlobE
_ZN6Magick5ImageC2ERKNS_4BlobERKNS_8GeometryE
_ZN6Magick5ImageC1ERKNS_4BlobERKNS_8GeometryE
_ZN6Magick5ImageC2ERKNS_4BlobERKNS_8GeometryEj
_ZN6Magick5ImageC1ERKNS_4BlobERKNS_8GeometryEj
_ZN6Magick5ImageC2ERKNS_4BlobERKNS_8GeometryEjRKSs
_ZN6Magick5ImageC1ERKNS_4BlobERKNS_8GeometryEjRKSs
_ZN6Magick5ImageC2ERKNS_4BlobERKNS_8GeometryERKSs
_ZN6Magick5ImageC1ERKNS_4BlobERKNS_8GeometryERKSs
_ZN6Magick5ImageC2EjjRKSsN9MagickLib11StorageTypeEPKv
_ZN6Magick5ImageC1EjjRKSsN9MagickLib11StorageTypeEPKv
_ZN6Magick5ImageC2Ev
_ZN6Magick5ImageC1Ev
_ZN6Magick5ImageD2Ev
_ZN6Magick5ImageD1Ev
_ZN6Magick5ImageD0Ev
_ZN6Magick5Image8addNoiseEN9MagickLib9NoiseTypeE
_ZN6Magick5Image8annotateERKSsRKNS_8GeometryE
_ZN6Magick5Image8annotateERKSsRKNS_8GeometryEN9MagickLib11GravityTypeE
_ZN6Magick5Image8annotateERKSsRKNS_8GeometryEN9MagickLib11GravityTypeEd
_ZN6Magick5Image8annotateERKSsN9MagickLib11GravityTypeE
_ZN6Magick5Image4blurEdd
_ZN6Magick5Image6borderERKNS_8GeometryE
_ZN6Magick5Image7channelEN9MagickLib11ChannelTypeE
_ZN6Magick5Image8charcoalEdd
_ZN6Magick5Image4chopERKNS_8GeometryE
_ZN6Magick5Image8colorizeEjjjRKNS_5ColorE
_ZN6Magick5Image8colorizeEjRKNS_5ColorE
_ZN6Magick5Image9compositeERKS0_iiN9MagickLib17CompositeOperatorE
_ZN6Magick5Image9compositeERKS0_RKNS_8GeometryEN9MagickLib17CompositeOperatorE
_ZN6Magick5Image9compositeERKS0_N9MagickLib11GravityTypeENS3_17CompositeOperatorE
_ZN6Magick5Image8contrastEj
_ZN6Magick5Image8convolveEjPKd
_ZN6Magick5Image4cropERKNS_8GeometryE
_ZN6Magick5Image13cycleColormapEi
_ZN6Magick5Image9despeckleEv
_ZN6Magick5Image7displayEv
_ZN6Magick5Image4drawERKNS_8DrawableE
_ZN6Magick5Image4drawERKSt4listINS_8DrawableESaIS2_EE
_ZN6Magick5Image4edgeEd
_ZN6Magick5Image6embossEdd
_ZN6Magick5Image7enhanceEv
_ZN6Magick5Image8equalizeEv
_ZN6Magick5Image5eraseEv
_ZN6Magick5Image4flipEv
_ZN6Magick5Image14floodFillColorEjjRKNS_5ColorE
_ZN6Magick5Image14floodFillColorERKNS_8GeometryERKNS_5ColorE
_ZN6Magick5Image14floodFillColorEjjRKNS_5ColorES3_
_ZN6Magick5Image14floodFillColorERKNS_8GeometryERKNS_5ColorES6_
_ZN6Magick5Image16floodFillOpacityEjjjN9MagickLib11PaintMethodE
_ZN6Magick5Image16floodFillTextureEjjRKS0_
_ZN6Magick5Image16floodFillTextureERKNS_8GeometryERKS0_
_ZN6Magick5Image16floodFillTextureEjjRKS0_RKNS_5ColorE
_ZN6Magick5Image16floodFillTextureERKNS_8GeometryERKS0_RKNS_5ColorE
_ZN6Magick5Image4flopEv
_ZN6Magick5Image5frameERKNS_8GeometryE
_ZN6Magick5Image5frameEjjii
_ZN6Magick5Image5gammaEd
_ZN6Magick5Image5gammaEddd
_ZN6Magick5Image12gaussianBlurEdd
_ZN6Magick5Image7implodeEd
_ZN6Magick5Image7magnifyEv
_ZN6Magick5Image3mapERKS0_b
_ZN6Magick5Image14matteFloodfillERKNS_5ColorEjiiN9MagickLib11PaintMethodE
_ZN6Magick5Image12medianFilterEd
_ZN6Magick5Image6minifyEv
_ZN6Magick5Image8modulateEddd
_ZN6Magick5Image6negateEb
_ZN6Magick5Image9normalizeEv
_ZN6Magick5Image8oilPaintEd
_ZN6Magick5Image7opacityEj
_ZN6Magick5Image6opaqueERKNS_5ColorES3_
_ZN6Magick5Image4pingERKSs
_ZN6Magick5Image4pingERKNS_4BlobE
_ZN6Magick5Image8quantizeEb
_ZN6Magick5Image5raiseERKNS_8GeometryEb
_ZN6Magick5Image4readERKSs
_ZN6Magick5Image4readERKNS_8GeometryERKSs
_ZN6Magick5Image4readERKNS_4BlobE
_ZN6Magick5Image4readERKNS_4BlobERKNS_8GeometryE
_ZN6Magick5Image4readERKNS_4BlobERKNS_8GeometryEj
_ZN6Magick5Image4readERKNS_4BlobERKNS_8GeometryEjRKSs
_ZN6Magick5Image4readERKNS_4BlobERKNS_8GeometryERKSs
_ZN6Magick5Image4readEjjRKSsN9MagickLib11StorageTypeEPKv
_ZN6Magick5Image11reduceNoiseEd
_ZN6Magick5Image4rollERKNS_8GeometryE
_ZN6Magick5Image4rollEjj
_ZN6Magick5Image6rotateEd
_ZN6Magick5Image6sampleERKNS_8GeometryE
_ZN6Magick5Image5scaleERKNS_8GeometryE
_ZN6Magick5Image7segmentEdd
_ZN6Magick5Image5shadeEddb
_ZN6Magick5Image7sharpenEdd
_ZN6Magick5Image5shaveERKNS_8GeometryE
_ZN6Magick5Image5shearEdd
_ZN6Magick5Image8solarizeEd
_ZN6Magick5Image6spreadEj
_ZN6Magick5Image7steganoERKS0_
_ZN6Magick5Image6stereoERKS0_
_ZN6Magick5Image5swirlEd
_ZN6Magick5Image7textureERKS0_
_ZN6Magick5Image9thresholdEd
_ZN6Magick5Image9transformERKNS_8GeometryE
_ZN6Magick5Image9transformERKNS_8GeometryES3_
_ZN6Magick5Image11transparentERKNS_5ColorE
_ZN6Magick5Image4trimEv
_ZN6Magick5Image11unsharpmaskEdddd
_ZN6Magick5Image4waveEdd
_ZN6Magick5Image5writeERKSs
_ZN6Magick5Image5writeEPNS_4BlobE
_ZN6Magick5Image5writeEPNS_4BlobERKSs
_ZN6Magick5Image5writeEPNS_4BlobERKSsj
_ZN6Magick5Image5writeEiijjRKSsN9MagickLib11StorageTypeEPv
_ZN6Magick5Image4zoomERKNS_8GeometryE
_ZN6Magick5Image6adjoinEb
_ZNK6Magick5Image6adjoinEv
_ZN6Magick5Image9antiAliasEb
_ZN6Magick5Image9antiAliasEv
_ZN6Magick5Image14animationDelayEj
_ZNK6Magick5Image14animationDelayEv
_ZN6Magick5Image19animationIterationsEj
_ZNK6Magick5Image19animationIterationsEv
_ZN6Magick5Image15backgroundColorERKNS_5ColorE
_ZNK6Magick5Image15backgroundColorEv
_ZN6Magick5Image17backgroundTextureERKSs
_ZNK6Magick5Image17backgroundTextureEv
_ZNK6Magick5Image11baseColumnsEv
_ZNK6Magick5Image12baseFilenameEv
_ZNK6Magick5Image8baseRowsEv
_ZN6Magick5Image11borderColorERKNS_5ColorE
_ZNK6Magick5Image11borderColorEv
_ZNK6Magick5Image11boundingBoxEv
_ZN6Magick5Image8boxColorERKNS_5ColorE
_ZNK6Magick5Image8boxColorEv
_ZN6Magick5Image14cacheThresholdEj
_ZN6Magick5Image17chromaBluePrimaryEdd
_ZNK6Magick5Image17chromaBluePrimaryEPdS1_
_ZN6Magick5Image18chromaGreenPrimaryEdd
_ZNK6Magick5Image18chromaGreenPrimaryEPdS1_
_ZN6Magick5Image16chromaRedPrimaryEdd
_ZNK6Magick5Image16chromaRedPrimaryEPdS1_
_ZN6Magick5Image16chromaWhitePointEdd
_ZNK6Magick5Image16chromaWhitePointEPdS1_
_ZN6Magick5Image9classTypeEN9MagickLib9ClassTypeE
_ZN6Magick5Image8clipMaskERKS0_
_ZNK6Magick5Image8clipMaskEv
_ZN6Magick5Image9colorFuzzEd
_ZNK6Magick5Image9colorFuzzEv
_ZN6Magick5Image8colorMapEjRKNS_5ColorE
_ZNK6Magick5Image8colorMapEj
_ZN6Magick5Image10colorSpaceEN9MagickLib14ColorspaceTypeE
_ZNK6Magick5Image10colorSpaceEv
_ZN6Magick5Image7commentERKSs
_ZNK6Magick5Image7commentEv
_ZN6Magick5Image12compressTypeEN9MagickLib15CompressionTypeE
_ZNK6Magick5Image12compressTypeEv
_ZN6Magick5Image5debugEb
_ZNK6Magick5Image5debugEv
_ZN6Magick5Image7densityERKNS_8GeometryE
_ZNK6Magick5Image7densityEv
_ZN6Magick5Image5depthEj
_ZNK6Magick5Image5depthEv
_ZNK6Magick5Image9directoryEv
_ZN6Magick5Image6endianEN9MagickLib10EndianTypeE
_ZNK6Magick5Image6endianEv
_ZN6Magick5Image8fileNameERKSs
_ZNK6Magick5Image8fileNameEv
_ZNK6Magick5Image8fileSizeEv
_ZN6Magick5Image9fillColorERKNS_5ColorE
_ZNK6Magick5Image9fillColorEv
_ZN6Magick5Image8fillRuleERKN9MagickLib8FillRuleE
_ZNK6Magick5Image8fillRuleEv
_ZN6Magick5Image11fillPatternERKS0_
_ZNK6Magick5Image11fillPatternEv
_ZN6Magick5Image10filterTypeEN9MagickLib11FilterTypesE
_ZNK6Magick5Image10filterTypeEv
_ZN6Magick5Image4fontERKSs
_ZNK6Magick5Image4fontEv
_ZN6Magick5Image13fontPointsizeEd
_ZNK6Magick5Image13fontPointsizeEv
_ZN6Magick5Image15fontTypeMetricsERKSsPNS_10TypeMetricE
_ZNK6Magick5Image6formatEv
_ZNK6Magick5Image5gammaEv
_ZNK6Magick5Image8geometryEv
_ZN6Magick5Image16gifDisposeMethodEj
_ZNK6Magick5Image16gifDisposeMethodEv
_ZN6Magick5Image15iccColorProfileERKNS_4BlobE
_ZNK6Magick5Image15iccColorProfileEv
_ZN6Magick5Image13interlaceTypeEN9MagickLib13InterlaceTypeE
_ZNK6Magick5Image13interlaceTypeEv
_ZN6Magick5Image11iptcProfileERKNS_4BlobE
_ZNK6Magick5Image11iptcProfileEv
_ZN6Magick5Image7isValidEb
_ZNK6Magick5Image7isValidEv
_ZN6Magick5Image5labelERKSs
_ZNK6Magick5Image5labelEv
_ZN6Magick5Image6magickERKSs
_ZNK6Magick5Image6magickEv
_ZN6Magick5Image5matteEb
_ZNK6Magick5Image5matteEv
_ZN6Magick5Image10matteColorERKNS_5ColorE
_ZNK6Magick5Image10matteColorEv
_ZNK6Magick5Image17meanErrorPerPixelEv
_ZN6Magick5Image10monochromeEb
_ZNK6Magick5Image10monochromeEv
_ZNK6Magick5Image15montageGeometryEv
_ZNK6Magick5Image18normalizedMaxErrorEv
_ZNK6Magick5Image19normalizedMeanErrorEv
_ZN6Magick5Image8penColorERKNS_5ColorE
_ZNK6Magick5Image8penColorEv
_ZN6Magick5Image10penTextureERKS0_
_ZNK6Magick5Image10penTextureEv
_ZN6Magick5Image10pixelColorEjjRKNS_5ColorE
_ZNK6Magick5Image10pixelColorEjj
_ZN6Magick5Image4pageERKNS_8GeometryE
_ZNK6Magick5Image4pageEv
_ZN6Magick5Image7qualityEj
_ZNK6Magick5Image7qualityEv
_ZN6Magick5Image14quantizeColorsEj
_ZNK6Magick5Image14quantizeColorsEv
_ZN6Magick5Image18quantizeColorSpaceEN9MagickLib14ColorspaceTypeE
_ZNK6Magick5Image18quantizeColorSpaceEv
_ZN6Magick5Image14quantizeDitherEb
_ZNK6Magick5Image14quantizeDitherEv
_ZN6Magick5Image17quantizeTreeDepthEj
_ZNK6Magick5Image17quantizeTreeDepthEv
_ZN6Magick5Image15renderingIntentEN9MagickLib15RenderingIntentE
_ZNK6Magick5Image15renderingIntentEv
_ZN6Magick5Image15resolutionUnitsEN9MagickLib14ResolutionTypeE
_ZNK6Magick5Image15resolutionUnitsEv
_ZN6Magick5Image5sceneEj
_ZNK6Magick5Image5sceneEv
_ZNK6Magick5Image9signatureEb
_ZN6Magick5Image4sizeERKNS_8GeometryE
_ZNK6Magick5Image4sizeEv
_ZN6Magick5Image15strokeAntiAliasEb
_ZNK6Magick5Image15strokeAntiAliasEv
_ZN6Magick5Image11strokeColorERKNS_5ColorE
_ZNK6Magick5Image11strokeColorEv
_ZN6Magick5Image15strokeDashArrayEPKd
_ZNK6Magick5Image15strokeDashArrayEv
_ZN6Magick5Image16strokeDashOffsetEd
_ZNK6Magick5Image16strokeDashOffsetEv
_ZN6Magick5Image13strokeLineCapEN9MagickLib7LineCapE
_ZNK6Magick5Image13strokeLineCapEv
_ZN6Magick5Image14strokeLineJoinEN9MagickLib8LineJoinE
_ZNK6Magick5Image14strokeLineJoinEv
_ZN6Magick5Image16strokeMiterLimitEj
_ZNK6Magick5Image16strokeMiterLimitEv
_ZN6Magick5Image13strokePatternERKS0_
_ZNK6Magick5Image13strokePatternEv
_ZN6Magick5Image11strokeWidthEd
_ZNK6Magick5Image11strokeWidthEv
_ZN6Magick5Image8subImageEj
_ZNK6Magick5Image8subImageEv
_ZN6Magick5Image8subRangeEj
_ZNK6Magick5Image8subRangeEv
_ZN6Magick5Image8tileNameERKSs
_ZNK6Magick5Image8tileNameEv
_ZN6Magick5Image11totalColorsEv
_ZN6Magick5Image15transformOriginEdd
_ZN6Magick5Image17transformRotationEd
_ZN6Magick5Image14transformResetEv
_ZN6Magick5Image14transformScaleEdd
_ZN6Magick5Image14transformSkewXEd
_ZN6Magick5Image14transformSkewYEd
_ZNK6Magick5Image4typeEv
_ZN6Magick5Image4typeEN9MagickLib9ImageTypeE
_ZN6Magick5Image7verboseEb
_ZNK6Magick5Image7verboseEv
_ZN6Magick5Image4viewERKSs
_ZNK6Magick5Image4viewEv
_ZN6Magick5Image10x11DisplayERKSs
_ZNK6Magick5Image10x11DisplayEv
_ZNK6Magick5Image11xResolutionEv
_ZNK6Magick5Image11yResolutionEv
_ZN6Magick5ImageC2ERKS0_
_ZN6Magick5ImageC1ERKS0_
_ZN6Magick5ImageaSERKS0_
_ZNK6Magick5Image14getConstPixelsEiijj
_ZNK6Magick5Image15getConstIndexesEv
_ZNK6Magick5Image10getIndexesEv
_ZN6Magick5Image9getPixelsEiijj
_ZN6Magick5Image9setPixelsEiijj
_ZN6Magick5Image10syncPixelsEv
_ZN6Magick5Image10readPixelsEN9MagickLib11QuantumTypeEPKh
_ZN6Magick5Image11writePixelsEN9MagickLib11QuantumTypeEPh
_ZN6Magick5ImageC2EPN9MagickLib6_ImageEPKNS_7OptionsE
_ZN6Magick5ImageC1EPN9MagickLib6_ImageEPKNS_7OptionsE
_ZN6Magick5Image12replaceImageEPN9MagickLib6_ImageE
_ZN6Magick5Image11modifyImageEv
_ZNK6Magick5Image19throwImageExceptionEv
_ZN6Magick5Image10registerIdEv
_ZN6Magick5Image12unregisterIdEv
_ZN6Magick8ImageRefC2EPN9MagickLib6_ImageE
_ZN6Magick8ImageRefC1EPN9MagickLib6_ImageE
_ZN6Magick8ImageRefC2EPN9MagickLib6_ImageEPKNS_7OptionsE
_ZN6Magick8ImageRefC1EPN9MagickLib6_ImageEPKNS_7OptionsE
_ZN6Magick8ImageRefC2Ev
_ZN6Magick8ImageRefC1Ev
_ZN6Magick8ImageRefD2Ev
_ZN6Magick8ImageRefD1Ev
_ZN6Magick8ImageRef5imageEPN9MagickLib6_ImageE
_ZN6Magick8ImageRef7optionsEPNS_7OptionsE
_ZN6Magick8ImageRef2idEl
_ZN6Magick13MagickCleanUpC2Ev
_ZN6Magick13MagickCleanUpC1Ev
_ZN6Magick13MagickCleanUpD2Ev
_ZN6Magick13MagickCleanUpD1Ev
_Z41__static_initialization_and_destruction_0ii
_ZN6Magick7MontageC2Ev
_ZN6Magick7MontageC1Ev
_ZN6Magick13MontageFramedC2Ev
_ZN6Magick13MontageFramedC1Ev
_ZNK6Magick7Montage17updateMontageInfoERN9MagickLib12_MontageInfoE
_ZNK6Magick13MontageFramed17updateMontageInfoERN9MagickLib12_MontageInfoE
_ZN6Magick7MontageD1Ev
_ZN6Magick7MontageD0Ev
_ZN6Magick13MontageFramedD1Ev
_ZN6Magick13MontageFramedD0Ev
_ZN6Magick7OptionsC2Ev
_ZN6Magick7OptionsC1Ev
_ZN6Magick7OptionsC2ERKS0_
_ZN6Magick7OptionsC1ERKS0_
_ZN6Magick7OptionsC2EPKN9MagickLib10_ImageInfoEPKNS1_13_QuantizeInfoEPKNS1_9_DrawInfoE
_ZN6Magick7OptionsC1EPKN9MagickLib10_ImageInfoEPKNS1_13_QuantizeInfoEPKNS1_9_DrawInfoE
_ZN6Magick7OptionsD2Ev
_ZN6Magick7OptionsD1Ev
_ZN6Magick7Options15backgroundColorERKNS_5ColorE
_ZNK6Magick7Options15backgroundColorEv
_ZN6Magick7Options17backgroundTextureERKSs
_ZNK6Magick7Options17backgroundTextureEv
_ZN6Magick7Options11borderColorERKNS_5ColorE
_ZNK6Magick7Options11borderColorEv
_ZN6Magick7Options8boxColorERKNS_5ColorE
_ZNK6Magick7Options8boxColorEv
_ZN6Magick7Options5debugEb
_ZNK6Magick7Options5debugEv
_ZN6Magick7Options7densityERKNS_8GeometryE
_ZNK6Magick7Options7densityEv
_ZN6Magick7Options6endianEN9MagickLib10EndianTypeE
_ZNK6Magick7Options6endianEv
_ZN6Magick7Options8fileNameERKSs
_ZNK6Magick7Options8fileNameEv
_ZN6Magick7Options9fillColorERKNS_5ColorE
_ZNK6Magick7Options9fillColorEv
_ZN6Magick7Options11fillPatternEPKN9MagickLib6_ImageE
_ZNK6Magick7Options11fillPatternEv
_ZN6Magick7Options8fillRuleERKN9MagickLib8FillRuleE
_ZNK6Magick7Options8fillRuleEv
_ZN6Magick7Options4fontERKSs
_ZNK6Magick7Options4fontEv
_ZNK6Magick7Options6formatEv
_ZN6Magick7Options6magickERKSs
_ZNK6Magick7Options6magickEv
_ZN6Magick7Options10matteColorERKNS_5ColorE
_ZNK6Magick7Options10matteColorEv
_ZN6Magick7Options4pageERKNS_8GeometryE
_ZNK6Magick7Options4pageEv
_ZN6Magick7Options15resolutionUnitsEN9MagickLib14ResolutionTypeE
_ZNK6Magick7Options15resolutionUnitsEv
_ZN6Magick7Options4sizeERKNS_8GeometryE
_ZNK6Magick7Options4sizeEv
_ZN6Magick7Options11strokeColorERKNS_5ColorE
_ZNK6Magick7Options11strokeColorEv
_ZN6Magick7Options15strokeDashArrayEPKd
_ZNK6Magick7Options15strokeDashArrayEv
_ZN6Magick7Options13strokePatternEPKN9MagickLib6_ImageE
_ZNK6Magick7Options13strokePatternEv
_ZN6Magick7Options8tileNameERKSs
_ZNK6Magick7Options8tileNameEv
_ZN6Magick7Options15transformOriginEdd
_ZN6Magick7Options14transformResetEv
_ZN6Magick7Options17transformRotationEd
_ZN6Magick7Options14transformScaleEdd
_ZN6Magick7Options14transformSkewXEd
_ZN6Magick7Options14transformSkewYEd
_ZN6Magick7Options4viewERKSs
_ZNK6Magick7Options4viewEv
_ZN6Magick7Options10x11DisplayERKSs
_ZNK6Magick7Options10x11DisplayEv
_ZN6Magick6PixelsC2ERNS_5ImageE
_ZN6Magick6PixelsC1ERNS_5ImageE
_ZN6Magick6PixelsD2Ev
_ZN6Magick6PixelsD1Ev
_ZN6Magick6Pixels3getEiijj
_ZN6Magick6Pixels8getConstEiijj
_ZN6Magick6Pixels4syncEv
_ZN6Magick6Pixels3setEiijj
_ZN6Magick6Pixels7indexesEv
_ZN6Magick13addNoiseImageC2EN9MagickLib9NoiseTypeE
_ZN6Magick13addNoiseImageC1EN9MagickLib9NoiseTypeE
_ZNK6Magick13addNoiseImageclERNS_5ImageE
_ZN6Magick13annotateImageC2ERKSsRKNS_8GeometryE
_ZN6Magick13annotateImageC1ERKSsRKNS_8GeometryE
_ZN6Magick13annotateImageC2ERKSsRKNS_8GeometryEN9MagickLib11GravityTypeE
_ZN6Magick13annotateImageC1ERKSsRKNS_8GeometryEN9MagickLib11GravityTypeE
_ZN6Magick13annotateImageC2ERKSsRKNS_8GeometryEN9MagickLib11GravityTypeEd
_ZN6Magick13annotateImageC1ERKSsRKNS_8GeometryEN9MagickLib11GravityTypeEd
_ZN6Magick13annotateImageC2ERKSsN9MagickLib11GravityTypeE
_ZN6Magick13annotateImageC1ERKSsN9MagickLib11GravityTypeE
_ZNK6Magick13annotateImageclERNS_5ImageE
_ZN6Magick9blurImageC2Edd
_ZN6Magick9blurImageC1Edd
_ZNK6Magick9blurImageclERNS_5ImageE
_ZN6Magick11borderImageC2ERKNS_8GeometryE
_ZN6Magick11borderImageC1ERKNS_8GeometryE
_ZNK6Magick11borderImageclERNS_5ImageE
_ZN6Magick13charcoalImageC2Edd
_ZN6Magick13charcoalImageC1Edd
_ZNK6Magick13charcoalImageclERNS_5ImageE
_ZN6Magick9chopImageC2ERKNS_8GeometryE
_ZN6Magick9chopImageC1ERKNS_8GeometryE
_ZNK6Magick9chopImageclERNS_5ImageE
_ZN6Magick13colorizeImageC2EjjjRKNS_5ColorE
_ZN6Magick13colorizeImageC1EjjjRKNS_5ColorE
_ZN6Magick13colorizeImageC2EjRKNS_5ColorE
_ZN6Magick13colorizeImageC1EjRKNS_5ColorE
_ZNK6Magick13colorizeImageclERNS_5ImageE
_ZN6Magick15colorSpaceImageC2EN9MagickLib14ColorspaceTypeE
_ZN6Magick15colorSpaceImageC1EN9MagickLib14ColorspaceTypeE
_ZNK6Magick15colorSpaceImageclERNS_5ImageE
_ZN6Magick12commentImageC2ERKSs
_ZN6Magick12commentImageC1ERKSs
_ZNK6Magick12commentImageclERNS_5ImageE
_ZN6Magick14compositeImageC2ERKNS_5ImageEiiN9MagickLib17CompositeOperatorE
_ZN6Magick14compositeImageC1ERKNS_5ImageEiiN9MagickLib17CompositeOperatorE
_ZN6Magick14compositeImageC2ERKNS_5ImageERKNS_8GeometryEN9MagickLib17CompositeOperatorE
_ZN6Magick14compositeImageC1ERKNS_5ImageERKNS_8GeometryEN9MagickLib17CompositeOperatorE
_ZNK6Magick14compositeImageclERNS_5ImageE
_ZN6Magick13contrastImageC2Ej
_ZN6Magick13contrastImageC1Ej
_ZNK6Magick13contrastImageclERNS_5ImageE
_ZN6Magick9cropImageC2ERKNS_8GeometryE
_ZN6Magick9cropImageC1ERKNS_8GeometryE
_ZNK6Magick9cropImageclERNS_5ImageE
_ZN6Magick18cycleColormapImageC2Ei
_ZN6Magick18cycleColormapImageC1Ei
_ZNK6Magick18cycleColormapImageclERNS_5ImageE
_ZN6Magick14despeckleImageC2Ev
_ZN6Magick14despeckleImageC1Ev
_ZNK6Magick14despeckleImageclERNS_5ImageE
_ZN6Magick9drawImageC2ERKNS_8DrawableE
_ZN6Magick9drawImageC1ERKNS_8DrawableE
_ZN6Magick9drawImageC2ERKSt4listINS_8DrawableESaIS2_EE
_ZN6Magick9drawImageC1ERKSt4listINS_8DrawableESaIS2_EE
_ZNK6Magick9drawImageclERNS_5ImageE
_ZN6Magick9edgeImageC2Ed
_ZN6Magick9edgeImageC1Ed
_ZNK6Magick9edgeImageclERNS_5ImageE
_ZN6Magick11embossImageC2Ev
_ZN6Magick11embossImageC1Ev
_ZN6Magick11embossImageC2Edd
_ZN6Magick11embossImageC1Edd
_ZNK6Magick11embossImageclERNS_5ImageE
_ZN6Magick12enhanceImageC2Ev
_ZN6Magick12enhanceImageC1Ev
_ZNK6Magick12enhanceImageclERNS_5ImageE
_ZN6Magick13equalizeImageC2Ev
_ZN6Magick13equalizeImageC1Ev
_ZNK6Magick13equalizeImageclERNS_5ImageE
_ZN6Magick14fillColorImageC2ERKNS_5ColorE
_ZN6Magick14fillColorImageC1ERKNS_5ColorE
_ZNK6Magick14fillColorImageclERNS_5ImageE
_ZN6Magick9flipImageC2Ev
_ZN6Magick9flipImageC1Ev
_ZNK6Magick9flipImageclERNS_5ImageE
_ZN6Magick19floodFillColorImageC2EjjRKNS_5ColorE
_ZN6Magick19floodFillColorImageC1EjjRKNS_5ColorE
_ZN6Magick19floodFillColorImageC2ERKNS_8GeometryERKNS_5ColorE
_ZN6Magick19floodFillColorImageC1ERKNS_8GeometryERKNS_5ColorE
_ZN6Magick19floodFillColorImageC2EjjRKNS_5ColorES3_
_ZN6Magick19floodFillColorImageC1EjjRKNS_5ColorES3_
_ZN6Magick19floodFillColorImageC2ERKNS_8GeometryERKNS_5ColorES6_
_ZN6Magick19floodFillColorImageC1ERKNS_8GeometryERKNS_5ColorES6_
_ZNK6Magick19floodFillColorImageclERNS_5ImageE
_ZN6Magick21floodFillTextureImageC2EjjRKNS_5ImageE
_ZN6Magick21floodFillTextureImageC1EjjRKNS_5ImageE
_ZN6Magick21floodFillTextureImageC2ERKNS_8GeometryERKNS_5ImageE
_ZN6Magick21floodFillTextureImageC1ERKNS_8GeometryERKNS_5ImageE
_ZN6Magick21floodFillTextureImageC2EjjRKNS_5ImageERKNS_5ColorE
_ZN6Magick21floodFillTextureImageC1EjjRKNS_5ImageERKNS_5ColorE
_ZN6Magick21floodFillTextureImageC2ERKNS_8GeometryERKNS_5ImageERKNS_5ColorE
_ZN6Magick21floodFillTextureImageC1ERKNS_8GeometryERKNS_5ImageERKNS_5ColorE
_ZNK6Magick21floodFillTextureImageclERNS_5ImageE
_ZN6Magick9flopImageC2Ev
_ZN6Magick9flopImageC1Ev
_ZNK6Magick9flopImageclERNS_5ImageE
_ZN6Magick10frameImageC2ERKNS_8GeometryE
_ZN6Magick10frameImageC1ERKNS_8GeometryE
_ZN6Magick10frameImageC2Ejjii
_ZN6Magick10frameImageC1Ejjii
_ZNK6Magick10frameImageclERNS_5ImageE
_ZN6Magick10gammaImageC2Ed
_ZN6Magick10gammaImageC1Ed
_ZN6Magick10gammaImageC2Eddd
_ZN6Magick10gammaImageC1Eddd
_ZNK6Magick10gammaImageclERNS_5ImageE
_ZN6Magick17gaussianBlurImageC2Edd
_ZN6Magick17gaussianBlurImageC1Edd
_ZNK6Magick17gaussianBlurImageclERNS_5ImageE
_ZN6Magick12implodeImageC2Ed
_ZN6Magick12implodeImageC1Ed
_ZNK6Magick12implodeImageclERNS_5ImageE
_ZN6Magick12isValidImageC2Eb
_ZN6Magick12isValidImageC1Eb
_ZNK6Magick12isValidImageclERNS_5ImageE
_ZN6Magick10labelImageC2ERKSs
_ZN6Magick10labelImageC1ERKSs
_ZNK6Magick10labelImageclERNS_5ImageE
_ZN6Magick12channelImageC2EN9MagickLib11ChannelTypeE
_ZN6Magick12channelImageC1EN9MagickLib11ChannelTypeE
_ZNK6Magick12channelImageclERNS_5ImageE
_ZN6Magick12magnifyImageC2Ev
_ZN6Magick12magnifyImageC1Ev
_ZNK6Magick12magnifyImageclERNS_5ImageE
_ZN6Magick8mapImageC2ERKNS_5ImageEb
_ZN6Magick8mapImageC1ERKNS_5ImageEb
_ZNK6Magick8mapImageclERNS_5ImageE
_ZN6Magick19matteFloodfillImageC2ERKNS_5ColorEjiiN9MagickLib11PaintMethodE
_ZN6Magick19matteFloodfillImageC1ERKNS_5ColorEjiiN9MagickLib11PaintMethodE
_ZNK6Magick19matteFloodfillImageclERNS_5ImageE
_ZN6Magick17medianFilterImageC2Ed
_ZN6Magick17medianFilterImageC1Ed
_ZNK6Magick17medianFilterImageclERNS_5ImageE
_ZN6Magick11minifyImageC2Ev
_ZN6Magick11minifyImageC1Ev
_ZNK6Magick11minifyImageclERNS_5ImageE
_ZN6Magick13modulateImageC2Eddd
_ZN6Magick13modulateImageC1Eddd
_ZNK6Magick13modulateImageclERNS_5ImageE
_ZN6Magick11negateImageC2Eb
_ZN6Magick11negateImageC1Eb
_ZNK6Magick11negateImageclERNS_5ImageE
_ZN6Magick14normalizeImageC2Ev
_ZN6Magick14normalizeImageC1Ev
_ZNK6Magick14normalizeImageclERNS_5ImageE
_ZN6Magick13oilPaintImageC2Ed
_ZN6Magick13oilPaintImageC1Ed
_ZNK6Magick13oilPaintImageclERNS_5ImageE
_ZN6Magick12opacityImageC2Ej
_ZN6Magick12opacityImageC1Ej
_ZNK6Magick12opacityImageclERNS_5ImageE
_ZN6Magick11opaqueImageC2ERKNS_5ColorES3_
_ZN6Magick11opaqueImageC1ERKNS_5ColorES3_
_ZNK6Magick11opaqueImageclERNS_5ImageE
_ZN6Magick13quantizeImageC2Eb
_ZN6Magick13quantizeImageC1Eb
_ZNK6Magick13quantizeImageclERNS_5ImageE
_ZN6Magick10raiseImageC2ERKNS_8GeometryEb
_ZN6Magick10raiseImageC1ERKNS_8GeometryEb
_ZNK6Magick10raiseImageclERNS_5ImageE
_ZN6Magick16reduceNoiseImageC2Ev
_ZN6Magick16reduceNoiseImageC1Ev
_ZN6Magick16reduceNoiseImageC2Ej
_ZN6Magick16reduceNoiseImageC1Ej
_ZNK6Magick16reduceNoiseImageclERNS_5ImageE
_ZN6Magick9rollImageC2ERKNS_8GeometryE
_ZN6Magick9rollImageC1ERKNS_8GeometryE
_ZN6Magick9rollImageC2Eii
_ZN6Magick9rollImageC1Eii
_ZNK6Magick9rollImageclERNS_5ImageE
_ZN6Magick11rotateImageC2Ed
_ZN6Magick11rotateImageC1Ed
_ZNK6Magick11rotateImageclERNS_5ImageE
_ZN6Magick11sampleImageC2ERKNS_8GeometryE
_ZN6Magick11sampleImageC1ERKNS_8GeometryE
_ZNK6Magick11sampleImageclERNS_5ImageE
_ZN6Magick10scaleImageC2ERKNS_8GeometryE
_ZN6Magick10scaleImageC1ERKNS_8GeometryE
_ZNK6Magick10scaleImageclERNS_5ImageE
_ZN6Magick12segmentImageC2Edd
_ZN6Magick12segmentImageC1Edd
_ZNK6Magick12segmentImageclERNS_5ImageE
_ZN6Magick10shadeImageC2Edd
_ZN6Magick10shadeImageC1Edd
_ZNK6Magick10shadeImageclERNS_5ImageE
_ZN6Magick12sharpenImageC2Edd
_ZN6Magick12sharpenImageC1Edd
_ZNK6Magick12sharpenImageclERNS_5ImageE
_ZN6Magick10shaveImageC2ERKNS_8GeometryE
_ZN6Magick10shaveImageC1ERKNS_8GeometryE
_ZNK6Magick10shaveImageclERNS_5ImageE
_ZN6Magick10shearImageC2Edd
_ZN6Magick10shearImageC1Edd
_ZNK6Magick10shearImageclERNS_5ImageE
_ZN6Magick13solarizeImageC2Ed
_ZN6Magick13solarizeImageC1Ed
_ZNK6Magick13solarizeImageclERNS_5ImageE
_ZN6Magick11spreadImageC2Ej
_ZN6Magick11spreadImageC1Ej
_ZNK6Magick11spreadImageclERNS_5ImageE
_ZN6Magick12steganoImageC2ERKNS_5ImageE
_ZN6Magick12steganoImageC1ERKNS_5ImageE
_ZNK6Magick12steganoImageclERNS_5ImageE
_ZN6Magick11stereoImageC2ERKNS_5ImageE
_ZN6Magick11stereoImageC1ERKNS_5ImageE
_ZNK6Magick11stereoImageclERNS_5ImageE
_ZN6Magick16strokeColorImageC2ERKNS_5ColorE
_ZN6Magick16strokeColorImageC1ERKNS_5ColorE
_ZNK6Magick16strokeColorImageclERNS_5ImageE
_ZN6Magick10swirlImageC2Ed
_ZN6Magick10swirlImageC1Ed
_ZNK6Magick10swirlImageclERNS_5ImageE
_ZN6Magick12textureImageC2ERKNS_5ImageE
_ZN6Magick12textureImageC1ERKNS_5ImageE
_ZNK6Magick12textureImageclERNS_5ImageE
_ZN6Magick14thresholdImageC2Ed
_ZN6Magick14thresholdImageC1Ed
_ZNK6Magick14thresholdImageclERNS_5ImageE
_ZN6Magick14transformImageC2ERKNS_8GeometryE
_ZN6Magick14transformImageC1ERKNS_8GeometryE
_ZN6Magick14transformImageC2ERKNS_8GeometryES3_
_ZN6Magick14transformImageC1ERKNS_8GeometryES3_
_ZNK6Magick14transformImageclERNS_5ImageE
_ZN6Magick16transparentImageC2ERKNS_5ColorE
_ZN6Magick16transparentImageC1ERKNS_5ColorE
_ZNK6Magick16transparentImageclERNS_5ImageE
_ZN6Magick9trimImageC2Ev
_ZN6Magick9trimImageC1Ev
_ZNK6Magick9trimImageclERNS_5ImageE
_ZN6Magick9waveImageC2Edd
_ZN6Magick9waveImageC1Edd
_ZNK6Magick9waveImageclERNS_5ImageE
_ZN6Magick9zoomImageC2ERKNS_8GeometryE
_ZN6Magick9zoomImageC1ERKNS_8GeometryE
_ZNK6Magick9zoomImageclERNS_5ImageE
_ZN6Magick14antiAliasImageC2Eb
_ZN6Magick14antiAliasImageC1Eb
_ZNK6Magick14antiAliasImageclERNS_5ImageE
_ZN6Magick11adjoinImageC2Eb
_ZN6Magick11adjoinImageC1Eb
_ZNK6Magick11adjoinImageclERNS_5ImageE
_ZN6Magick19animationDelayImageC2Ej
_ZN6Magick19animationDelayImageC1Ej
_ZNK6Magick19animationDelayImageclERNS_5ImageE
_ZN6Magick24animationIterationsImageC2Ej
_ZN6Magick24animationIterationsImageC1Ej
_ZNK6Magick24animationIterationsImageclERNS_5ImageE
_ZN6Magick20backgroundColorImageC2ERKNS_5ColorE
_ZN6Magick20backgroundColorImageC1ERKNS_5ColorE
_ZNK6Magick20backgroundColorImageclERNS_5ImageE
_ZN6Magick22backgroundTextureImageC2ERKSs
_ZN6Magick22backgroundTextureImageC1ERKSs
_ZNK6Magick22backgroundTextureImageclERNS_5ImageE
_ZN6Magick16borderColorImageC2ERKNS_5ColorE
_ZN6Magick16borderColorImageC1ERKNS_5ColorE
_ZNK6Magick16borderColorImageclERNS_5ImageE
_ZN6Magick13boxColorImageC2ERKNS_5ColorE
_ZN6Magick13boxColorImageC1ERKNS_5ColorE
_ZNK6Magick13boxColorImageclERNS_5ImageE
_ZN6Magick22chromaBluePrimaryImageC2Edd
_ZN6Magick22chromaBluePrimaryImageC1Edd
_ZNK6Magick22chromaBluePrimaryImageclERNS_5ImageE
_ZN6Magick23chromaGreenPrimaryImageC2Edd
_ZN6Magick23chromaGreenPrimaryImageC1Edd
_ZNK6Magick23chromaGreenPrimaryImageclERNS_5ImageE
_ZN6Magick21chromaRedPrimaryImageC2Edd
_ZN6Magick21chromaRedPrimaryImageC1Edd
_ZNK6Magick21chromaRedPrimaryImageclERNS_5ImageE
_ZN6Magick21chromaWhitePointImageC2Edd
_ZN6Magick21chromaWhitePointImageC1Edd
_ZNK6Magick21chromaWhitePointImageclERNS_5ImageE
_ZN6Magick14colorFuzzImageC2Ed
_ZN6Magick14colorFuzzImageC1Ed
_ZNK6Magick14colorFuzzImageclERNS_5ImageE
_ZN6Magick13colorMapImageC2EjRKNS_5ColorE
_ZN6Magick13colorMapImageC1EjRKNS_5ColorE
_ZNK6Magick13colorMapImageclERNS_5ImageE
_ZN6Magick17compressTypeImageC2EN9MagickLib15CompressionTypeE
_ZN6Magick17compressTypeImageC1EN9MagickLib15CompressionTypeE
_ZNK6Magick17compressTypeImageclERNS_5ImageE
_ZN6Magick12densityImageC2ERKNS_8GeometryE
_ZN6Magick12densityImageC1ERKNS_8GeometryE
_ZNK6Magick12densityImageclERNS_5ImageE
_ZN6Magick10depthImageC2Ej
_ZN6Magick10depthImageC1Ej
_ZNK6Magick10depthImageclERNS_5ImageE
_ZN6Magick11endianImageC2EN9MagickLib10EndianTypeE
_ZN6Magick11endianImageC1EN9MagickLib10EndianTypeE
_ZNK6Magick11endianImageclERNS_5ImageE
_ZN6Magick13fileNameImageC2ERKSs
_ZN6Magick13fileNameImageC1ERKSs
_ZNK6Magick13fileNameImageclERNS_5ImageE
_ZN6Magick15filterTypeImageC2EN9MagickLib11FilterTypesE
_ZN6Magick15filterTypeImageC1EN9MagickLib11FilterTypesE
_ZNK6Magick15filterTypeImageclERNS_5ImageE
_ZN6Magick9fontImageC2ERKSs
_ZN6Magick9fontImageC1ERKSs
_ZNK6Magick9fontImageclERNS_5ImageE
_ZN6Magick18fontPointsizeImageC2Ej
_ZN6Magick18fontPointsizeImageC1Ej
_ZNK6Magick18fontPointsizeImageclERNS_5ImageE
_ZN6Magick21gifDisposeMethodImageC2Ej
_ZN6Magick21gifDisposeMethodImageC1Ej
_ZNK6Magick21gifDisposeMethodImageclERNS_5ImageE
_ZN6Magick18interlaceTypeImageC2EN9MagickLib13InterlaceTypeE
_ZN6Magick18interlaceTypeImageC1EN9MagickLib13InterlaceTypeE
_ZNK6Magick18interlaceTypeImageclERNS_5ImageE
_ZN6Magick14lineWidthImageC2Ed
_ZN6Magick14lineWidthImageC1Ed
_ZNK6Magick14lineWidthImageclERNS_5ImageE
_ZN6Magick11magickImageC2ERKSs
_ZN6Magick11magickImageC1ERKSs
_ZNK6Magick11magickImageclERNS_5ImageE
_ZN6Magick10matteImageC2Eb
_ZN6Magick10matteImageC1Eb
_ZNK6Magick10matteImageclERNS_5ImageE
_ZN6Magick15matteColorImageC2ERKNS_5ColorE
_ZN6Magick15matteColorImageC1ERKNS_5ColorE
_ZNK6Magick15matteColorImageclERNS_5ImageE
_ZN6Magick15monochromeImageC2Eb
_ZN6Magick15monochromeImageC1Eb
_ZNK6Magick15monochromeImageclERNS_5ImageE
_ZN6Magick13penColorImageC2ERKNS_5ColorE
_ZN6Magick13penColorImageC1ERKNS_5ColorE
_ZNK6Magick13penColorImageclERNS_5ImageE
_ZN6Magick15penTextureImageC2ERKNS_5ImageE
_ZN6Magick15penTextureImageC1ERKNS_5ImageE
_ZNK6Magick15penTextureImageclERNS_5ImageE
_ZN6Magick15pixelColorImageC2EjjRKNS_5ColorE
_ZN6Magick15pixelColorImageC1EjjRKNS_5ColorE
_ZNK6Magick15pixelColorImageclERNS_5ImageE
_ZN6Magick9pageImageC2ERKNS_8GeometryE
_ZN6Magick9pageImageC1ERKNS_8GeometryE
_ZNK6Magick9pageImageclERNS_5ImageE
_ZN6Magick12qualityImageC2Ej
_ZN6Magick12qualityImageC1Ej
_ZNK6Magick12qualityImageclERNS_5ImageE
_ZN6Magick19quantizeColorsImageC2Ej
_ZN6Magick19quantizeColorsImageC1Ej
_ZNK6Magick19quantizeColorsImageclERNS_5ImageE
_ZN6Magick23quantizeColorSpaceImageC2EN9MagickLib14ColorspaceTypeE
_ZN6Magick23quantizeColorSpaceImageC1EN9MagickLib14ColorspaceTypeE
_ZNK6Magick23quantizeColorSpaceImageclERNS_5ImageE
_ZN6Magick19quantizeDitherImageC2Eb
_ZN6Magick19quantizeDitherImageC1Eb
_ZNK6Magick19quantizeDitherImageclERNS_5ImageE
_ZN6Magick22quantizeTreeDepthImageC2Ej
_ZN6Magick22quantizeTreeDepthImageC1Ej
_ZNK6Magick22quantizeTreeDepthImageclERNS_5ImageE
_ZN6Magick20renderingIntentImageC2EN9MagickLib15RenderingIntentE
_ZN6Magick20renderingIntentImageC1EN9MagickLib15RenderingIntentE
_ZNK6Magick20renderingIntentImageclERNS_5ImageE
_ZN6Magick20resolutionUnitsImageC2EN9MagickLib14ResolutionTypeE
_ZN6Magick20resolutionUnitsImageC1EN9MagickLib14ResolutionTypeE
_ZNK6Magick20resolutionUnitsImageclERNS_5ImageE
_ZN6Magick10sceneImageC2Ej
_ZN6Magick10sceneImageC1Ej
_ZNK6Magick10sceneImageclERNS_5ImageE
_ZN6Magick9sizeImageC2ERKNS_8GeometryE
_ZN6Magick9sizeImageC1ERKNS_8GeometryE
_ZNK6Magick9sizeImageclERNS_5ImageE
_ZN6Magick13subImageImageC2Ej
_ZN6Magick13subImageImageC1Ej
_ZNK6Magick13subImageImageclERNS_5ImageE
_ZN6Magick13subRangeImageC2Ej
_ZN6Magick13subRangeImageC1Ej
_ZNK6Magick13subRangeImageclERNS_5ImageE
_ZN6Magick13tileNameImageC2ERKSs
_ZN6Magick13tileNameImageC1ERKSs
_ZNK6Magick13tileNameImageclERNS_5ImageE
_ZN6Magick9typeImageC2EN9MagickLib9ImageTypeE
_ZN6Magick9typeImageC1EN9MagickLib9ImageTypeE
_ZNK6Magick9typeImageclERNS_5ImageE
_ZN6Magick12verboseImageC2Eb
_ZN6Magick12verboseImageC1Eb
_ZNK6Magick12verboseImageclERNS_5ImageE
_ZN6Magick9viewImageC2ERKSs
_ZN6Magick9viewImageC1ERKSs
_ZNK6Magick9viewImageclERNS_5ImageE
_ZN6Magick15x11DisplayImageC2ERKSs
_ZN6Magick15x11DisplayImageC1ERKSs
_ZNK6Magick15x11DisplayImageclERNS_5ImageE
_ZNSt10_List_baseIN6Magick8DrawableESaIS1_EE5clearEv
_ZNSt4listIN6Magick8DrawableESaIS1_EE18_M_insert_dispatchISt14_List_iteratorIS1_RKS1_PS6_EEEvS5_IS1_RS1_PS1_ET_SD_12__false_type
_ZNSt10_List_baseIN6Magick8DrawableESaIS1_EED2Ev
_ZNSt14__simple_allocISt10_List_nodeIN6Magick8DrawableEESt24__default_alloc_templateILb1ELi0EEE10deallocateEPS3_j
_ZNSt4listIN6Magick8DrawableESaIS1_EE14_M_create_nodeERKS1_
_ZN6Magick9MutexLockC2Ev
_ZN6Magick9MutexLockC1Ev
_ZN6Magick9MutexLockD2Ev
_ZN6Magick9MutexLockD1Ev
_ZN6Magick9MutexLock4lockEv
_ZN6Magick9MutexLock6unlockEv
_ZN6Magick10TypeMetricC2Ev
_ZN6Magick10TypeMetricC1Ev
_ZN6Magick10TypeMetricD2Ev
_ZN6Magick10TypeMetricD1Ev
_ZNK6Magick10TypeMetric6ascentEv
_ZNK6Magick10TypeMetric7descentEv
_ZNK6Magick10TypeMetric9textWidthEv
_ZNK6Magick10TypeMetric10textHeightEv
_ZNK6Magick10TypeMetric20maxHorizontalAdvanceEv
_ZTSN6Magick4BlobE
_ZTSN6Magick8ColorYUVE
_ZTSN6Magick8ColorRGBE
_ZTSN6Magick9ColorMonoE
_ZTSN6Magick9ColorGrayE
_ZTSN6Magick8ColorHSLE
_ZTSN6Magick5ColorE
_ZTSN6Magick13PathMovetoRelE
_ZTSN6Magick13PathMovetoAbsE
_ZTSN6Magick21PathLinetoVerticalRelE
_ZTSN6Magick21PathLinetoVerticalAbsE
_ZTSN6Magick23PathLinetoHorizontalRelE
_ZTSN6Magick23PathLinetoHorizontalAbsE
_ZTSN6Magick13PathLinetoRelE
_ZTSN6Magick13PathLinetoAbsE
_ZTSN6Magick29PathSmoothQuadraticCurvetoRelE
_ZTSN6Magick29PathSmoothQuadraticCurvetoAbsE
_ZTSN6Magick23PathQuadraticCurvetoRelE
_ZTSN6Magick23PathQuadraticCurvetoAbsE
_ZTSN6Magick20PathSmoothCurvetoRelE
_ZTSN6Magick20PathSmoothCurvetoAbsE
_ZTSN6Magick14PathCurvetoRelE
_ZTSN6Magick14PathCurvetoAbsE
_ZTSN6Magick13PathClosePathE
_ZTSN6Magick10PathArcRelE
_ZTSN6Magick10PathArcAbsE
_ZTSN6Magick15DrawableViewboxE
_ZTSN6Magick19DrawableTranslationE
_ZTSN6Magick22DrawableTextUnderColorE
_ZTSN6Magick22DrawableTextDecorationE
_ZTSN6Magick21DrawableTextAntialiasE
_ZTSN6Magick12DrawableTextE
_ZTSN6Magick19DrawableStrokeWidthE
_ZTSN6Magick21DrawableStrokeOpacityE
_ZTSN6Magick19DrawableStrokeColorE
_ZTSN6Magick23DrawableStrokeAntialiasE
_ZTSN6Magick18DrawableMiterLimitE
_ZTSN6Magick22DrawableStrokeLineJoinE
_ZTSN6Magick21DrawableStrokeLineCapE
_ZTSN6Magick18DrawableDashOffsetE
_ZTSN6Magick17DrawableDashArrayE
_ZTSN6Magick13DrawableSkewYE
_ZTSN6Magick13DrawableSkewXE
_ZTSN6Magick15DrawableScalingE
_ZTSN6Magick22DrawableRoundRectangleE
_ZTSN6Magick16DrawableRotationE
_ZTSN6Magick17DrawableRectangleE
_ZTSN6Magick19DrawablePushPatternE
_ZTSN6Magick18DrawablePopPatternE
_ZTSN6Magick26DrawablePushGraphicContextE
_ZTSN6Magick25DrawablePopGraphicContextE
_ZTSN6Magick16DrawablePolylineE
_ZTSN6Magick15DrawablePolygonE
_ZTSN6Magick17DrawablePointSizeE
_ZTSN6Magick13DrawablePointE
_ZTSN6Magick12DrawablePathE
_ZTSN6Magick13DrawableMatteE
_ZTSN6Magick12DrawableLineE
_ZTSN6Magick15DrawableGravityE
_ZTSN6Magick12DrawableFontE
_ZTSN6Magick19DrawableFillOpacityE
_ZTSN6Magick16DrawableFillRuleE
_ZTSN6Magick17DrawableFillColorE
_ZTSN6Magick15DrawableEllipseE
_ZTSN6Magick22DrawableCompositeImageE
_ZTSN6Magick13DrawableColorE
_ZTSN6Magick14DrawableCircleE
_ZTSN6Magick14DrawableBezierE
_ZTSN6Magick11DrawableArcE
_ZTSN6Magick14DrawableAffineE
_ZTSN6Magick5VPathE
_ZTSN6Magick9VPathBaseE
_ZTSN6Magick12DrawableBaseE
_ZTSN6Magick10CoordinateE
_ZTSSt14unary_functionIPN9MagickLib12_DrawContextEvE
_ZTSN6Magick10ErrorCacheE
_ZTSN6Magick9ErrorBlobE
_ZTSN6Magick13ErrorFileOpenE
_ZTSN6Magick17ErrorCorruptImageE
_ZTSN6Magick20ErrorMissingDelegateE
_ZTSN6Magick13ErrorDelegateE
_ZTSN6Magick11ErrorOptionE
_ZTSN6Magick12ErrorXServerE
_ZTSN6Magick18ErrorResourceLimitE
_ZTSN6Magick14ErrorUndefinedE
_ZTSN6Magick5ErrorE
_ZTSN6Magick12WarningCacheE
_ZTSN6Magick11WarningBlobE
_ZTSN6Magick15WarningFileOpenE
_ZTSN6Magick19WarningCorruptImageE
_ZTSN6Magick22WarningMissingDelegateE
_ZTSN6Magick15WarningDelegateE
_ZTSN6Magick13WarningOptionE
_ZTSN6Magick14WarningXServerE
_ZTSN6Magick20WarningResourceLimitE
_ZTSN6Magick16WarningUndefinedE
_ZTSN6Magick7WarningE
_ZTSN6Magick9ExceptionE
_ZTSN6Magick5ImageE
_ZTSN6Magick13MontageFramedE
_ZTSN6Magick7MontageE
_ZTVN6Magick4BlobE
_ZTIN6Magick4BlobE
_ZTVN6Magick8ColorYUVE
_ZTVN6Magick8ColorRGBE
_ZTVN6Magick9ColorMonoE
_ZTVN6Magick9ColorGrayE
_ZTVN6Magick8ColorHSLE
_ZTVN6Magick5ColorE
_ZTIN6Magick5ColorE
_ZTIN6Magick8ColorHSLE
_ZTIN6Magick9ColorGrayE
_ZTIN6Magick9ColorMonoE
_ZTIN6Magick8ColorRGBE
_ZTIN6Magick8ColorYUVE
_ZZ18__gthread_active_pvE20__gthread_active_ptr
_ZTVN6Magick13PathMovetoRelE
_ZTVN6Magick13PathMovetoAbsE
_ZTVN6Magick21PathLinetoVerticalRelE
_ZTVN6Magick21PathLinetoVerticalAbsE
_ZTVN6Magick23PathLinetoHorizontalRelE
_ZTVN6Magick23PathLinetoHorizontalAbsE
_ZTVN6Magick13PathLinetoRelE
_ZTVN6Magick13PathLinetoAbsE
_ZTVN6Magick29PathSmoothQuadraticCurvetoRelE
_ZTVN6Magick29PathSmoothQuadraticCurvetoAbsE
_ZTVN6Magick23PathQuadraticCurvetoRelE
_ZTVN6Magick23PathQuadraticCurvetoAbsE
_ZTVN6Magick20PathSmoothCurvetoRelE
_ZTVN6Magick20PathSmoothCurvetoAbsE
_ZTVN6Magick14PathCurvetoRelE
_ZTVN6Magick14PathCurvetoAbsE
_ZTVN6Magick13PathClosePathE
_ZTVN6Magick10PathArcRelE
_ZTVN6Magick10PathArcAbsE
_ZTVN6Magick15DrawableViewboxE
_ZTVN6Magick19DrawableTranslationE
_ZTVN6Magick22DrawableTextUnderColorE
_ZTVN6Magick22DrawableTextDecorationE
_ZTVN6Magick21DrawableTextAntialiasE
_ZTVN6Magick12DrawableTextE
_ZTVN6Magick19DrawableStrokeWidthE
_ZTVN6Magick21DrawableStrokeOpacityE
_ZTVN6Magick19DrawableStrokeColorE
_ZTVN6Magick23DrawableStrokeAntialiasE
_ZTVN6Magick18DrawableMiterLimitE
_ZTVN6Magick22DrawableStrokeLineJoinE
_ZTVN6Magick21DrawableStrokeLineCapE
_ZTVN6Magick18DrawableDashOffsetE
_ZTVN6Magick17DrawableDashArrayE
_ZTVN6Magick13DrawableSkewYE
_ZTVN6Magick13DrawableSkewXE
_ZTVN6Magick15DrawableScalingE
_ZTVN6Magick22DrawableRoundRectangleE
_ZTVN6Magick16DrawableRotationE
_ZTVN6Magick17DrawableRectangleE
_ZTVN6Magick19DrawablePushPatternE
_ZTVN6Magick18DrawablePopPatternE
_ZTVN6Magick26DrawablePushGraphicContextE
_ZTVN6Magick25DrawablePopGraphicContextE
_ZTVN6Magick16DrawablePolylineE
_ZTVN6Magick15DrawablePolygonE
_ZTVN6Magick17DrawablePointSizeE
_ZTVN6Magick13DrawablePointE
_ZTVN6Magick12DrawablePathE
_ZTVN6Magick13DrawableMatteE
_ZTVN6Magick12DrawableLineE
_ZTVN6Magick15DrawableGravityE
_ZTVN6Magick12DrawableFontE
_ZTVN6Magick19DrawableFillOpacityE
_ZTVN6Magick16DrawableFillRuleE
_ZTVN6Magick17DrawableFillColorE
_ZTVN6Magick15DrawableEllipseE
_ZTVN6Magick22DrawableCompositeImageE
_ZTVN6Magick13DrawableColorE
_ZTVN6Magick14DrawableCircleE
_ZTVN6Magick14DrawableBezierE
_ZTVN6Magick11DrawableArcE
_ZTVN6Magick14DrawableAffineE
_ZTVN6Magick5VPathE
_ZTVN6Magick9VPathBaseE
_ZTVN6Magick12DrawableBaseE
_ZTVN6Magick10CoordinateE
_ZTIN6Magick10CoordinateE
_ZTIN6Magick12DrawableBaseE
_ZTIN6Magick9VPathBaseE
_ZTIN6Magick5VPathE
_ZTIN6Magick14DrawableAffineE
_ZTIN6Magick11DrawableArcE
_ZTIN6Magick14DrawableBezierE
_ZTIN6Magick14DrawableCircleE
_ZTIN6Magick13DrawableColorE
_ZTIN6Magick22DrawableCompositeImageE
_ZTIN6Magick15DrawableEllipseE
_ZTIN6Magick17DrawableFillColorE
_ZTIN6Magick16DrawableFillRuleE
_ZTIN6Magick19DrawableFillOpacityE
_ZTIN6Magick12DrawableFontE
_ZTIN6Magick15DrawableGravityE
_ZTIN6Magick12DrawableLineE
_ZTIN6Magick13DrawableMatteE
_ZTIN6Magick12DrawablePathE
_ZTIN6Magick13DrawablePointE
_ZTIN6Magick17DrawablePointSizeE
_ZTIN6Magick15DrawablePolygonE
_ZTIN6Magick16DrawablePolylineE
_ZTIN6Magick25DrawablePopGraphicContextE
_ZTIN6Magick26DrawablePushGraphicContextE
_ZTIN6Magick18DrawablePopPatternE
_ZTIN6Magick19DrawablePushPatternE
_ZTIN6Magick17DrawableRectangleE
_ZTIN6Magick16DrawableRotationE
_ZTIN6Magick22DrawableRoundRectangleE
_ZTIN6Magick15DrawableScalingE
_ZTIN6Magick13DrawableSkewXE
_ZTIN6Magick13DrawableSkewYE
_ZTIN6Magick17DrawableDashArrayE
_ZTIN6Magick18DrawableDashOffsetE
_ZTIN6Magick21DrawableStrokeLineCapE
_ZTIN6Magick22DrawableStrokeLineJoinE
_ZTIN6Magick18DrawableMiterLimitE
_ZTIN6Magick23DrawableStrokeAntialiasE
_ZTIN6Magick19DrawableStrokeColorE
_ZTIN6Magick21DrawableStrokeOpacityE
_ZTIN6Magick19DrawableStrokeWidthE
_ZTIN6Magick12DrawableTextE
_ZTIN6Magick21DrawableTextAntialiasE
_ZTIN6Magick22DrawableTextDecorationE
_ZTIN6Magick22DrawableTextUnderColorE
_ZTIN6Magick19DrawableTranslationE
_ZTIN6Magick15DrawableViewboxE
_ZTIN6Magick10PathArcAbsE
_ZTIN6Magick10PathArcRelE
_ZTIN6Magick13PathClosePathE
_ZTIN6Magick14PathCurvetoAbsE
_ZTIN6Magick14PathCurvetoRelE
_ZTIN6Magick20PathSmoothCurvetoAbsE
_ZTIN6Magick20PathSmoothCurvetoRelE
_ZTIN6Magick23PathQuadraticCurvetoAbsE
_ZTIN6Magick23PathQuadraticCurvetoRelE
_ZTIN6Magick29PathSmoothQuadraticCurvetoAbsE
_ZTIN6Magick29PathSmoothQuadraticCurvetoRelE
_ZTIN6Magick13PathLinetoAbsE
_ZTIN6Magick13PathLinetoRelE
_ZTIN6Magick23PathLinetoHorizontalAbsE
_ZTIN6Magick23PathLinetoHorizontalRelE
_ZTIN6Magick21PathLinetoVerticalAbsE
_ZTIN6Magick21PathLinetoVerticalRelE
_ZTIN6Magick13PathMovetoAbsE
_ZTIN6Magick13PathMovetoRelE
_ZTISt14unary_functionIPN9MagickLib12_DrawContextEvE
_ZTVN6Magick10ErrorCacheE
_ZTVN6Magick9ErrorBlobE
_ZTVN6Magick13ErrorFileOpenE
_ZTVN6Magick17ErrorCorruptImageE
_ZTVN6Magick20ErrorMissingDelegateE
_ZTVN6Magick13ErrorDelegateE
_ZTVN6Magick11ErrorOptionE
_ZTVN6Magick12ErrorXServerE
_ZTVN6Magick18ErrorResourceLimitE
_ZTVN6Magick14ErrorUndefinedE
_ZTVN6Magick5ErrorE
_ZTVN6Magick12WarningCacheE
_ZTVN6Magick11WarningBlobE
_ZTVN6Magick15WarningFileOpenE
_ZTVN6Magick19WarningCorruptImageE
_ZTVN6Magick22WarningMissingDelegateE
_ZTVN6Magick15WarningDelegateE
_ZTVN6Magick13WarningOptionE
_ZTVN6Magick14WarningXServerE
_ZTVN6Magick20WarningResourceLimitE
_ZTVN6Magick16WarningUndefinedE
_ZTVN6Magick7WarningE
_ZTVN6Magick9ExceptionE
_ZTIN6Magick9ExceptionE
_ZTIN6Magick7WarningE
_ZTIN6Magick16WarningUndefinedE
_ZTIN6Magick20WarningResourceLimitE
_ZTIN6Magick14WarningXServerE
_ZTIN6Magick13WarningOptionE
_ZTIN6Magick15WarningDelegateE
_ZTIN6Magick22WarningMissingDelegateE
_ZTIN6Magick19WarningCorruptImageE
_ZTIN6Magick15WarningFileOpenE
_ZTIN6Magick11WarningBlobE
_ZTIN6Magick12WarningCacheE
_ZTIN6Magick5ErrorE
_ZTIN6Magick14ErrorUndefinedE
_ZTIN6Magick18ErrorResourceLimitE
_ZTIN6Magick12ErrorXServerE
_ZTIN6Magick11ErrorOptionE
_ZTIN6Magick13ErrorDelegateE
_ZTIN6Magick20ErrorMissingDelegateE
_ZTIN6Magick17ErrorCorruptImageE
_ZTIN6Magick13ErrorFileOpenE
_ZTIN6Magick9ErrorBlobE
_ZTIN6Magick10ErrorCacheE
_ZTVN6Magick5ImageE
_ZTIN6Magick5ImageE
_ZTVN6Magick13MontageFramedE
_ZTVN6Magick7MontageE
_ZTIN6Magick7MontageE
_ZTIN6Magick13MontageFramedE
_ZN6Magick21borderGeometryDefaultE
_ZN6Magick20frameGeometryDefaultE
_ZN6Magick20raiseGeometryDefaultE
_ZN6Magick18magickCleanUpGuardE
_ZNSt24__default_alloc_templateILb1ELi0EE8allocateEj
_Znaj
_ZNSt24__default_alloc_templateILb1ELi0EE12_S_free_listE
_ZNSt9exceptionD2Ev
_ZNSs4_Rep11_S_terminalE
_ZNKSs4copyEPcjj
_ZNSs4_Rep10_M_disposeERKSaIcE
_ZNSsC1ERKSs
_ZNSs6assignERKSs
_ZTVN10__cxxabiv120__si_class_type_infoE
_ZNSsD1Ev
_ZdlPv
_ZSt9terminatev
_ZNSs7replaceEjjPKcj
_ZTISt9exception
_ZNSs7reserveEj
_ZNSs20_S_empty_rep_storageE
_ZNSs6appendEjc
_ZTVN10__cxxabiv117__class_type_infoE
_ZdaPv
_ZNSs6appendERKSs
_ZNSsC1EPKcRKSaIcE
_ZNSt24__default_alloc_templateILb1ELi0EE22_S_node_allocator_lockE
_ZNSt24__default_alloc_templateILb1ELi0EE10deallocateEPvj
_ZNSsC1EPKcjRKSaIcE
_Znwj
_ZNSs4_Rep10_M_destroyERKSaIcE
_ZNSs6appendEPKcj
