<?xml version="1.0" encoding="UTF-8"?>
<LIBRARY NAME="mfc110.dll" PATH="mfc110.dll" DATE="?" VERSION="?">
    <EXPORT ORDINAL="13960" NAME="?wndTopMost@CWnd@@2V1@B" PURGE="-1" COMMENT="" />
    <EXPORT ORDINAL="13959" NAME="?wndTop@CWnd@@2V1@B" PURGE="-1" COMMENT="" />
    <EXPORT ORDINAL="13958" NAME="?wndNoTopMost@CWnd@@2V1@B" PURGE="-1" COMMENT="" />
    <EXPORT ORDINAL="13957" NAME="?wndBottom@CWnd@@2V1@B" PURGE="-1" COMMENT="" />
    <EXPORT ORDINAL="13610" NAME="?sizeDefault@CScrollView@@2UtagSIZE@@B" PURGE="-1" COMMENT="" />
    <EXPORT ORDINAL="11958" NAME="?rectDefault@CFrameWnd@@2VCRect@@B" PURGE="-1" COMMENT="" />
    <EXPORT ORDINAL="11728" NAME="?put_accValue@XAccessible@CWnd@@UEAAJUtagVARIANT@@PEA_W@Z" PURGE="-1" COMMENT="" />
    <EXPORT ORDINAL="11727" NAME="?put_accValue@CWnd@@UEAAJUtagVARIANT@@PEA_W@Z" PURGE="-1" COMMENT="" />
    <EXPORT ORDINAL="11726" NAME="?put_accName@XAccessible@CWnd@@UEAAJUtagVARIANT@@PEA_W@Z" PURGE="-1" COMMENT="" />
    <EXPORT ORDINAL="11725" NAME="?put_accName@CWnd@@UEAAJUtagVARIANT@@PEA_W@Z" PURGE="-1" COMMENT="" />
    <EXPORT ORDINAL="8380" NAME="?nScrollInterval@COleDropTarget@@1IA" PURGE="-1" COMMENT="" />
    <EXPORT ORDINAL="8379" NAME="?nScrollInset@COleDropTarget@@1HA" PURGE="-1" COMMENT="" />
    <EXPORT ORDINAL="8378" NAME="?nScrollDelay@COleDropTarget@@1IA" PURGE="-1" COMMENT="" />
    <EXPORT ORDINAL="8352" NAME="?nMaxSize@CEditView@@2IB" PURGE="-1" COMMENT="" />
    <EXPORT ORDINAL="8336" NAME="?nDragMinDist@COleDropSource@@1IA" PURGE="-1" COMMENT="" />
    <EXPORT ORDINAL="8335" NAME="?nDragDelay@COleDropSource@@1IA" PURGE="-1" COMMENT="" />
    <EXPORT ORDINAL="8223" NAME="?m_uiShowBarDelay@CMFCDropDownToolbarButton@@2IA" PURGE="-1" COMMENT="" />
    <EXPORT ORDINAL="8222" NAME="?m_uiPopupTimerDelay@CMFCPopupMenuBar@@1IA" PURGE="-1" COMMENT="" />
    <EXPORT ORDINAL="8219" NAME="?m_strStylePrefix@CMFCVisualManagerOffice2007@@1V?$CStringT@DV?$StrTraitMFC_DLL@DV?$ChTraitsCRT@D@ATL@@@@@ATL@@A" PURGE="-1" COMMENT="" />
    <EXPORT ORDINAL="8218" NAME="?m_strClipboardFormatName@CMFCToolBarButton@@2V?$CStringT@DV?$StrTraitMFC_DLL@DV?$ChTraitsCRT@D@ATL@@@@@ATL@@A" PURGE="-1" COMMENT="" />
    <EXPORT ORDINAL="8217" NAME="?m_strClassName@CMFCRibbonKeyTip@@1V?$CStringT@DV?$StrTraitMFC_DLL@DV?$ChTraitsCRT@D@ATL@@@@@ATL@@A" PURGE="-1" COMMENT="" />
    <EXPORT ORDINAL="8216" NAME="?m_strClassName@CMFCPropertyGridToolTipCtrl@@1V?$CStringT@DV?$StrTraitMFC_DLL@DV?$ChTraitsCRT@D@ATL@@@@@ATL@@A" PURGE="-1" COMMENT="" />
    <EXPORT ORDINAL="8215" NAME="?m_strClassName@CMFCDropDownFrame@@1V?$CStringT@DV?$StrTraitMFC_DLL@DV?$ChTraitsCRT@D@ATL@@@@@ATL@@A" PURGE="-1" COMMENT="" />
    <EXPORT ORDINAL="8214" NAME="?m_sizeMenuImage@CMFCToolBar@@1VCSize@@A" PURGE="-1" COMMENT="" />
    <EXPORT ORDINAL="8213" NAME="?m_sizeMenuButton@CMFCToolBar@@1VCSize@@A" PURGE="-1" COMMENT="" />
    <EXPORT ORDINAL="8212" NAME="?m_sizeImage@CMFCToolBar@@1VCSize@@A" PURGE="-1" COMMENT="" />
    <EXPORT ORDINAL="8211" NAME="?m_sizeDragSensitivity@CDockablePane@@1VCSize@@A" PURGE="-1" COMMENT="" />
    <EXPORT ORDINAL="8210" NAME="?m_sizeCurImage@CMFCToolBar@@1VCSize@@A" PURGE="-1" COMMENT="" />
    <EXPORT ORDINAL="8209" NAME="?m_sizeCurButton@CMFCToolBar@@1VCSize@@A" PURGE="-1" COMMENT="" />
    <EXPORT ORDINAL="8208" NAME="?m_sizeButton@CMFCToolBar@@1VCSize@@A" PURGE="-1" COMMENT="" />
    <EXPORT ORDINAL="8201" NAME="?m_ptMenuLastPos@CMFCToolBarsMenuPropertyPage@@1VCPoint@@A" PURGE="-1" COMMENT="" />
    <EXPORT ORDINAL="8205" NAME="?m_pWndToolBar@CMFCCustomizeMenuButton@@1PEAVCMFCToolBar@@EA" PURGE="-1" COMMENT="" />
    <EXPORT ORDINAL="8203" NAME="?m_pVisManager@CMFCVisualManager@@1PEAV1@EA" PURGE="-1" COMMENT="" />
    <EXPORT ORDINAL="8202" NAME="?m_pUserImages@CMFCToolBar@@1PEAVCMFCToolBarImages@@EA" PURGE="-1" COMMENT="" />
    <EXPORT ORDINAL="8200" NAME="?m_pTabWndRTC@CTabbedPane@@2PEAUCRuntimeClass@@EA" PURGE="-1" COMMENT="" />
    <EXPORT ORDINAL="8199" NAME="?m_pSliderRTC@CPaneDivider@@2PEAUCRuntimeClass@@EA" PURGE="-1" COMMENT="" />
    <EXPORT ORDINAL="8198" NAME="?m_pSelToolbar@CMFCToolBar@@1PEAV1@EA" PURGE="-1" COMMENT="" />
    <EXPORT ORDINAL="8197" NAME="?m_pRTIDefault@CSettingsStoreSP@@1PEAUCRuntimeClass@@EA" PURGE="-1" COMMENT="" />
    <EXPORT ORDINAL="8196" NAME="?m_pRTIDefault@CMFCVisualManager@@1PEAUCRuntimeClass@@EA" PURGE="-1" COMMENT="" />
    <EXPORT ORDINAL="8195" NAME="?m_pParentWndForSerialize@CPaneFrameWnd@@1PEAVCFrameWnd@@EA" PURGE="-1" COMMENT="" />
    <EXPORT ORDINAL="8194" NAME="?m_pMenuDlgImpl@CDialogImpl@@1PEAV1@EA" PURGE="-1" COMMENT="" />
    <EXPORT ORDINAL="8193" NAME="?m_pLastHookedToolbar@CMFCToolBar@@1PEAV1@EA" PURGE="-1" COMMENT="" />
    <EXPORT ORDINAL="8190" NAME="?m_pCurrent@CMFCRibbonMiniToolBar@@1PEAV1@EA" PURGE="-1" COMMENT="" />
    <EXPORT ORDINAL="8189" NAME="?m_pContextMenu2@CMFCShellTreeCtrl@@1PEAUIContextMenu2@@EA" PURGE="-1" COMMENT="" />
    <EXPORT ORDINAL="8188" NAME="?m_pContextMenu2@CMFCShellListCtrl@@1PEAUIContextMenu2@@EA" PURGE="-1" COMMENT="" />
    <EXPORT ORDINAL="8187" NAME="?m_pContainerManagerRTC@CPaneDivider@@2PEAUCRuntimeClass@@EA" PURGE="-1" COMMENT="" />
    <EXPORT ORDINAL="8186" NAME="?m_pAutoHideToolbarRTC@CDockingManager@@2PEAUCRuntimeClass@@EA" PURGE="-1" COMMENT="" />
    <EXPORT ORDINAL="8185" NAME="?m_pAutoHideButtonRTS@CMFCAutoHideBar@@2PEAUCRuntimeClass@@EA" PURGE="-1" COMMENT="" />
    <EXPORT ORDINAL="8184" NAME="?m_pActivePopupMenu@CMFCPopupMenu@@1PEAV1@EA" PURGE="-1" COMMENT="" />
    <EXPORT ORDINAL="8183" NAME="?m_nTopOffsetY@CSmartDockingStandaloneGuide@@1HB" PURGE="-1" COMMENT="" />
    <EXPORT ORDINAL="8182" NAME="?m_nTimeOutBeforeToolBarDock@CDockingManager@@2IA" PURGE="-1" COMMENT="" />
    <EXPORT ORDINAL="8181" NAME="?m_nTimeOutBeforeDockingBarDock@CDockingManager@@2IA" PURGE="-1" COMMENT="" />
    <EXPORT ORDINAL="8180" NAME="?m_nTimeOutBeforeAutoHide@CDockablePane@@2HA" PURGE="-1" COMMENT="" />
    <EXPORT ORDINAL="8179" NAME="?m_nTextSizeNoIcon@CMFCAutoHideButton@@2HA" PURGE="-1" COMMENT="" />
    <EXPORT ORDINAL="8178" NAME="?m_nTextMargin@CMFCAutoHideButton@@2HA" PURGE="-1" COMMENT="" />
    <EXPORT ORDINAL="8177" NAME="?m_nStartCount@CMFCCmdUsageCount@@1IA" PURGE="-1" COMMENT="" />
    <EXPORT ORDINAL="8176" NAME="?m_nSlideSteps@CDockablePane@@2HA" PURGE="-1" COMMENT="" />
    <EXPORT ORDINAL="8175" NAME="?m_nSlideDefaultTimeOut@CDockablePane@@1HA" PURGE="-1" COMMENT="" />
    <EXPORT ORDINAL="8174" NAME="?m_nShowAHWndDelay@CMFCAutoHideBar@@2HA" PURGE="-1" COMMENT="" />
    <EXPORT ORDINAL="8173" NAME="?m_nScrollTimerDuration@CMFCTasksPane@@1HB" PURGE="-1" COMMENT="" />
    <EXPORT ORDINAL="8172" NAME="?m_nRollTimeOut@CPaneFrameWnd@@2IA" PURGE="-1" COMMENT="" />
    <EXPORT ORDINAL="8171" NAME="?m_nRightOffsetX@CSmartDockingStandaloneGuide@@1HB" PURGE="-1" COMMENT="" />
    <EXPORT ORDINAL="8170" NAME="?m_nNextPanelID@CMFCRibbonPanel@@1IA" PURGE="-1" COMMENT="" />
    <EXPORT ORDINAL="8169" NAME="?m_nMinWidth@CMFCPopupMenu@@1HA" PURGE="-1" COMMENT="" />
    <EXPORT ORDINAL="8168" NAME="?m_nMinUsagePercentage@CMFCCmdUsageCount@@1IA" PURGE="-1" COMMENT="" />
    <EXPORT ORDINAL="8167" NAME="?m_nMarginSize@CMFCAutoHideButton@@2HA" PURGE="-1" COMMENT="" />
    <EXPORT ORDINAL="8166" NAME="?m_nLeftOffsetX@CSmartDockingStandaloneGuide@@1HB" PURGE="-1" COMMENT="" />
    <EXPORT ORDINAL="8165" NAME="?m_nLastCommandIndex@CMFCPopupMenuBar@@1HA" PURGE="-1" COMMENT="" />
    <EXPORT ORDINAL="8164" NAME="?m_nLastAnimTime@CMFCTasksPane@@1JA" PURGE="-1" COMMENT="" />
    <EXPORT ORDINAL="8163" NAME="?m_nGrayImagePercentage@CMFCToolBar@@1HA" PURGE="-1" COMMENT="" />
    <EXPORT ORDINAL="8162" NAME="?m_nFontHeight@CMFCToolBarFontComboBox@@2HA" PURGE="-1" COMMENT="" />
    <EXPORT ORDINAL="8161" NAME="?m_nFadedImageAlpha@CMFCToolBarImages@@1EA" PURGE="-1" COMMENT="" />
    <EXPORT ORDINAL="8160" NAME="?m_nExtraSpace@CAutoHideDockSite@@1HA" PURGE="-1" COMMENT="" />
    <EXPORT ORDINAL="8159" NAME="?m_nDockSensitivity@CDockingManager@@2HA" PURGE="-1" COMMENT="" />
    <EXPORT ORDINAL="8158" NAME="?m_nDisabledImageAlpha@CMFCToolBarImages@@1EA" PURGE="-1" COMMENT="" />
    <EXPORT ORDINAL="8157" NAME="?m_nDefaultWidth@CPaneDivider@@2HA" PURGE="-1" COMMENT="" />
    <EXPORT ORDINAL="8156" NAME="?m_nCount@CMFCToolBarFontComboBox@@1HA" PURGE="-1" COMMENT="" />
    <EXPORT ORDINAL="8155" NAME="?m_nButtonMarginVert@CMFCCaptionButton@@2HA" PURGE="-1" COMMENT="" />
    <EXPORT ORDINAL="8154" NAME="?m_nButtonMargin@CMFCCaptionButton@@2HA" PURGE="-1" COMMENT="" />
    <EXPORT ORDINAL="8153" NAME="?m_nBottomOffsetY@CSmartDockingStandaloneGuide@@1HB" PURGE="-1" COMMENT="" />
    <EXPORT ORDINAL="8152" NAME="?m_nBorderSize@CMFCAutoHideButton@@2HA" PURGE="-1" COMMENT="" />
    <EXPORT ORDINAL="8151" NAME="?m_nAnimTimerDuration@CMFCTasksPane@@1HB" PURGE="-1" COMMENT="" />
    <EXPORT ORDINAL="8150" NAME="?m_nAccelSize@CKeyboardManager@@1HA" PURGE="-1" COMMENT="" />
    <EXPORT ORDINAL="8149" NAME="?m_nAccelDefaultSize@CKeyboardManager@@1HA" PURGE="-1" COMMENT="" />
    <EXPORT ORDINAL="8147" NAME="?m_mapSelectedItems@CMFCRibbonGallery@@1V?$CMap@IIHH@@A" PURGE="-1" COMMENT="" />
    <EXPORT ORDINAL="8146" NAME="?m_mapPresentIDs@CMFCCustomizeMenuButton@@2V?$CMap@IIHH@@A" PURGE="-1" COMMENT="" />
    <EXPORT ORDINAL="8145" NAME="?m_mapFloatingBars@CPaneFrameWnd@@1V?$CMap@IIPEAUHWND__@@PEAU1@@@A" PURGE="-1" COMMENT="" />
    <EXPORT ORDINAL="8144" NAME="?m_mapDocIcons@CMFCTabCtrl@@1V?$CMap@IIPEAUHICON__@@PEAU1@@@A" PURGE="-1" COMMENT="" />
    <EXPORT ORDINAL="8143" NAME="?m_lstUnpermittedCommands@CMFCToolBar@@1V?$CList@II@@A" PURGE="-1" COMMENT="" />
    <EXPORT ORDINAL="8142" NAME="?m_lstTabbedControlBars@CTabbedPane@@1V?$CList@PEAUHWND__@@PEAU1@@@A" PURGE="-1" COMMENT="" />
    <EXPORT ORDINAL="8141" NAME="?m_lstProtectedCommands@CMFCToolBarButton@@1V?$CList@II@@A" PURGE="-1" COMMENT="" />
    <EXPORT ORDINAL="8140" NAME="?m_lstFrames@CFrameImpl@@1V?$CList@PEAVCFrameWnd@@PEAV1@@@A" PURGE="-1" COMMENT="" />
    <EXPORT ORDINAL="8139" NAME="?m_lstFonts@CMFCToolBarFontComboBox@@1VCObList@@A" PURGE="-1" COMMENT="" />
    <EXPORT ORDINAL="8138" NAME="?m_lstBasicCommands@CMFCToolBar@@1V?$CList@II@@A" PURGE="-1" COMMENT="" />
    <EXPORT ORDINAL="8137" NAME="?m_lpAccelDefault@CKeyboardManager@@1PEAUtagACCEL@@EA" PURGE="-1" COMMENT="" />
    <EXPORT ORDINAL="8136" NAME="?m_lpAccel@CKeyboardManager@@1PEAUtagACCEL@@EA" PURGE="-1" COMMENT="" />
    <EXPORT ORDINAL="8124" NAME="?m_hookMouseHelp@CMFCToolBar@@1PEAUHHOOK__@@EA" PURGE="-1" COMMENT="" />
    <EXPORT ORDINAL="8123" NAME="?m_hookMouse@CDialogImpl@@1PEAUHHOOK__@@EA" PURGE="-1" COMMENT="" />
    <EXPORT ORDINAL="8122" NAME="?m_hinstRes@CMFCVisualManagerOffice2007@@1PEAUHINSTANCE__@@EA" PURGE="-1" COMMENT="" />
    <EXPORT ORDINAL="8119" NAME="?m_hAccelLast@CKeyboardManager@@1PEAUHACCEL__@@EA" PURGE="-1" COMMENT="" />
    <EXPORT ORDINAL="8118" NAME="?m_hAccelDefaultLast@CKeyboardManager@@1PEAUHACCEL__@@EA" PURGE="-1" COMMENT="" />
    <EXPORT ORDINAL="8117" NAME="?m_dwExcludeStyle@CMDIChildWndEx@@2KA" PURGE="-1" COMMENT="" />
    <EXPORT ORDINAL="8116" NAME="?m_dwDefaultTaskbarTabPropertyFlags@CMDIChildWndEx@@2KA" PURGE="-1" COMMENT="" />
    <EXPORT ORDINAL="8114" NAME="?m_dockModeGlobal@CDockingManager@@1W4AFX_DOCK_TYPE@@A" PURGE="-1" COMMENT="" />
    <EXPORT ORDINAL="8110" NAME="?m_dblLargeImageRatio@CMFCToolBar@@2NA" PURGE="-1" COMMENT="" />
    <EXPORT ORDINAL="8109" NAME="?m_csImage@CMFCOutlookBarPane@@1VCSize@@A" PURGE="-1" COMMENT="" />
    <EXPORT ORDINAL="8105" NAME="?m_clrTextHot@CMFCToolBar@@1KA" PURGE="-1" COMMENT="" />
    <EXPORT ORDINAL="8104" NAME="?m_cFormat@CMFCToolBarButton@@2GA" PURGE="-1" COMMENT="" />
    <EXPORT ORDINAL="8103" NAME="?m_bWrapText@CMFCToolBarButton@@2HA" PURGE="-1" COMMENT="" />
    <EXPORT ORDINAL="8102" NAME="?m_bWinXPThemeWasChecked@CMFCButton@@1HA" PURGE="-1" COMMENT="" />
    <EXPORT ORDINAL="8101" NAME="?m_bWinXPTheme@CMFCButton@@1HA" PURGE="-1" COMMENT="" />
    <EXPORT ORDINAL="8100" NAME="?m_bUseSaveBits@CPaneFrameWnd@@2HA" PURGE="-1" COMMENT="" />
    <EXPORT ORDINAL="8099" NAME="?m_bUseMenuHandle@CMFCRibbonButton@@2HA" PURGE="-1" COMMENT="" />
    <EXPORT ORDINAL="8098" NAME="?m_bUseMemoryDC@CMemDC@@2HA" PURGE="-1" COMMENT="" />
    <EXPORT ORDINAL="8097" NAME="?m_bUseGlobalTheme@CMFCVisualManagerOffice2003@@1HA" PURGE="-1" COMMENT="" />
    <EXPORT ORDINAL="8096" NAME="?m_bUpdateImages@CMFCToolBarButton@@2HA" PURGE="-1" COMMENT="" />
    <EXPORT ORDINAL="8095" NAME="?m_bTabsAlwaysTop@CTabbedPane@@2HA" PURGE="-1" COMMENT="" />
    <EXPORT ORDINAL="8094" NAME="?m_bStatusBarOfficeXPLook@CMFCVisualManagerOffice2003@@1HA" PURGE="-1" COMMENT="" />
    <EXPORT ORDINAL="8093" NAME="?m_bShowTooltips@CMFCToolBar@@1HA" PURGE="-1" COMMENT="" />
    <EXPORT ORDINAL="8092" NAME="?m_bShowShortcutKeys@CMFCToolBar@@1HA" PURGE="-1" COMMENT="" />
    <EXPORT ORDINAL="8091" NAME="?m_bShowAllMenusDelay@CMFCMenuBar@@1HA" PURGE="-1" COMMENT="" />
    <EXPORT ORDINAL="8090" NAME="?m_bShowAllCommands@CMFCMenuBar@@1HA" PURGE="-1" COMMENT="" />
    <EXPORT ORDINAL="8089" NAME="?m_bSetTooltipTopmost@CBasePane@@2HA" PURGE="-1" COMMENT="" />
    <EXPORT ORDINAL="8088" NAME="?m_bSendMenuSelectMsg@CMFCPopupMenu@@1HA" PURGE="-1" COMMENT="" />
    <EXPORT ORDINAL="8086" NAME="?m_bScaleLargeImages@CPreviewViewEx@@1HA" PURGE="-1" COMMENT="" />
    <EXPORT ORDINAL="8085" NAME="?m_bSavingState@CDockingManager@@2HA" PURGE="-1" COMMENT="" />
    <EXPORT ORDINAL="8087" NAME="?m_bSDParamsModified@CDockingManager@@1HA" PURGE="-1" COMMENT="" />
    <EXPORT ORDINAL="8084" NAME="?m_bRoundedAutohideButtons@CMFCVisualManagerVS2005@@2HA" PURGE="-1" COMMENT="" />
    <EXPORT ORDINAL="8083" NAME="?m_bRetainInternalSliderPosition@CPaneContainer@@2HA" PURGE="-1" COMMENT="" />
    <EXPORT ORDINAL="8082" NAME="?m_bRestoringDockState@CDockingManager@@2HA" PURGE="-1" COMMENT="" />
    <EXPORT ORDINAL="8081" NAME="?m_bRecentlyUsedOld@CMFCCustomizeMenuButton@@2HA" PURGE="-1" COMMENT="" />
    <EXPORT ORDINAL="8080" NAME="?m_bRecentlyUsedMenus@CMFCMenuBar@@1HA" PURGE="-1" COMMENT="" />
    <EXPORT ORDINAL="8079" NAME="?m_bOverlappingTabs@CMFCAutoHideButton@@2HA" PURGE="-1" COMMENT="" />
    <EXPORT ORDINAL="8078" NAME="?m_bMultiThreaded@CMFCToolBarImages@@2HA" PURGE="-1" COMMENT="" />
    <EXPORT ORDINAL="8077" NAME="?m_bMultiThreaded@CBasePane@@2HA" PURGE="-1" COMMENT="" />
    <EXPORT ORDINAL="8076" NAME="?m_bMenuSound@CMFCPopupMenu@@1HA" PURGE="-1" COMMENT="" />
    <EXPORT ORDINAL="8075" NAME="?m_bMenuShadows@CMFCMenuBar@@1HA" PURGE="-1" COMMENT="" />
    <EXPORT ORDINAL="8074" NAME="?m_bMaintainPercentage@CPaneContainer@@2HA" PURGE="-1" COMMENT="" />
    <EXPORT ORDINAL="8073" NAME="?m_bLargeIcons@CMFCToolBar@@1HA" PURGE="-1" COMMENT="" />
    <EXPORT ORDINAL="8072" NAME="?m_bIsTabsAutoColor@CTabbedPane@@1HA" PURGE="-1" COMMENT="" />
    <EXPORT ORDINAL="8071" NAME="?m_bIsRTL@CMFCToolBarImages@@1HA" PURGE="-1" COMMENT="" />
    <EXPORT ORDINAL="8070" NAME="?m_bIsDrawOnGlass@CMFCToolBarImages@@2HA" PURGE="-1" COMMENT="" />
    <EXPORT ORDINAL="8069" NAME="?m_bIgnoreLargeIconsMode@CMFCCustomizeButton@@2HA" PURGE="-1" COMMENT="" />
    <EXPORT ORDINAL="8068" NAME="?m_bIgnoreEnabledAlignment@CDockingManager@@2HA" PURGE="-1" COMMENT="" />
    <EXPORT ORDINAL="8067" NAME="?m_bHighlightDisabledItems@CMFCMenuBar@@1HA" PURGE="-1" COMMENT="" />
    <EXPORT ORDINAL="8066" NAME="?m_bHideInAutoHideMode@CDockablePane@@2HA" PURGE="-1" COMMENT="" />
    <EXPORT ORDINAL="8064" NAME="?m_bHandleMinSize@CPane@@2HA" PURGE="-1" COMMENT="" />
    <EXPORT ORDINAL="8063" NAME="?m_bFullScreenMode@CDockingManager@@2HA" PURGE="-1" COMMENT="" />
    <EXPORT ORDINAL="8062" NAME="?m_bForceShadow@CMFCPopupMenu@@1HA" PURGE="-1" COMMENT="" />
    <EXPORT ORDINAL="8061" NAME="?m_bForceMenuFocus@CMFCPopupMenu@@1HA" PURGE="-1" COMMENT="" />
    <EXPORT ORDINAL="8060" NAME="?m_bFlat@CMFCToolBarEditBoxButton@@1HA" PURGE="-1" COMMENT="" />
    <EXPORT ORDINAL="8059" NAME="?m_bFlat@CMFCToolBarComboBoxButton@@1HA" PURGE="-1" COMMENT="" />
    <EXPORT ORDINAL="8058" NAME="?m_bExtCharTranslation@CMFCToolBar@@2HA" PURGE="-1" COMMENT="" />
    <EXPORT ORDINAL="8057" NAME="?m_bEnableFloatingBars@CMDIChildWndEx@@2HA" PURGE="-1" COMMENT="" />
    <EXPORT ORDINAL="8056" NAME="?m_bEnableAnimation@CMFCOutlookBarTabCtrl@@1HA" PURGE="-1" COMMENT="" />
    <EXPORT ORDINAL="8055" NAME="?m_bEnableActivate@CMFCTabCtrl@@2HA" PURGE="-1" COMMENT="" />
    <EXPORT ORDINAL="8054" NAME="?m_bDrawUsingFont@CMFCRibbonFontComboBox@@2HA" PURGE="-1" COMMENT="" />
    <EXPORT ORDINAL="8053" NAME="?m_bDrawUsingFont@CMFCFontComboBox@@2HA" PURGE="-1" COMMENT="" />
    <EXPORT ORDINAL="8052" NAME="?m_bDontScaleImages@CMFCToolBar@@2HA" PURGE="-1" COMMENT="" />
    <EXPORT ORDINAL="8051" NAME="?m_bDockBarMenu@CDockingManager@@1HA" PURGE="-1" COMMENT="" />
    <EXPORT ORDINAL="8050" NAME="?m_bDisableTrueColorAlpha@CMFCToolBarImages@@2HA" PURGE="-1" COMMENT="" />
    <EXPORT ORDINAL="8049" NAME="?m_bDisableSetRedraw@CMDIFrameWndEx@@2HA" PURGE="-1" COMMENT="" />
    <EXPORT ORDINAL="8048" NAME="?m_bDisableRecalcLayout@CDockingManager@@2HA" PURGE="-1" COMMENT="" />
    <EXPORT ORDINAL="8047" NAME="?m_bDisableLabelsEdit@CMFCToolBar@@2HA" PURGE="-1" COMMENT="" />
    <EXPORT ORDINAL="8046" NAME="?m_bDisableAnimation@CDockablePane@@2HA" PURGE="-1" COMMENT="" />
    <EXPORT ORDINAL="8045" NAME="?m_bDefaultWinXPColors@CMFCVisualManagerOffice2003@@1HA" PURGE="-1" COMMENT="" />
    <EXPORT ORDINAL="8043" NAME="?m_bCustomizeMode@CMFCToolBar@@1HA" PURGE="-1" COMMENT="" />
    <EXPORT ORDINAL="8042" NAME="?m_bControlBarExtraPixel@CFrameImpl@@2HA" PURGE="-1" COMMENT="" />
    <EXPORT ORDINAL="8041" NAME="?m_bCenterVert@CMFCToolBarComboBoxButton@@1HA" PURGE="-1" COMMENT="" />
    <EXPORT ORDINAL="8039" NAME="?m_bAutoGrayInactiveImages@CMFCToolBar@@1HA" PURGE="-1" COMMENT="" />
    <EXPORT ORDINAL="8038" NAME="?m_bAutoFreeRes@CMFCVisualManagerOffice2007@@1HA" PURGE="-1" COMMENT="" />
    <EXPORT ORDINAL="8037" NAME="?m_bAlwaysShowEmptyToolsEntry@CMFCPopupMenu@@1HA" PURGE="-1" COMMENT="" />
    <EXPORT ORDINAL="8036" NAME="?m_bAlwaysCallOwnerDraw@CMFCToolBarMenuButton@@2HA" PURGE="-1" COMMENT="" />
    <EXPORT ORDINAL="8035" NAME="?m_bAltCustomizeMode@CMFCToolBar@@1HA" PURGE="-1" COMMENT="" />
    <EXPORT ORDINAL="8034" NAME="?m_bAltCustomization@CMFCToolBar@@1HA" PURGE="-1" COMMENT="" />
    <EXPORT ORDINAL="8033" NAME="?m_bAllAccelerators@CKeyboardManager@@1HA" PURGE="-1" COMMENT="" />
    <EXPORT ORDINAL="8032" NAME="?m_b3DTabsXPTheme@CMFCVisualManagerWindows@@2HA" PURGE="-1" COMMENT="" />
    <EXPORT ORDINAL="8031" NAME="?m_arTabsAutoColors@CTabbedPane@@1V?$CArray@KK@@A" PURGE="-1" COMMENT="" />
    <EXPORT ORDINAL="8028" NAME="?m_ahSlideModeGlobal@CDockingManager@@2IA" PURGE="-1" COMMENT="" />
    <EXPORT ORDINAL="8224" NAME="?m_UsageCount@CMFCToolBar@@1VCMFCCmdUsageCount@@A" PURGE="-1" COMMENT="" />
    <EXPORT ORDINAL="8221" NAME="?m_StyleTabWnd@CTabbedPane@@2W4Style@CMFCTabCtrl@@A" PURGE="-1" COMMENT="" />
    <EXPORT ORDINAL="8220" NAME="?m_Style@CMFCVisualManagerOffice2007@@1W4Style@1@A" PURGE="-1" COMMENT="" />
    <EXPORT ORDINAL="8207" NAME="?m_SDParams@CDockingManager@@1VCSmartDockingInfo@@A" PURGE="-1" COMMENT="" />
    <EXPORT ORDINAL="8148" NAME="?m_MenuImages@CMFCToolBar@@1VCMFCToolBarImages@@A" PURGE="-1" COMMENT="" />
    <EXPORT ORDINAL="8135" NAME="?m_LargeImages@CMFCToolBar@@1VCMFCToolBarImages@@A" PURGE="-1" COMMENT="" />
    <EXPORT ORDINAL="8134" NAME="?m_LargeDisabledImages@CMFCToolBar@@1VCMFCToolBarImages@@A" PURGE="-1" COMMENT="" />
    <EXPORT ORDINAL="8133" NAME="?m_LargeColdImages@CMFCToolBar@@1VCMFCToolBarImages@@A" PURGE="-1" COMMENT="" />
    <EXPORT ORDINAL="8132" NAME="?m_ImagesWhite@CMenuImages@@1VCMFCToolBarImages@@A" PURGE="-1" COMMENT="" />
    <EXPORT ORDINAL="8131" NAME="?m_ImagesLtGray@CMenuImages@@1VCMFCToolBarImages@@A" PURGE="-1" COMMENT="" />
    <EXPORT ORDINAL="8130" NAME="?m_ImagesGray@CMenuImages@@1VCMFCToolBarImages@@A" PURGE="-1" COMMENT="" />
    <EXPORT ORDINAL="8129" NAME="?m_ImagesDkGray@CMenuImages@@1VCMFCToolBarImages@@A" PURGE="-1" COMMENT="" />
    <EXPORT ORDINAL="8127" NAME="?m_ImagesBlack@CMenuImages@@1VCMFCToolBarImages@@A" PURGE="-1" COMMENT="" />
    <EXPORT ORDINAL="8128" NAME="?m_ImagesBlack2@CMenuImages@@1VCMFCToolBarImages@@A" PURGE="-1" COMMENT="" />
    <EXPORT ORDINAL="8126" NAME="?m_Images@CMFCToolBar@@1VCMFCToolBarImages@@A" PURGE="-1" COMMENT="" />
    <EXPORT ORDINAL="8125" NAME="?m_Images@CMFCOutlookBarPane@@1VCMFCToolBarImages@@A" PURGE="-1" COMMENT="" />
    <EXPORT ORDINAL="8115" NAME="?m_DropSource@CMFCToolBar@@1VCMFCToolBarDropSource@@A" PURGE="-1" COMMENT="" />
    <EXPORT ORDINAL="8113" NAME="?m_DisabledMenuImages@CMFCToolBar@@1VCMFCToolBarImages@@A" PURGE="-1" COMMENT="" />
    <EXPORT ORDINAL="8112" NAME="?m_DisabledImages@CMFCToolBar@@1VCMFCToolBarImages@@A" PURGE="-1" COMMENT="" />
    <EXPORT ORDINAL="8111" NAME="?m_DefaultImages@CMFCToolBar@@1V?$CMap@IIHH@@A" PURGE="-1" COMMENT="" />
    <EXPORT ORDINAL="8108" NAME="?m_ColorsByID@CMFCColorMenuButton@@1V?$CMap@IIKK@@A" PURGE="-1" COMMENT="" />
    <EXPORT ORDINAL="8107" NAME="?m_ColorNames@CMFCColorBar@@1V?$CMap@KKV?$CStringT@DV?$StrTraitMFC_DLL@DV?$ChTraitsCRT@D@ATL@@@@@ATL@@PEBD@@A" PURGE="-1" COMMENT="" />
    <EXPORT ORDINAL="8106" NAME="?m_ColdImages@CMFCToolBar@@1VCMFCToolBarImages@@A" PURGE="-1" COMMENT="" />
    <EXPORT ORDINAL="8030" NAME="?m_AnimationType@CMFCPopupMenu@@1W4ANIMATION_TYPE@1@A" PURGE="-1" COMMENT="" />
    <EXPORT ORDINAL="8029" NAME="?m_AnimationSpeed@CMFCPopupMenu@@1IA" PURGE="-1" COMMENT="" />
    <EXPORT ORDINAL="7874" NAME="?lMaxSize@CRichEditView@@2KA" PURGE="-1" COMMENT="" />
    <EXPORT ORDINAL="7405" NAME="?hFileNull@CFile@@2QEAXEA" PURGE="-1" COMMENT="" />
    <EXPORT ORDINAL="4735" NAME="?get_accValue@XAccessible@CWnd@@UEAAJUtagVARIANT@@PEAPEA_W@Z" PURGE="-1" COMMENT="" />
    <EXPORT ORDINAL="4734" NAME="?get_accValue@CWnd@@UEAAJUtagVARIANT@@PEAPEA_W@Z" PURGE="-1" COMMENT="" />
    <EXPORT ORDINAL="4733" NAME="?get_accValue@CMFCPropertyGridCtrl@@UEAAJUtagVARIANT@@PEAPEA_W@Z" PURGE="-1" COMMENT="" />
    <EXPORT ORDINAL="4732" NAME="?get_accValue@CBasePane@@UEAAJUtagVARIANT@@PEAPEA_W@Z" PURGE="-1" COMMENT="" />
    <EXPORT ORDINAL="4731" NAME="?get_accState@XAccessible@CWnd@@UEAAJUtagVARIANT@@PEAU3@@Z" PURGE="-1" COMMENT="" />
    <EXPORT ORDINAL="4730" NAME="?get_accState@CWnd@@UEAAJUtagVARIANT@@PEAU2@@Z" PURGE="-1" COMMENT="" />
    <EXPORT ORDINAL="4729" NAME="?get_accState@CMFCPropertyGridCtrl@@UEAAJUtagVARIANT@@PEAU2@@Z" PURGE="-1" COMMENT="" />
    <EXPORT ORDINAL="14093" NAME="?get_accState@CMFCPopupMenuBar@@UEAAJUtagVARIANT@@PEAU2@@Z" PURGE="-1" COMMENT="" />
    <EXPORT ORDINAL="14092" NAME="?get_accState@CMFCPopupMenu@@MEAAJUtagVARIANT@@PEAU2@@Z" PURGE="-1" COMMENT="" />
    <EXPORT ORDINAL="4728" NAME="?get_accState@CMFCButton@@UEAAJUtagVARIANT@@PEAU2@@Z" PURGE="-1" COMMENT="" />
    <EXPORT ORDINAL="4727" NAME="?get_accState@CCheckListBox@@MEAAJUtagVARIANT@@PEAU2@@Z" PURGE="-1" COMMENT="" />
    <EXPORT ORDINAL="4726" NAME="?get_accState@CBasePane@@UEAAJUtagVARIANT@@PEAU2@@Z" PURGE="-1" COMMENT="" />
    <EXPORT ORDINAL="4725" NAME="?get_accSelection@XAccessible@CWnd@@UEAAJPEAUtagVARIANT@@@Z" PURGE="-1" COMMENT="" />
    <EXPORT ORDINAL="4724" NAME="?get_accSelection@CWnd@@UEAAJPEAUtagVARIANT@@@Z" PURGE="-1" COMMENT="" />
    <EXPORT ORDINAL="4723" NAME="?get_accSelection@CMFCPropertyGridCtrl@@UEAAJPEAUtagVARIANT@@@Z" PURGE="-1" COMMENT="" />
    <EXPORT ORDINAL="4722" NAME="?get_accSelection@CBasePane@@UEAAJPEAUtagVARIANT@@@Z" PURGE="-1" COMMENT="" />
    <EXPORT ORDINAL="4721" NAME="?get_accRole@XAccessible@CWnd@@UEAAJUtagVARIANT@@PEAU3@@Z" PURGE="-1" COMMENT="" />
    <EXPORT ORDINAL="4720" NAME="?get_accRole@CWnd@@UEAAJUtagVARIANT@@PEAU2@@Z" PURGE="-1" COMMENT="" />
    <EXPORT ORDINAL="4719" NAME="?get_accRole@CMFCPropertyGridCtrl@@UEAAJUtagVARIANT@@PEAU2@@Z" PURGE="-1" COMMENT="" />
    <EXPORT ORDINAL="14091" NAME="?get_accRole@CMFCPopupMenuBar@@UEAAJUtagVARIANT@@PEAU2@@Z" PURGE="-1" COMMENT="" />
    <EXPORT ORDINAL="14090" NAME="?get_accRole@CMFCPopupMenu@@MEAAJUtagVARIANT@@PEAU2@@Z" PURGE="-1" COMMENT="" />
    <EXPORT ORDINAL="4718" NAME="?get_accRole@CCheckListBox@@MEAAJUtagVARIANT@@PEAU2@@Z" PURGE="-1" COMMENT="" />
    <EXPORT ORDINAL="4717" NAME="?get_accRole@CBasePane@@UEAAJUtagVARIANT@@PEAU2@@Z" PURGE="-1" COMMENT="" />
    <EXPORT ORDINAL="4716" NAME="?get_accParent@XAccessible@CWnd@@UEAAJPEAPEAUIDispatch@@@Z" PURGE="-1" COMMENT="" />
    <EXPORT ORDINAL="4715" NAME="?get_accParent@CWnd@@UEAAJPEAPEAUIDispatch@@@Z" PURGE="-1" COMMENT="" />
    <EXPORT ORDINAL="14089" NAME="?get_accParent@CMFCPopupMenu@@MEAAJPEAPEAUIDispatch@@@Z" PURGE="-1" COMMENT="" />
    <EXPORT ORDINAL="4714" NAME="?get_accParent@CBasePane@@UEAAJPEAPEAUIDispatch@@@Z" PURGE="-1" COMMENT="" />
    <EXPORT ORDINAL="4713" NAME="?get_accName@XAccessible@CWnd@@UEAAJUtagVARIANT@@PEAPEA_W@Z" PURGE="-1" COMMENT="" />
    <EXPORT ORDINAL="4712" NAME="?get_accName@CWnd@@UEAAJUtagVARIANT@@PEAPEA_W@Z" PURGE="-1" COMMENT="" />
    <EXPORT ORDINAL="4711" NAME="?get_accName@CToolBar@@UEAAJUtagVARIANT@@PEAPEA_W@Z" PURGE="-1" COMMENT="" />
    <EXPORT ORDINAL="4710" NAME="?get_accName@CMFCPropertyGridCtrl@@UEAAJUtagVARIANT@@PEAPEA_W@Z" PURGE="-1" COMMENT="" />
    <EXPORT ORDINAL="14088" NAME="?get_accName@CMFCPopupMenu@@MEAAJUtagVARIANT@@PEAPEA_W@Z" PURGE="-1" COMMENT="" />
    <EXPORT ORDINAL="4709" NAME="?get_accName@CBasePane@@UEAAJUtagVARIANT@@PEAPEA_W@Z" PURGE="-1" COMMENT="" />
    <EXPORT ORDINAL="4708" NAME="?get_accKeyboardShortcut@XAccessible@CWnd@@UEAAJUtagVARIANT@@PEAPEA_W@Z" PURGE="-1" COMMENT="" />
    <EXPORT ORDINAL="4707" NAME="?get_accKeyboardShortcut@CWnd@@UEAAJUtagVARIANT@@PEAPEA_W@Z" PURGE="-1" COMMENT="" />
    <EXPORT ORDINAL="4706" NAME="?get_accKeyboardShortcut@CMFCPropertyGridCtrl@@UEAAJUtagVARIANT@@PEAPEA_W@Z" PURGE="-1" COMMENT="" />
    <EXPORT ORDINAL="4705" NAME="?get_accKeyboardShortcut@CBasePane@@UEAAJUtagVARIANT@@PEAPEA_W@Z" PURGE="-1" COMMENT="" />
    <EXPORT ORDINAL="4704" NAME="?get_accHelpTopic@XAccessible@CWnd@@UEAAJPEAPEA_WUtagVARIANT@@PEAJ@Z" PURGE="-1" COMMENT="" />
    <EXPORT ORDINAL="4703" NAME="?get_accHelpTopic@CWnd@@UEAAJPEAPEA_WUtagVARIANT@@PEAJ@Z" PURGE="-1" COMMENT="" />
    <EXPORT ORDINAL="4702" NAME="?get_accHelpTopic@CMFCPropertyGridCtrl@@UEAAJPEAPEA_WUtagVARIANT@@PEAJ@Z" PURGE="-1" COMMENT="" />
    <EXPORT ORDINAL="4701" NAME="?get_accHelpTopic@CBasePane@@UEAAJPEAPEA_WUtagVARIANT@@PEAJ@Z" PURGE="-1" COMMENT="" />
    <EXPORT ORDINAL="4700" NAME="?get_accHelp@XAccessible@CWnd@@UEAAJUtagVARIANT@@PEAPEA_W@Z" PURGE="-1" COMMENT="" />
    <EXPORT ORDINAL="4699" NAME="?get_accHelp@CWnd@@UEAAJUtagVARIANT@@PEAPEA_W@Z" PURGE="-1" COMMENT="" />
    <EXPORT ORDINAL="4698" NAME="?get_accHelp@CMFCPropertyGridCtrl@@UEAAJUtagVARIANT@@PEAPEA_W@Z" PURGE="-1" COMMENT="" />
    <EXPORT ORDINAL="4697" NAME="?get_accHelp@CBasePane@@UEAAJUtagVARIANT@@PEAPEA_W@Z" PURGE="-1" COMMENT="" />
    <EXPORT ORDINAL="4696" NAME="?get_accFocus@XAccessible@CWnd@@UEAAJPEAUtagVARIANT@@@Z" PURGE="-1" COMMENT="" />
    <EXPORT ORDINAL="4695" NAME="?get_accFocus@CWnd@@UEAAJPEAUtagVARIANT@@@Z" PURGE="-1" COMMENT="" />
    <EXPORT ORDINAL="4694" NAME="?get_accFocus@CMFCPropertyGridCtrl@@UEAAJPEAUtagVARIANT@@@Z" PURGE="-1" COMMENT="" />
    <EXPORT ORDINAL="4693" NAME="?get_accFocus@CBasePane@@UEAAJPEAUtagVARIANT@@@Z" PURGE="-1" COMMENT="" />
    <EXPORT ORDINAL="4692" NAME="?get_accDescription@XAccessible@CWnd@@UEAAJUtagVARIANT@@PEAPEA_W@Z" PURGE="-1" COMMENT="" />
    <EXPORT ORDINAL="4691" NAME="?get_accDescription@CWnd@@UEAAJUtagVARIANT@@PEAPEA_W@Z" PURGE="-1" COMMENT="" />
    <EXPORT ORDINAL="4690" NAME="?get_accDescription@CMFCPropertyGridCtrl@@UEAAJUtagVARIANT@@PEAPEA_W@Z" PURGE="-1" COMMENT="" />
    <EXPORT ORDINAL="4689" NAME="?get_accDescription@CBasePane@@UEAAJUtagVARIANT@@PEAPEA_W@Z" PURGE="-1" COMMENT="" />
    <EXPORT ORDINAL="4688" NAME="?get_accDefaultAction@XAccessible@CWnd@@UEAAJUtagVARIANT@@PEAPEA_W@Z" PURGE="-1" COMMENT="" />
    <EXPORT ORDINAL="4687" NAME="?get_accDefaultAction@CWnd@@UEAAJUtagVARIANT@@PEAPEA_W@Z" PURGE="-1" COMMENT="" />
    <EXPORT ORDINAL="4686" NAME="?get_accDefaultAction@CMFCPropertyGridCtrl@@UEAAJUtagVARIANT@@PEAPEA_W@Z" PURGE="-1" COMMENT="" />
    <EXPORT ORDINAL="4685" NAME="?get_accDefaultAction@CCheckListBox@@MEAAJUtagVARIANT@@PEAPEA_W@Z" PURGE="-1" COMMENT="" />
    <EXPORT ORDINAL="4684" NAME="?get_accDefaultAction@CBasePane@@UEAAJUtagVARIANT@@PEAPEA_W@Z" PURGE="-1" COMMENT="" />
    <EXPORT ORDINAL="4683" NAME="?get_accChildCount@XAccessible@CWnd@@UEAAJPEAJ@Z" PURGE="-1" COMMENT="" />
    <EXPORT ORDINAL="4682" NAME="?get_accChildCount@CWnd@@UEAAJPEAJ@Z" PURGE="-1" COMMENT="" />
    <EXPORT ORDINAL="4681" NAME="?get_accChildCount@CMFCToolBar@@MEAAJPEAJ@Z" PURGE="-1" COMMENT="" />
    <EXPORT ORDINAL="4680" NAME="?get_accChildCount@CMFCRibbonBar@@UEAAJPEAJ@Z" PURGE="-1" COMMENT="" />
    <EXPORT ORDINAL="4679" NAME="?get_accChildCount@CMFCPropertyGridCtrl@@UEAAJPEAJ@Z" PURGE="-1" COMMENT="" />
    <EXPORT ORDINAL="14087" NAME="?get_accChildCount@CMFCPopupMenu@@MEAAJPEAJ@Z" PURGE="-1" COMMENT="" />
    <EXPORT ORDINAL="4678" NAME="?get_accChildCount@CBasePane@@UEAAJPEAJ@Z" PURGE="-1" COMMENT="" />
    <EXPORT ORDINAL="4677" NAME="?get_accChild@XAccessible@CWnd@@UEAAJUtagVARIANT@@PEAPEAUIDispatch@@@Z" PURGE="-1" COMMENT="" />
    <EXPORT ORDINAL="4676" NAME="?get_accChild@CWnd@@UEAAJUtagVARIANT@@PEAPEAUIDispatch@@@Z" PURGE="-1" COMMENT="" />
    <EXPORT ORDINAL="4675" NAME="?get_accChild@CMFCToolBar@@MEAAJUtagVARIANT@@PEAPEAUIDispatch@@@Z" PURGE="-1" COMMENT="" />
    <EXPORT ORDINAL="4674" NAME="?get_accChild@CMFCRibbonBar@@UEAAJUtagVARIANT@@PEAPEAUIDispatch@@@Z" PURGE="-1" COMMENT="" />
    <EXPORT ORDINAL="4673" NAME="?get_accChild@CMFCPropertyGridCtrl@@UEAAJUtagVARIANT@@PEAPEAUIDispatch@@@Z" PURGE="-1" COMMENT="" />
    <EXPORT ORDINAL="14086" NAME="?get_accChild@CMFCPopupMenu@@MEAAJUtagVARIANT@@PEAPEAUIDispatch@@@Z" PURGE="-1" COMMENT="" />
    <EXPORT ORDINAL="4672" NAME="?get_accChild@CBasePane@@UEAAJUtagVARIANT@@PEAPEAUIDispatch@@@Z" PURGE="-1" COMMENT="" />
    <EXPORT ORDINAL="14064" NAME="?g_pTopLevelFrame@@3PEAVCFrameWnd@@EA" PURGE="-1" COMMENT="" />
    <EXPORT ORDINAL="4105" NAME="?dwStyleDefault@CEditView@@2KB" PURGE="-1" COMMENT="" />
    <EXPORT ORDINAL="2309" NAME="?afxUserToolsManager@@3PEAVCUserToolsManager@@EA" PURGE="-1" COMMENT="" />
    <EXPORT ORDINAL="2271" NAME="?afxShellManager@@3PEAVCShellManager@@EA" PURGE="-1" COMMENT="" />
    <EXPORT ORDINAL="14063" NAME="?afxMenuHash@@3VCMenuHash@@A" PURGE="-1" COMMENT="" />
    <EXPORT ORDINAL="2198" NAME="?afxKeyboardManager@@3PEAVCKeyboardManager@@EA" PURGE="-1" COMMENT="" />
    <EXPORT ORDINAL="2172" NAME="?afxGlobalUtils@@3VCGlobalUtils@@A" PURGE="-1" COMMENT="" />
    <EXPORT ORDINAL="2168" NAME="?afxGlobalData@@3UAFX_GLOBAL_DATA@@A" PURGE="-1" COMMENT="" />
    <EXPORT ORDINAL="2111" NAME="?afxData@@3UAUX_DATA@@A" PURGE="-1" COMMENT="" />
    <EXPORT ORDINAL="1703" NAME="?accSelect@XAccessible@CWnd@@UEAAJJUtagVARIANT@@@Z" PURGE="-1" COMMENT="" />
    <EXPORT ORDINAL="1702" NAME="?accSelect@CWnd@@UEAAJJUtagVARIANT@@@Z" PURGE="-1" COMMENT="" />
    <EXPORT ORDINAL="1701" NAME="?accSelect@CMFCPropertyGridCtrl@@UEAAJJUtagVARIANT@@@Z" PURGE="-1" COMMENT="" />
    <EXPORT ORDINAL="1700" NAME="?accSelect@CBasePane@@UEAAJJUtagVARIANT@@@Z" PURGE="-1" COMMENT="" />
    <EXPORT ORDINAL="1698" NAME="?accNavigate@XAccessible@CWnd@@UEAAJJUtagVARIANT@@PEAU3@@Z" PURGE="-1" COMMENT="" />
    <EXPORT ORDINAL="1697" NAME="?accNavigate@CWnd@@UEAAJJUtagVARIANT@@PEAU2@@Z" PURGE="-1" COMMENT="" />
    <EXPORT ORDINAL="1696" NAME="?accNavigate@CMFCToolBar@@MEAAJJUtagVARIANT@@PEAU2@@Z" PURGE="-1" COMMENT="" />
    <EXPORT ORDINAL="1695" NAME="?accNavigate@CMFCRibbonBar@@UEAAJJUtagVARIANT@@PEAU2@@Z" PURGE="-1" COMMENT="" />
    <EXPORT ORDINAL="1694" NAME="?accLocation@XAccessible@CWnd@@UEAAJPEAJ000UtagVARIANT@@@Z" PURGE="-1" COMMENT="" />
    <EXPORT ORDINAL="1693" NAME="?accLocation@CWnd@@UEAAJPEAJ000UtagVARIANT@@@Z" PURGE="-1" COMMENT="" />
    <EXPORT ORDINAL="1692" NAME="?accLocation@CMFCPropertyGridCtrl@@UEAAJPEAJ000UtagVARIANT@@@Z" PURGE="-1" COMMENT="" />
    <EXPORT ORDINAL="1691" NAME="?accLocation@CBasePane@@UEAAJPEAJ000UtagVARIANT@@@Z" PURGE="-1" COMMENT="" />
    <EXPORT ORDINAL="1690" NAME="?accHitTest@XAccessible@CWnd@@UEAAJJJPEAUtagVARIANT@@@Z" PURGE="-1" COMMENT="" />
    <EXPORT ORDINAL="1689" NAME="?accHitTest@CWnd@@UEAAJJJPEAUtagVARIANT@@@Z" PURGE="-1" COMMENT="" />
    <EXPORT ORDINAL="1688" NAME="?accHitTest@CMFCToolBar@@MEAAJJJPEAUtagVARIANT@@@Z" PURGE="-1" COMMENT="" />
    <EXPORT ORDINAL="1687" NAME="?accHitTest@CMFCRibbonBar@@UEAAJJJPEAUtagVARIANT@@@Z" PURGE="-1" COMMENT="" />
    <EXPORT ORDINAL="1686" NAME="?accHitTest@CMFCPropertyGridCtrl@@UEAAJJJPEAUtagVARIANT@@@Z" PURGE="-1" COMMENT="" />
    <EXPORT ORDINAL="1685" NAME="?accHitTest@CBasePane@@UEAAJJJPEAUtagVARIANT@@@Z" PURGE="-1" COMMENT="" />
    <EXPORT ORDINAL="1681" NAME="?accDoDefaultAction@XAccessible@CWnd@@UEAAJUtagVARIANT@@@Z" PURGE="-1" COMMENT="" />
    <EXPORT ORDINAL="1680" NAME="?accDoDefaultAction@CWnd@@UEAAJUtagVARIANT@@@Z" PURGE="-1" COMMENT="" />
    <EXPORT ORDINAL="1679" NAME="?accDoDefaultAction@CMFCToolBar@@MEAAJUtagVARIANT@@@Z" PURGE="-1" COMMENT="" />
    <EXPORT ORDINAL="1678" NAME="?accDoDefaultAction@CMFCRibbonBar@@UEAAJUtagVARIANT@@@Z" PURGE="-1" COMMENT="" />
    <EXPORT ORDINAL="1677" NAME="?accDoDefaultAction@CCheckListBox@@MEAAJUtagVARIANT@@@Z" PURGE="-1" COMMENT="" />
    <EXPORT ORDINAL="1667" NAME="?_AfxSocketInit@@YAHPEAUWSAData@@@Z" PURGE="-1" COMMENT="" />
    <EXPORT ORDINAL="1666" NAME="?_AfxFindSiteOrWnd@@YAPEAUCOleControlSiteOrWnd@@PEAVCWnd@@0@Z" PURGE="-1" COMMENT="" />
    <EXPORT ORDINAL="14044" NAME="?WriteUInt@XRibbonInfoParser@CMFCRibbonInfo@@UEAAHAEBV?$CStringT@DV?$StrTraitMFC_DLL@DV?$ChTraitsCRT@D@ATL@@@@@ATL@@II@Z" PURGE="-1" COMMENT="" />
    <EXPORT ORDINAL="14043" NAME="?WriteToStream@CPropertySet@@QEAAHPEAUIStream@@@Z" PURGE="-1" COMMENT="" />
    <EXPORT ORDINAL="14042" NAME="?WriteToStream@CPropertySection@@QEAAHPEAUIStream@@@Z" PURGE="-1" COMMENT="" />
    <EXPORT ORDINAL="14041" NAME="?WriteToStream@CProperty@@QEAAHPEAUIStream@@@Z" PURGE="-1" COMMENT="" />
    <EXPORT ORDINAL="14040" NAME="?WriteToArchive@CEditView@@QEAAXAEAVCArchive@@@Z" PURGE="-1" COMMENT="" />
    <EXPORT ORDINAL="14039" NAME="?WriteString@CWinAppEx@@QEAAHPEBD0@Z" PURGE="-1" COMMENT="" />
    <EXPORT ORDINAL="14038" NAME="?WriteString@CStdioFile@@UEAAXPEBD@Z" PURGE="-1" COMMENT="" />
    <EXPORT ORDINAL="14037" NAME="?WriteString@CInternetFile@@UEAAXPEBD@Z" PURGE="-1" COMMENT="" />
    <EXPORT ORDINAL="14036" NAME="?WriteString@CGopherFile@@UEAAXPEBD@Z" PURGE="-1" COMMENT="" />
    <EXPORT ORDINAL="14035" NAME="?WriteString@CArchive@@QEAAXPEBD@Z" PURGE="-1" COMMENT="" />
    <EXPORT ORDINAL="14034" NAME="?WriteSize@XRibbonInfoParser@CMFCRibbonInfo@@UEAAHAEBV?$CStringT@DV?$StrTraitMFC_DLL@DV?$ChTraitsCRT@D@ATL@@@@@ATL@@AEBVCSize@@1@Z" PURGE="-1" COMMENT="" />
    <EXPORT ORDINAL="14033" NAME="?WriteSectionString@CWinAppEx@@QEAAHPEBD00@Z" PURGE="-1" COMMENT="" />
    <EXPORT ORDINAL="14032" NAME="?WriteSectionObject@CWinAppEx@@QEAAHPEBD0AEAVCObject@@@Z" PURGE="-1" COMMENT="" />
    <EXPORT ORDINAL="14031" NAME="?WriteSectionInt@CWinAppEx@@QEAAHPEBD0H@Z" PURGE="-1" COMMENT="" />
    <EXPORT ORDINAL="14030" NAME="?WriteSectionBinary@CWinAppEx@@QEAAHPEBD0PEAEI@Z" PURGE="-1" COMMENT="" />
    <EXPORT ORDINAL="14029" NAME="?WriteProfileStringA@CWinApp@@UEAAHPEBD00@Z" PURGE="-1" COMMENT="" />
    <EXPORT ORDINAL="14028" NAME="?WriteProfileInt@CWinApp@@UEAAHPEBD0H@Z" PURGE="-1" COMMENT="" />
    <EXPORT ORDINAL="14027" NAME="?WriteProfileBinary@CWinApp@@UEAAHPEBD0PEAEI@Z" PURGE="-1" COMMENT="" />
    <EXPORT ORDINAL="14026" NAME="?WriteObject@CWinAppEx@@QEAAHPEBDAEAVCObject@@@Z" PURGE="-1" COMMENT="" />
    <EXPORT ORDINAL="14025" NAME="?WriteObject@CArchive@@QEAAXPEBVCObject@@@Z" PURGE="-1" COMMENT="" />
    <EXPORT ORDINAL="14024" NAME="?WriteNameDictToStream@CPropertySection@@QEAAHPEAUIStream@@@Z" PURGE="-1" COMMENT="" />
    <EXPORT ORDINAL="14023" NAME="?WriteList@CRecentFileList@@UEAAXXZ" PURGE="-1" COMMENT="" />
    <EXPORT ORDINAL="14022" NAME="?WriteItemFlat@COleClientItem@@QEAAXAEAVCArchive@@@Z" PURGE="-1" COMMENT="" />
    <EXPORT ORDINAL="14021" NAME="?WriteItemCompound@COleClientItem@@QEAAXAEAVCArchive@@@Z" PURGE="-1" COMMENT="" />
    <EXPORT ORDINAL="14020" NAME="?WriteItem@COleClientItem@@UEAAXAEAVCArchive@@@Z" PURGE="-1" COMMENT="" />
    <EXPORT ORDINAL="14019" NAME="?WriteInt@XRibbonInfoParser@CMFCRibbonInfo@@UEAAHAEBV?$CStringT@DV?$StrTraitMFC_DLL@DV?$ChTraitsCRT@D@ATL@@@@@ATL@@HH@Z" PURGE="-1" COMMENT="" />
    <EXPORT ORDINAL="14018" NAME="?WriteInt@CWinAppEx@@QEAAHPEBDH@Z" PURGE="-1" COMMENT="" />
    <EXPORT ORDINAL="14017" NAME="?WriteCount@CArchive@@QEAAX_K@Z" PURGE="-1" COMMENT="" />
    <EXPORT ORDINAL="14016" NAME="?WriteColor@XRibbonInfoParser@CMFCRibbonInfo@@UEAAHAEBV?$CStringT@DV?$StrTraitMFC_DLL@DV?$ChTraitsCRT@D@ATL@@@@@ATL@@KK@Z" PURGE="-1" COMMENT="" />
    <EXPORT ORDINAL="14015" NAME="?WriteClass@CArchive@@QEAAXPEBUCRuntimeClass@@@Z" PURGE="-1" COMMENT="" />
    <EXPORT ORDINAL="14014" NAME="?WriteBool@XRibbonInfoParser@CMFCRibbonInfo@@UEAAHAEBV?$CStringT@DV?$StrTraitMFC_DLL@DV?$ChTraitsCRT@D@ATL@@@@@ATL@@HH@Z" PURGE="-1" COMMENT="" />
    <EXPORT ORDINAL="14013" NAME="?WriteBinary@CWinAppEx@@QEAAHPEBDPEAEI@Z" PURGE="-1" COMMENT="" />
    <EXPORT ORDINAL="14012" NAME="?Write@XRibbonBar@CMFCRibbonInfo@@UEAAHAEAVXRibbonInfoParser@2@@Z" PURGE="-1" COMMENT="" />
    <EXPORT ORDINAL="14011" NAME="?Write@XQATItem@XQAT@CMFCRibbonInfo@@QEAAHAEAVXRibbonInfoParser@3@@Z" PURGE="-1" COMMENT="" />
    <EXPORT ORDINAL="14010" NAME="?Write@XQAT@CMFCRibbonInfo@@UEAAHAEAVXRibbonInfoParser@2@@Z" PURGE="-1" COMMENT="" />
    <EXPORT ORDINAL="14009" NAME="?Write@XPanel@CMFCRibbonInfo@@UEAAHAEAVXRibbonInfoParser@2@@Z" PURGE="-1" COMMENT="" />
    <EXPORT ORDINAL="14008" NAME="?Write@XImage@CMFCRibbonInfo@@QEAAHAEAVXRibbonInfoParser@2@@Z" PURGE="-1" COMMENT="" />
    <EXPORT ORDINAL="14007" NAME="?Write@XID@CMFCRibbonInfo@@QEAAHAEAVXRibbonInfoParser@2@@Z" PURGE="-1" COMMENT="" />
    <EXPORT ORDINAL="14006" NAME="?Write@XGalleryGroup@XElementButtonGallery@CMFCRibbonInfo@@QEAAHAEAVXRibbonInfoParser@3@@Z" PURGE="-1" COMMENT="" />
    <EXPORT ORDINAL="14005" NAME="?Write@XElementSlider@CMFCRibbonInfo@@UEAAHAEAVXRibbonInfoParser@2@@Z" PURGE="-1" COMMENT="" />
    <EXPORT ORDINAL="14004" NAME="?Write@XElementSeparator@CMFCRibbonInfo@@UEAAHAEAVXRibbonInfoParser@2@@Z" PURGE="-1" COMMENT="" />
    <EXPORT ORDINAL="14003" NAME="?Write@XElementProgressBar@CMFCRibbonInfo@@UEAAHAEAVXRibbonInfoParser@2@@Z" PURGE="-1" COMMENT="" />
    <EXPORT ORDINAL="14002" NAME="?Write@XElementLabel@CMFCRibbonInfo@@UEAAHAEAVXRibbonInfoParser@2@@Z" PURGE="-1" COMMENT="" />
    <EXPORT ORDINAL="14001" NAME="?Write@XElementGroup@CMFCRibbonInfo@@UEAAHAEAVXRibbonInfoParser@2@@Z" PURGE="-1" COMMENT="" />
    <EXPORT ORDINAL="14000" NAME="?Write@XElementFontComboBox@CMFCRibbonInfo@@UEAAHAEAVXRibbonInfoParser@2@@Z" PURGE="-1" COMMENT="" />
    <EXPORT ORDINAL="13999" NAME="?Write@XElementEdit@CMFCRibbonInfo@@UEAAHAEAVXRibbonInfoParser@2@@Z" PURGE="-1" COMMENT="" />
    <EXPORT ORDINAL="13998" NAME="?Write@XElementComboBox@CMFCRibbonInfo@@UEAAHAEAVXRibbonInfoParser@2@@Z" PURGE="-1" COMMENT="" />
    <EXPORT ORDINAL="13997" NAME="?Write@XElementButtonUndo@CMFCRibbonInfo@@UEAAHAEAVXRibbonInfoParser@2@@Z" PURGE="-1" COMMENT="" />
    <EXPORT ORDINAL="13996" NAME="?Write@XElementButtonMainPanel@CMFCRibbonInfo@@UEAAHAEAVXRibbonInfoParser@2@@Z" PURGE="-1" COMMENT="" />
    <EXPORT ORDINAL="13995" NAME="?Write@XElementButtonLinkCtrl@CMFCRibbonInfo@@UEAAHAEAVXRibbonInfoParser@2@@Z" PURGE="-1" COMMENT="" />
    <EXPORT ORDINAL="13994" NAME="?Write@XElementButtonLaunch@CMFCRibbonInfo@@UEAAHAEAVXRibbonInfoParser@2@@Z" PURGE="-1" COMMENT="" />
    <EXPORT ORDINAL="13993" NAME="?Write@XElementButtonGallery@CMFCRibbonInfo@@UEAAHAEAVXRibbonInfoParser@2@@Z" PURGE="-1" COMMENT="" />
    <EXPORT ORDINAL="13992" NAME="?Write@XElementButtonColor@CMFCRibbonInfo@@UEAAHAEAVXRibbonInfoParser@2@@Z" PURGE="-1" COMMENT="" />
    <EXPORT ORDINAL="13991" NAME="?Write@XElementButtonCheck@CMFCRibbonInfo@@UEAAHAEAVXRibbonInfoParser@2@@Z" PURGE="-1" COMMENT="" />
    <EXPORT ORDINAL="13990" NAME="?Write@XElementButtonApplication@CMFCRibbonInfo@@UEAAHAEAVXRibbonInfoParser@2@@Z" PURGE="-1" COMMENT="" />
    <EXPORT ORDINAL="13989" NAME="?Write@XElementButton@CMFCRibbonInfo@@UEAAHAEAVXRibbonInfoParser@2@@Z" PURGE="-1" COMMENT="" />
    <EXPORT ORDINAL="13988" NAME="?Write@XElement@CMFCRibbonInfo@@UEAAHAEAVXRibbonInfoParser@2@@Z" PURGE="-1" COMMENT="" />
    <EXPORT ORDINAL="13987" NAME="?Write@XContext@CMFCRibbonInfo@@UEAAHAEAVXRibbonInfoParser@2@@Z" PURGE="-1" COMMENT="" />
    <EXPORT ORDINAL="13986" NAME="?Write@XCategoryMain@CMFCRibbonInfo@@UEAAHAEAVXRibbonInfoParser@2@@Z" PURGE="-1" COMMENT="" />
    <EXPORT ORDINAL="13985" NAME="?Write@XCategory@CMFCRibbonInfo@@UEAAHAEAVXRibbonInfoParser@2@@Z" PURGE="-1" COMMENT="" />
    <EXPORT ORDINAL="13984" NAME="?Write@XBase@CMFCRibbonInfo@@UEAAHAEAVXRibbonInfoParser@2@@Z" PURGE="-1" COMMENT="" />
    <EXPORT ORDINAL="13983" NAME="?Write@CStdioFile@@UEAAXPEBXI@Z" PURGE="-1" COMMENT="" />
    <EXPORT ORDINAL="13982" NAME="?Write@CSocketFile@@UEAAXPEBXI@Z" PURGE="-1" COMMENT="" />
    <EXPORT ORDINAL="13981" NAME="?Write@CSettingsStore@@UEAAHPEBDPEAVCObject@@@Z" PURGE="-1" COMMENT="" />
    <EXPORT ORDINAL="13980" NAME="?Write@CSettingsStore@@UEAAHPEBDPEAEI@Z" PURGE="-1" COMMENT="" />
    <EXPORT ORDINAL="13979" NAME="?Write@CSettingsStore@@UEAAHPEBDK@Z" PURGE="-1" COMMENT="" />
    <EXPORT ORDINAL="13978" NAME="?Write@CSettingsStore@@UEAAHPEBDH@Z" PURGE="-1" COMMENT="" />
    <EXPORT ORDINAL="13977" NAME="?Write@CSettingsStore@@UEAAHPEBDAEBVCRect@@@Z" PURGE="-1" COMMENT="" />
    <EXPORT ORDINAL="13976" NAME="?Write@CSettingsStore@@UEAAHPEBDAEAVCObject@@@Z" PURGE="-1" COMMENT="" />
    <EXPORT ORDINAL="13975" NAME="?Write@CSettingsStore@@UEAAHPEBD0@Z" PURGE="-1" COMMENT="" />
    <EXPORT ORDINAL="13974" NAME="?Write@COleStreamFile@@UEAAXPEBXI@Z" PURGE="-1" COMMENT="" />
    <EXPORT ORDINAL="13970" NAME="?Write@CMemFile@@UEAAXPEBXI@Z" PURGE="-1" COMMENT="" />
    <EXPORT ORDINAL="13973" NAME="?Write@CMFCRibbonInfo@@UEAAHPEAUIStream@@@Z" PURGE="-1" COMMENT="" />
    <EXPORT ORDINAL="13972" NAME="?Write@CMFCRibbonInfo@@UEAAHPEAPEAEAEAI@Z" PURGE="-1" COMMENT="" />
    <EXPORT ORDINAL="13971" NAME="?Write@CMFCRibbonInfo@@MEAAHAEAVXRibbonInfoParser@1@@Z" PURGE="-1" COMMENT="" />
    <EXPORT ORDINAL="13969" NAME="?Write@CInternetFile@@UEAAXPEBXI@Z" PURGE="-1" COMMENT="" />
    <EXPORT ORDINAL="13968" NAME="?Write@CImageList@@QEAAHPEAVCArchive@@@Z" PURGE="-1" COMMENT="" />
    <EXPORT ORDINAL="13967" NAME="?Write@CGopherFile@@UEAAXPEBXI@Z" PURGE="-1" COMMENT="" />
    <EXPORT ORDINAL="13966" NAME="?Write@CFile@@UEAAXPEBXI@Z" PURGE="-1" COMMENT="" />
    <EXPORT ORDINAL="13965" NAME="?Write@CArchiveStream@@UEAAJPEBXKPEAK@Z" PURGE="-1" COMMENT="" />
    <EXPORT ORDINAL="13964" NAME="?Write@CArchive@@QEAAXPEBXI@Z" PURGE="-1" COMMENT="" />
    <EXPORT ORDINAL="13963" NAME="?WrapToolBar@CToolBar@@IEAAHPEAU_TBBUTTON@@HH@Z" PURGE="-1" COMMENT="" />
    <EXPORT ORDINAL="13962" NAME="?WrapToolBar@CMFCToolBar@@QEAAHHHPEAVCDC@@HH@Z" PURGE="-1" COMMENT="" />
    <EXPORT ORDINAL="13961" NAME="?WrapChanged@CRichEditView@@MEAAXXZ" PURGE="-1" COMMENT="" />
    <EXPORT ORDINAL="13948" NAME="?WindowProc@CWnd@@MEAA_JI_K_J@Z" PURGE="-1" COMMENT="" />
    <EXPORT ORDINAL="13947" NAME="?WindowProc@CReflectorWnd@@MEAA_JI_K_J@Z" PURGE="-1" COMMENT="" />
    <EXPORT ORDINAL="13946" NAME="?WindowProc@CReBar@@MEAA_JI_K_J@Z" PURGE="-1" COMMENT="" />
    <EXPORT ORDINAL="13945" NAME="?WindowProc@CParkingWnd@@UEAA_JI_K_J@Z" PURGE="-1" COMMENT="" />
    <EXPORT ORDINAL="13944" NAME="?WindowProc@COlePropertyPage@@MEAA_JI_K_J@Z" PURGE="-1" COMMENT="" />
    <EXPORT ORDINAL="13943" NAME="?WindowProc@COleControl@@UEAA_JI_K_J@Z" PURGE="-1" COMMENT="" />
    <EXPORT ORDINAL="13942" NAME="?WindowProc@CMFCShellTreeCtrl@@MEAA_JI_K_J@Z" PURGE="-1" COMMENT="" />
    <EXPORT ORDINAL="13941" NAME="?WindowProc@CMFCShellListCtrl@@MEAA_JI_K_J@Z" PURGE="-1" COMMENT="" />
    <EXPORT ORDINAL="13940" NAME="?WindowProc@CMFCRibbonBar@@MEAA_JI_K_J@Z" PURGE="-1" COMMENT="" />
    <EXPORT ORDINAL="13939" NAME="?WindowProc@CMFCReBar@@MEAA_JI_K_J@Z" PURGE="-1" COMMENT="" />
    <EXPORT ORDINAL="13938" NAME="?WindowProc@CControlBar@@UEAA_JI_K_J@Z" PURGE="-1" COMMENT="" />
    <EXPORT ORDINAL="13937" NAME="?WindowProc@CBasePane@@MEAA_JI_K_J@Z" PURGE="-1" COMMENT="" />
    <EXPORT ORDINAL="13956" NAME="?WinHelpInternal@CWnd@@UEAAX_KI@Z" PURGE="-1" COMMENT="" />
    <EXPORT ORDINAL="13955" NAME="?WinHelpInternal@CWinApp@@UEAAX_KI@Z" PURGE="-1" COMMENT="" />
    <EXPORT ORDINAL="13954" NAME="?WinHelpA@CWnd@@UEAAX_KI@Z" PURGE="-1" COMMENT="" />
    <EXPORT ORDINAL="13953" NAME="?WinHelpA@CWinApp@@UEAAX_KI@Z" PURGE="-1" COMMENT="" />
    <EXPORT ORDINAL="13952" NAME="?WinHelpA@COleIPFrameWndEx@@UEAAXKI@Z" PURGE="-1" COMMENT="" />
    <EXPORT ORDINAL="13951" NAME="?WinHelpA@COleDocIPFrameWndEx@@UEAAXKI@Z" PURGE="-1" COMMENT="" />
    <EXPORT ORDINAL="13950" NAME="?WinHelpA@CMDIFrameWndEx@@UEAAXKI@Z" PURGE="-1" COMMENT="" />
    <EXPORT ORDINAL="13949" NAME="?WinHelpA@CFrameWndEx@@UEAAXKI@Z" PURGE="-1" COMMENT="" />
    <EXPORT ORDINAL="13936" NAME="?WillAmbientsBeValidDuringLoad@COleControl@@QEAAHXZ" PURGE="-1" COMMENT="" />
    <EXPORT ORDINAL="13935" NAME="?Widen@CD2DGeometry@@QEBAHMPEAUID2D1StrokeStyle@@AEBUD2D_MATRIX_3X2_F@@PEAUID2D1SimplifiedGeometrySink@@M@Z" PURGE="-1" COMMENT="" />
    <EXPORT ORDINAL="13934" NAME="?WalkPreTranslateTree@CWnd@@SAHPEAUHWND__@@PEAUtagMSG@@@Z" PURGE="-1" COMMENT="" />
    <EXPORT ORDINAL="13932" NAME="?VerifyUserLicense@COleObjectFactory@@MEAAHXZ" PURGE="-1" COMMENT="" />
    <EXPORT ORDINAL="13931" NAME="?VerifyResource@CRenderTarget@@IEAAHPEAVCD2DResource@@@Z" PURGE="-1" COMMENT="" />
    <EXPORT ORDINAL="13930" NAME="?VerifyLicenseKey@COleObjectFactory@@MEAAHPEA_W@Z" PURGE="-1" COMMENT="" />
    <EXPORT ORDINAL="13929" NAME="?VerifyDriverBehavior@CRecordset@@IEAAXXZ" PURGE="-1" COMMENT="" />
    <EXPORT ORDINAL="13928" NAME="?VerifyCursorSupport@CRecordset@@IEAAKXZ" PURGE="-1" COMMENT="" />
    <EXPORT ORDINAL="13927" NAME="?VerifyConnect@CDatabase@@IEAAXXZ" PURGE="-1" COMMENT="" />
    <EXPORT ORDINAL="13933" NAME="?VKeyToItem@CListBox@@UEAAHII@Z" PURGE="-1" COMMENT="" />
    <EXPORT ORDINAL="13925" NAME="?UpdateVisibleState@CMFCAutoHideBar@@QEAAXXZ" PURGE="-1" COMMENT="" />
    <EXPORT ORDINAL="13924" NAME="?UpdateVisibleState@CDockingPanesRow@@UEAAXH@Z" PURGE="-1" COMMENT="" />
    <EXPORT ORDINAL="13923" NAME="?UpdateVisibleLock@COleLinkingDoc@@IEAAXHH@Z" PURGE="-1" COMMENT="" />
    <EXPORT ORDINAL="13922" NAME="?UpdateVirtualRect@CPane@@QEAAXXZ" PURGE="-1" COMMENT="" />
    <EXPORT ORDINAL="13921" NAME="?UpdateVirtualRect@CPane@@QEAAXVCSize@@@Z" PURGE="-1" COMMENT="" />
    <EXPORT ORDINAL="13920" NAME="?UpdateVirtualRect@CPane@@QEAAXVCPoint@@@Z" PURGE="-1" COMMENT="" />
    <EXPORT ORDINAL="13919" NAME="?UpdateUsingHostObj@COleServerDoc@@IEAAXIPEAVCCmdUI@@@Z" PURGE="-1" COMMENT="" />
    <EXPORT ORDINAL="13918" NAME="?UpdateUI@XDocHostUIHandler@CHtmlControlSite@@UEAAJXZ" PURGE="-1" COMMENT="" />
    <EXPORT ORDINAL="13917" NAME="?UpdateUI@CDHtmlDialog@@UEAAJXZ" PURGE="-1" COMMENT="" />
    <EXPORT ORDINAL="13916" NAME="?UpdateUI@CBrowserControlSite@@MEAAJXZ" PURGE="-1" COMMENT="" />
    <EXPORT ORDINAL="13915" NAME="?UpdateTransparency@CMFCRibbonMiniToolBar@@IEAAHXZ" PURGE="-1" COMMENT="" />
    <EXPORT ORDINAL="13913" NAME="?UpdateTooltips@CTooltipManager@@QEAAXXZ" PURGE="-1" COMMENT="" />
    <EXPORT ORDINAL="13912" NAME="?UpdateTooltips@CPaneFrameWnd@@IEAAXXZ" PURGE="-1" COMMENT="" />
    <EXPORT ORDINAL="13911" NAME="?UpdateTooltips@CMFCToolBar@@IEAAXXZ" PURGE="-1" COMMENT="" />
    <EXPORT ORDINAL="13910" NAME="?UpdateTooltips@CMFCCaptionBar@@IEAAXXZ" PURGE="-1" COMMENT="" />
    <EXPORT ORDINAL="13909" NAME="?UpdateTooltips@CDockablePane@@IEAAXXZ" PURGE="-1" COMMENT="" />
    <EXPORT ORDINAL="13908" NAME="?UpdateTooltipInfo@CMFCRibbonBaseElement@@UEAAXXZ" PURGE="-1" COMMENT="" />
    <EXPORT ORDINAL="13914" NAME="?UpdateToolTipsRect@CMFCRibbonBar@@IEAAXXZ" PURGE="-1" COMMENT="" />
    <EXPORT ORDINAL="13907" NAME="?UpdateTipText@CToolTipCtrl@@QEAAXPEBDPEAVCWnd@@_K@Z" PURGE="-1" COMMENT="" />
    <EXPORT ORDINAL="13906" NAME="?UpdateTipText@CToolTipCtrl@@QEAAXIPEAVCWnd@@_K@Z" PURGE="-1" COMMENT="" />
    <EXPORT ORDINAL="13905" NAME="?UpdateTextMetrics@AFX_GLOBAL_DATA@@IEAAXXZ" PURGE="-1" COMMENT="" />
    <EXPORT ORDINAL="13904" NAME="?UpdateTaskbarTabIcon@CMDIChildWndEx@@UEAAXPEAUHICON__@@@Z" PURGE="-1" COMMENT="" />
    <EXPORT ORDINAL="13903" NAME="?UpdateTabs@CMDIClientAreaWnd@@QEAAXH@Z" PURGE="-1" COMMENT="" />
    <EXPORT ORDINAL="13902" NAME="?UpdateSystemColors@CMFCBaseVisualManager@@IEAAXXZ" PURGE="-1" COMMENT="" />
    <EXPORT ORDINAL="13901" NAME="?UpdateSysColors@AFX_GLOBAL_DATA@@QEAAXXZ" PURGE="-1" COMMENT="" />
    <EXPORT ORDINAL="13900" NAME="?UpdateState@CDockContext@@QEAAXPEAHH@Z" PURGE="-1" COMMENT="" />
    <EXPORT ORDINAL="13899" NAME="?UpdateShadow@CMFCPopupMenu@@QEAAXPEAUtagRECT@@@Z" PURGE="-1" COMMENT="" />
    <EXPORT ORDINAL="13898" NAME="?UpdateScrollButtonsState@CMFCTabCtrl@@IEAAXXZ" PURGE="-1" COMMENT="" />
    <EXPORT ORDINAL="13897" NAME="?UpdateScrollButtons@CMFCRibbonCategory@@IEAAXXZ" PURGE="-1" COMMENT="" />
    <EXPORT ORDINAL="13896" NAME="?UpdateRegistryAll@COleObjectFactory@@SAHH@Z" PURGE="-1" COMMENT="" />
    <EXPORT ORDINAL="13895" NAME="?UpdateRegistry@COleTemplateServer@@QEAAXW4OLE_APPTYPE@@PEAPEBD1H@Z" PURGE="-1" COMMENT="" />
    <EXPORT ORDINAL="13894" NAME="?UpdateRegistry@COleObjectFactory@@QEAAXPEBD@Z" PURGE="-1" COMMENT="" />
    <EXPORT ORDINAL="13893" NAME="?UpdateRegistry@COleObjectFactory@@MEAAHH@Z" PURGE="-1" COMMENT="" />
    <EXPORT ORDINAL="13892" NAME="?UpdatePrinterSelection@CWinApp@@IEAAXH@Z" PURGE="-1" COMMENT="" />
    <EXPORT ORDINAL="13890" NAME="?UpdateObjectCache@CRichEditDoc@@IEAAXXZ" PURGE="-1" COMMENT="" />
    <EXPORT ORDINAL="13891" NAME="?UpdateOFNFromShellDialog@CFileDialog@@UEAAXXZ" PURGE="-1" COMMENT="" />
    <EXPORT ORDINAL="13889" NAME="?UpdateModifiedFlag@CRichEditDoc@@UEAAXXZ" PURGE="-1" COMMENT="" />
    <EXPORT ORDINAL="13888" NAME="?UpdateModifiedFlag@COleDocument@@UEAAXXZ" PURGE="-1" COMMENT="" />
    <EXPORT ORDINAL="13887" NAME="?UpdateMenuShadow@CMFCRibbonKeyTip@@IEAAXXZ" PURGE="-1" COMMENT="" />
    <EXPORT ORDINAL="13886" NAME="?UpdateMenuButtonText@CMFCTasksPaneToolBar@@QEAAXAEBV?$CStringT@DV?$StrTraitMFC_DLL@DV?$ChTraitsCRT@D@ATL@@@@@ATL@@@Z" PURGE="-1" COMMENT="" />
    <EXPORT ORDINAL="13885" NAME="?UpdateMenu@CRecentFileList@@UEAAXPEAVCCmdUI@@@Z" PURGE="-1" COMMENT="" />
    <EXPORT ORDINAL="13884" NAME="?UpdateMDITabbedGroups@CMDIClientAreaWnd@@QEAAXH@Z" PURGE="-1" COMMENT="" />
    <EXPORT ORDINAL="13883" NAME="?UpdateMDITabbedBarsIcons@CMDIFrameWndEx@@QEAAXXZ" PURGE="-1" COMMENT="" />
    <EXPORT ORDINAL="13882" NAME="?UpdateMDIChildrenMenus@CMFCMenuBar@@KAXPEAVCMultiDocTemplate@@@Z" PURGE="-1" COMMENT="" />
    <EXPORT ORDINAL="13881" NAME="?UpdateLink@COleUILinkInfo@@UEAAJKHH@Z" PURGE="-1" COMMENT="" />
    <EXPORT ORDINAL="13880" NAME="?UpdateLink@COleClientItem@@QEAAHXZ" PURGE="-1" COMMENT="" />
    <EXPORT ORDINAL="13879" NAME="?UpdateLayered@CSmartDockingStandaloneGuideWnd@@QEAAXXZ" PURGE="-1" COMMENT="" />
    <EXPORT ORDINAL="13878" NAME="?UpdateItemType@COleClientItem@@QEAAXXZ" PURGE="-1" COMMENT="" />
    <EXPORT ORDINAL="13877" NAME="?UpdateInternalImage@CMFCToolBarImages@@IEAAHH@Z" PURGE="-1" COMMENT="" />
    <EXPORT ORDINAL="13876" NAME="?UpdateInsertDelete@CRecordset@@IEAAHXZ" PURGE="-1" COMMENT="" />
    <EXPORT ORDINAL="13875" NAME="?UpdateImagesColor@CMFCToolBar@@IEAAXXZ" PURGE="-1" COMMENT="" />
    <EXPORT ORDINAL="13874" NAME="?UpdateImage@CMFCToolBarImages@@QEAAHHPEAUHBITMAP__@@@Z" PURGE="-1" COMMENT="" />
    <EXPORT ORDINAL="13873" NAME="?UpdateFrameTitleForDocument@CFrameWnd@@QEAAXPEBD@Z" PURGE="-1" COMMENT="" />
    <EXPORT ORDINAL="13872" NAME="?UpdateFrameCounts@CDocument@@UEAAXXZ" PURGE="-1" COMMENT="" />
    <EXPORT ORDINAL="13871" NAME="?UpdateFonts@AFX_GLOBAL_DATA@@QEAAXXZ" PURGE="-1" COMMENT="" />
    <EXPORT ORDINAL="13870" NAME="?UpdateDocumentInfo@CDataRecoveryHandler@@UEAAHPEAVCDocument@@@Z" PURGE="-1" COMMENT="" />
    <EXPORT ORDINAL="13869" NAME="?UpdateDialogControls@CWnd@@QEAAXPEAVCCmdTarget@@H@Z" PURGE="-1" COMMENT="" />
    <EXPORT ORDINAL="13868" NAME="?UpdateData@CWnd@@QEAAHH@Z" PURGE="-1" COMMENT="" />
    <EXPORT ORDINAL="13867" NAME="?UpdateCustomizeButton@CMFCCustomizeMenuButton@@IEAAXXZ" PURGE="-1" COMMENT="" />
    <EXPORT ORDINAL="13866" NAME="?UpdateCursor@CDataSourceControl@@UEAAJXZ" PURGE="-1" COMMENT="" />
    <EXPORT ORDINAL="13865" NAME="?UpdateCount@CMFCToolBarImages@@IEAAXXZ" PURGE="-1" COMMENT="" />
    <EXPORT ORDINAL="13864" NAME="?UpdateControls@CDataSourceControl@@UEAAJXZ" PURGE="-1" COMMENT="" />
    <EXPORT ORDINAL="13863" NAME="?UpdateColor@CMFCRibbonColorButton@@QEAAXK@Z" PURGE="-1" COMMENT="" />
    <EXPORT ORDINAL="13862" NAME="?UpdateColor@CMFCPropertyGridCtrl@@UEAAXK@Z" PURGE="-1" COMMENT="" />
    <EXPORT ORDINAL="13861" NAME="?UpdateColor@CMFCColorButton@@MEAAXK@Z" PURGE="-1" COMMENT="" />
    <EXPORT ORDINAL="13860" NAME="?UpdateClientEdge@CMDIChildWnd@@IEAAHPEAUtagRECT@@@Z" PURGE="-1" COMMENT="" />
    <EXPORT ORDINAL="13859" NAME="?UpdateCaption@CMFCTasksPane@@IEAAXXZ" PURGE="-1" COMMENT="" />
    <EXPORT ORDINAL="13858" NAME="?UpdateCaption@CFrameImpl@@IEAAXXZ" PURGE="-1" COMMENT="" />
    <EXPORT ORDINAL="13857" NAME="?UpdateButtons@CMFCWindowsManagerDialog@@IEAAXXZ" PURGE="-1" COMMENT="" />
    <EXPORT ORDINAL="13856" NAME="?UpdateButtons@CMFCTasksPaneToolBar@@QEAAXXZ" PURGE="-1" COMMENT="" />
    <EXPORT ORDINAL="13855" NAME="?UpdateButton@CMFCToolBar@@QEAAXH@Z" PURGE="-1" COMMENT="" />
    <EXPORT ORDINAL="13854" NAME="?UpdateBottomWindows@CMFCPopupMenu@@IEAAXH@Z" PURGE="-1" COMMENT="" />
    <EXPORT ORDINAL="13853" NAME="?UpdateBars@CScrollView@@IEAAXXZ" PURGE="-1" COMMENT="" />
    <EXPORT ORDINAL="13852" NAME="?UpdateAnimationManager@CAnimationController@@UEAAXXZ" PURGE="-1" COMMENT="" />
    <EXPORT ORDINAL="13851" NAME="?UpdateAllViews@CDocument@@QEAAXPEAVCView@@_JPEAVCObject@@@Z" PURGE="-1" COMMENT="" />
    <EXPORT ORDINAL="13850" NAME="?UpdateAllShadows@CMFCPopupMenu@@SAXPEAUtagRECT@@@Z" PURGE="-1" COMMENT="" />
    <EXPORT ORDINAL="13849" NAME="?UpdateAllPanes@CStatusBar@@IEAAXHH@Z" PURGE="-1" COMMENT="" />
    <EXPORT ORDINAL="13848" NAME="?UpdateAllItems@COleServerDoc@@QEAAXPEAVCOleServerItem@@_JPEAVCObject@@W4tagDVASPECT@@@Z" PURGE="-1" COMMENT="" />
    <EXPORT ORDINAL="13847" NAME="?UpdateAccelTable@CKeyboardManager@@QEAAHPEAVCMultiDocTemplate@@PEAUtagACCEL@@HPEAVCFrameWnd@@@Z" PURGE="-1" COMMENT="" />
    <EXPORT ORDINAL="13846" NAME="?UpdateAccelTable@CKeyboardManager@@QEAAHPEAVCMultiDocTemplate@@PEAUHACCEL__@@PEAVCFrameWnd@@@Z" PURGE="-1" COMMENT="" />
    <EXPORT ORDINAL="13845" NAME="?Update@XOleObject@COleServerItem@@UEAAJXZ" PURGE="-1" COMMENT="" />
    <EXPORT ORDINAL="13844" NAME="?Update@XOleObject@COleServerDoc@@UEAAJXZ" PURGE="-1" COMMENT="" />
    <EXPORT ORDINAL="13843" NAME="?Update@XOleObject@COleControl@@UEAAJXZ" PURGE="-1" COMMENT="" />
    <EXPORT ORDINAL="13842" NAME="?Update@XOleObject@CDocObjectServer@@UEAAJXZ" PURGE="-1" COMMENT="" />
    <EXPORT ORDINAL="13841" NAME="?Update@CSmartDockingGroupGuidesWnd@@QEAAXXZ" PURGE="-1" COMMENT="" />
    <EXPORT ORDINAL="13840" NAME="?Update@CRecordset@@UEAAHXZ" PURGE="-1" COMMENT="" />
    <EXPORT ORDINAL="13839" NAME="?Update@CMFCTasksPane@@UEAAXXZ" PURGE="-1" COMMENT="" />
    <EXPORT ORDINAL="13838" NAME="?UnsubclassWindow@CWnd@@QEAAPEAUHWND__@@XZ" PURGE="-1" COMMENT="" />
    <EXPORT ORDINAL="13833" NAME="?UnregisterTaskbarTab@CMDIChildWndEx@@QEAAXH@Z" PURGE="-1" COMMENT="" />
    <EXPORT ORDINAL="13832" NAME="?UnregisterSiteFactory@CControlSiteFactoryMgr@@QEAAHPEAVIControlSiteFactory@@@Z" PURGE="-1" COMMENT="" />
    <EXPORT ORDINAL="13831" NAME="?UnregisterShellFileTypes@CWinApp@@IEAAXXZ" PURGE="-1" COMMENT="" />
    <EXPORT ORDINAL="13830" NAME="?UnregisterShellFileTypes@CDocManager@@QEAAXXZ" PURGE="-1" COMMENT="" />
    <EXPORT ORDINAL="13829" NAME="?UnregisterAll@COleObjectFactory@@SAHXZ" PURGE="-1" COMMENT="" />
    <EXPORT ORDINAL="13828" NAME="?Unregister@CWinApp@@UEAAHXZ" PURGE="-1" COMMENT="" />
    <EXPORT ORDINAL="13827" NAME="?Unregister@COleTemplateServer@@QEAAHXZ" PURGE="-1" COMMENT="" />
    <EXPORT ORDINAL="13826" NAME="?Unregister@COleObjectFactory@@QEAAHXZ" PURGE="-1" COMMENT="" />
    <EXPORT ORDINAL="13825" NAME="?UnlockRenderTarget@CWnd@@QEAAXXZ" PURGE="-1" COMMENT="" />
    <EXPORT ORDINAL="13824" NAME="?UnlockRegion@CArchiveStream@@UEAAJT_ULARGE_INTEGER@@0K@Z" PURGE="-1" COMMENT="" />
    <EXPORT ORDINAL="13823" NAME="?UnlockRange@CStdioFile@@UEAAX_K0@Z" PURGE="-1" COMMENT="" />
    <EXPORT ORDINAL="13822" NAME="?UnlockRange@CSocketFile@@UEAAX_K0@Z" PURGE="-1" COMMENT="" />
    <EXPORT ORDINAL="13821" NAME="?UnlockRange@COleStreamFile@@UEAAX_K0@Z" PURGE="-1" COMMENT="" />
    <EXPORT ORDINAL="13820" NAME="?UnlockRange@CMemFile@@UEAAX_K0@Z" PURGE="-1" COMMENT="" />
    <EXPORT ORDINAL="13819" NAME="?UnlockRange@CInternetFile@@UEAAX_K0@Z" PURGE="-1" COMMENT="" />
    <EXPORT ORDINAL="13818" NAME="?UnlockRange@CFile@@UEAAX_K0@Z" PURGE="-1" COMMENT="" />
    <EXPORT ORDINAL="13817" NAME="?UnlockBuffer@CEditView@@QEBAXXZ" PURGE="-1" COMMENT="" />
    <EXPORT ORDINAL="13815" NAME="?UnlockBuffer@?$CSimpleStringT@_W$00@ATL@@QEAAXXZ" PURGE="-1" COMMENT="" />
    <EXPORT ORDINAL="13816" NAME="?UnlockBuffer@?$CSimpleStringT@D$00@ATL@@QEAAXXZ" PURGE="-1" COMMENT="" />
    <EXPORT ORDINAL="13814" NAME="?Unlock@CTypeLibCache@@QEAAXXZ" PURGE="-1" COMMENT="" />
    <EXPORT ORDINAL="13813" NAME="?Unlock@CSingleLock@@QEAAHXZ" PURGE="-1" COMMENT="" />
    <EXPORT ORDINAL="13812" NAME="?Unlock@CSingleLock@@QEAAHJPEAJ@Z" PURGE="-1" COMMENT="" />
    <EXPORT ORDINAL="13811" NAME="?Unlock@CSemaphore@@UEAAHJPEAJ@Z" PURGE="-1" COMMENT="" />
    <EXPORT ORDINAL="13810" NAME="?Unlock@COleSafeArray@@QEAAXXZ" PURGE="-1" COMMENT="" />
    <EXPORT ORDINAL="13809" NAME="?Unlock@CMutex@@UEAAHXZ" PURGE="-1" COMMENT="" />
    <EXPORT ORDINAL="13808" NAME="?Unlock@CMultiLock@@QEAAHXZ" PURGE="-1" COMMENT="" />
    <EXPORT ORDINAL="13807" NAME="?Unlock@CMultiLock@@QEAAHJPEAJ@Z" PURGE="-1" COMMENT="" />
    <EXPORT ORDINAL="13806" NAME="?Unlock@CEvent@@UEAAHXZ" PURGE="-1" COMMENT="" />
    <EXPORT ORDINAL="13805" NAME="?Unload@XPreviewHandler@CDocument@@UEAAJXZ" PURGE="-1" COMMENT="" />
    <EXPORT ORDINAL="13804" NAME="?Unfreeze@XViewObject@COleControl@@UEAAJK@Z" PURGE="-1" COMMENT="" />
    <EXPORT ORDINAL="13803" NAME="?UndockPane@CPane@@UEAAXH@Z" PURGE="-1" COMMENT="" />
    <EXPORT ORDINAL="13802" NAME="?UndockPane@CDockablePane@@UEAAXH@Z" PURGE="-1" COMMENT="" />
    <EXPORT ORDINAL="13801" NAME="?UndockAndHidePanes@CFullScreenImpl@@IEAAXPEAVCFrameWnd@@@Z" PURGE="-1" COMMENT="" />
    <EXPORT ORDINAL="13800" NAME="?UncheckRadioButtonsInGroup@CMFCButton@@IEAAXXZ" PURGE="-1" COMMENT="" />
    <EXPORT ORDINAL="13799" NAME="?Uncache@XOleCache@COleControl@@UEAAJK@Z" PURGE="-1" COMMENT="" />
    <EXPORT ORDINAL="13798" NAME="?UnbindFieldsForUpdate@CRecordset@@QEAAXXZ" PURGE="-1" COMMENT="" />
    <EXPORT ORDINAL="13797" NAME="?Unadvise@XOleObject@COleServerItem@@UEAAJK@Z" PURGE="-1" COMMENT="" />
    <EXPORT ORDINAL="13796" NAME="?Unadvise@XOleObject@COleServerDoc@@UEAAJK@Z" PURGE="-1" COMMENT="" />
    <EXPORT ORDINAL="13795" NAME="?Unadvise@XOleObject@COleControl@@UEAAJK@Z" PURGE="-1" COMMENT="" />
    <EXPORT ORDINAL="13794" NAME="?Unadvise@XOleObject@CDocObjectServer@@UEAAJK@Z" PURGE="-1" COMMENT="" />
    <EXPORT ORDINAL="13793" NAME="?Unadvise@XConnPt@CConnectionPoint@@UEAAJK@Z" PURGE="-1" COMMENT="" />
    <EXPORT ORDINAL="13791" NAME="?UnaccessData@COleSafeArray@@QEAAXXZ" PURGE="-1" COMMENT="" />
    <EXPORT ORDINAL="13837" NAME="?UnSetAutoHideMode@CMFCAutoHideButton@@UEAAXPEAVCDockablePane@@@Z" PURGE="-1" COMMENT="" />
    <EXPORT ORDINAL="13836" NAME="?UnSetAutoHideMode@CMFCAutoHideBar@@QEAAXPEAVCDockablePane@@@Z" PURGE="-1" COMMENT="" />
    <EXPORT ORDINAL="13835" NAME="?UnSetAutoHideMode@CDockablePane@@UEAAXPEAV1@@Z" PURGE="-1" COMMENT="" />
    <EXPORT ORDINAL="13834" NAME="?UnSetAutoHideMode@CAutoHideDockSite@@QEAAXPEAVCMFCAutoHideBar@@@Z" PURGE="-1" COMMENT="" />
    <EXPORT ORDINAL="13792" NAME="?UnAdvise@CDHtmlElementEventSink@@QEAAJPEAUIUnknown@@AEBU_GUID@@@Z" PURGE="-1" COMMENT="" />
    <EXPORT ORDINAL="13926" NAME="?UTF8ToString@CMFCControlContainer@@SAHPEBDAEAV?$CStringT@DV?$StrTraitMFC_DLL@DV?$ChTraitsCRT@D@ATL@@@@@ATL@@H@Z" PURGE="-1" COMMENT="" />
    <EXPORT ORDINAL="13790" NAME="?UIDeactivateIfNecessary@COccManager@@KAXPEAVCWnd@@0@Z" PURGE="-1" COMMENT="" />
    <EXPORT ORDINAL="13789" NAME="?UIDeactivate@XOleInPlaceObject@COleServerDoc@@UEAAJXZ" PURGE="-1" COMMENT="" />
    <EXPORT ORDINAL="13788" NAME="?UIDeactivate@XOleInPlaceObject@COleControl@@UEAAJXZ" PURGE="-1" COMMENT="" />
    <EXPORT ORDINAL="13787" NAME="?UIActivateControl@COccManager@@KAXPEAVCWnd@@@Z" PURGE="-1" COMMENT="" />
    <EXPORT ORDINAL="13786" NAME="?UIActivate@XOleDocumentView@CDocObjectServer@@UEAAJH@Z" PURGE="-1" COMMENT="" />
    <EXPORT ORDINAL="13785" NAME="?TwipsToPointString@CMFCToolBarFontSizeComboBox@@IEAA?AV?$CStringT@DV?$StrTraitMFC_DLL@DV?$ChTraitsCRT@D@ATL@@@@@ATL@@H@Z" PURGE="-1" COMMENT="" />
    <EXPORT ORDINAL="13783" NAME="?Truncate@?$CSimpleStringT@_W$00@ATL@@QEAAXH@Z" PURGE="-1" COMMENT="" />
    <EXPORT ORDINAL="13784" NAME="?Truncate@?$CSimpleStringT@D$00@ATL@@QEAAXH@Z" PURGE="-1" COMMENT="" />
    <EXPORT ORDINAL="13777" NAME="?TrimRight@?$CStringT@_WV?$StrTraitMFC_DLL@_WV?$ChTraitsCRT@_W@ATL@@@@@ATL@@QEAAAEAV12@_W@Z" PURGE="-1" COMMENT="" />
    <EXPORT ORDINAL="13779" NAME="?TrimRight@?$CStringT@_WV?$StrTraitMFC_DLL@_WV?$ChTraitsCRT@_W@ATL@@@@@ATL@@QEAAAEAV12@XZ" PURGE="-1" COMMENT="" />
    <EXPORT ORDINAL="13778" NAME="?TrimRight@?$CStringT@_WV?$StrTraitMFC_DLL@_WV?$ChTraitsCRT@_W@ATL@@@@@ATL@@QEAAAEAV12@PEB_W@Z" PURGE="-1" COMMENT="" />
    <EXPORT ORDINAL="13782" NAME="?TrimRight@?$CStringT@DV?$StrTraitMFC_DLL@DV?$ChTraitsCRT@D@ATL@@@@@ATL@@QEAAAEAV12@XZ" PURGE="-1" COMMENT="" />
    <EXPORT ORDINAL="13781" NAME="?TrimRight@?$CStringT@DV?$StrTraitMFC_DLL@DV?$ChTraitsCRT@D@ATL@@@@@ATL@@QEAAAEAV12@PEBD@Z" PURGE="-1" COMMENT="" />
    <EXPORT ORDINAL="13780" NAME="?TrimRight@?$CStringT@DV?$StrTraitMFC_DLL@DV?$ChTraitsCRT@D@ATL@@@@@ATL@@QEAAAEAV12@D@Z" PURGE="-1" COMMENT="" />
    <EXPORT ORDINAL="13771" NAME="?TrimLeft@?$CStringT@_WV?$StrTraitMFC_DLL@_WV?$ChTraitsCRT@_W@ATL@@@@@ATL@@QEAAAEAV12@_W@Z" PURGE="-1" COMMENT="" />
    <EXPORT ORDINAL="13773" NAME="?TrimLeft@?$CStringT@_WV?$StrTraitMFC_DLL@_WV?$ChTraitsCRT@_W@ATL@@@@@ATL@@QEAAAEAV12@XZ" PURGE="-1" COMMENT="" />
    <EXPORT ORDINAL="13772" NAME="?TrimLeft@?$CStringT@_WV?$StrTraitMFC_DLL@_WV?$ChTraitsCRT@_W@ATL@@@@@ATL@@QEAAAEAV12@PEB_W@Z" PURGE="-1" COMMENT="" />
    <EXPORT ORDINAL="13776" NAME="?TrimLeft@?$CStringT@DV?$StrTraitMFC_DLL@DV?$ChTraitsCRT@D@ATL@@@@@ATL@@QEAAAEAV12@XZ" PURGE="-1" COMMENT="" />
    <EXPORT ORDINAL="13775" NAME="?TrimLeft@?$CStringT@DV?$StrTraitMFC_DLL@DV?$ChTraitsCRT@D@ATL@@@@@ATL@@QEAAAEAV12@PEBD@Z" PURGE="-1" COMMENT="" />
    <EXPORT ORDINAL="13774" NAME="?TrimLeft@?$CStringT@DV?$StrTraitMFC_DLL@DV?$ChTraitsCRT@D@ATL@@@@@ATL@@QEAAAEAV12@D@Z" PURGE="-1" COMMENT="" />
    <EXPORT ORDINAL="13765" NAME="?Trim@?$CStringT@_WV?$StrTraitMFC_DLL@_WV?$ChTraitsCRT@_W@ATL@@@@@ATL@@QEAAAEAV12@_W@Z" PURGE="-1" COMMENT="" />
    <EXPORT ORDINAL="13767" NAME="?Trim@?$CStringT@_WV?$StrTraitMFC_DLL@_WV?$ChTraitsCRT@_W@ATL@@@@@ATL@@QEAAAEAV12@XZ" PURGE="-1" COMMENT="" />
    <EXPORT ORDINAL="13766" NAME="?Trim@?$CStringT@_WV?$StrTraitMFC_DLL@_WV?$ChTraitsCRT@_W@ATL@@@@@ATL@@QEAAAEAV12@PEB_W@Z" PURGE="-1" COMMENT="" />
    <EXPORT ORDINAL="13770" NAME="?Trim@?$CStringT@DV?$StrTraitMFC_DLL@DV?$ChTraitsCRT@D@ATL@@@@@ATL@@QEAAAEAV12@XZ" PURGE="-1" COMMENT="" />
    <EXPORT ORDINAL="13769" NAME="?Trim@?$CStringT@DV?$StrTraitMFC_DLL@DV?$ChTraitsCRT@D@ATL@@@@@ATL@@QEAAAEAV12@PEBD@Z" PURGE="-1" COMMENT="" />
    <EXPORT ORDINAL="13768" NAME="?Trim@?$CStringT@DV?$StrTraitMFC_DLL@DV?$ChTraitsCRT@D@ATL@@@@@ATL@@QEAAAEAV12@D@Z" PURGE="-1" COMMENT="" />
    <EXPORT ORDINAL="13764" NAME="?TriggerResize@CMFCPopupMenu@@QEAAXXZ" PURGE="-1" COMMENT="" />
    <EXPORT ORDINAL="13763" NAME="?TransparentBlt@CMFCToolBarImages@@KAXPEAUHDC__@@HHHHPEAVCDC@@HHKHH@Z" PURGE="-1" COMMENT="" />
    <EXPORT ORDINAL="13762" NAME="?TranslateUrl@XDocHostUIHandler@CHtmlControlSite@@UEAAJKPEA_WPEAPEA_W@Z" PURGE="-1" COMMENT="" />
    <EXPORT ORDINAL="13761" NAME="?TranslateUrl@CDHtmlDialog@@UEAAJKPEA_WPEAPEA_W@Z" PURGE="-1" COMMENT="" />
    <EXPORT ORDINAL="13760" NAME="?TranslateUrl@CBrowserControlSite@@MEAAJKPEA_WPEAPEA_W@Z" PURGE="-1" COMMENT="" />
    <EXPORT ORDINAL="13759" NAME="?TranslateColor@COleControl@@QEAAKKPEAUHPALETTE__@@@Z" PURGE="-1" COMMENT="" />
    <EXPORT ORDINAL="13758" NAME="?TranslateCharToUpper@CKeyboardManager@@SAII@Z" PURGE="-1" COMMENT="" />
    <EXPORT ORDINAL="13757" NAME="?TranslateChar@CMFCToolBar@@UEAAHI@Z" PURGE="-1" COMMENT="" />
    <EXPORT ORDINAL="13756" NAME="?TranslateChar@CMFCRibbonBar@@UEAAHI@Z" PURGE="-1" COMMENT="" />
    <EXPORT ORDINAL="13755" NAME="?TranslateAcceleratorA@XPropertyPage@COlePropertyPage@@UEAAJPEAUtagMSG@@@Z" PURGE="-1" COMMENT="" />
    <EXPORT ORDINAL="13754" NAME="?TranslateAcceleratorA@XPreviewHandler@CDocument@@UEAAJPEAUtagMSG@@@Z" PURGE="-1" COMMENT="" />
    <EXPORT ORDINAL="13752" NAME="?TranslateAcceleratorA@XOleInPlaceFrame@COleFrameHook@@UEAAJPEAUtagMSG@@G@Z" PURGE="-1" COMMENT="" />
    <EXPORT ORDINAL="13751" NAME="?TranslateAcceleratorA@XOleInPlaceActiveObject@COleServerDoc@@UEAAJPEAUtagMSG@@@Z" PURGE="-1" COMMENT="" />
    <EXPORT ORDINAL="13750" NAME="?TranslateAcceleratorA@XOleInPlaceActiveObject@COleControl@@UEAAJPEAUtagMSG@@@Z" PURGE="-1" COMMENT="" />
    <EXPORT ORDINAL="13753" NAME="?TranslateAcceleratorA@XOleIPFrame@COleControlContainer@@UEAAJPEAUtagMSG@@G@Z" PURGE="-1" COMMENT="" />
    <EXPORT ORDINAL="13749" NAME="?TranslateAcceleratorA@XOleControlSite@COleControlSite@@UEAAJPEAUtagMSG@@K@Z" PURGE="-1" COMMENT="" />
    <EXPORT ORDINAL="13748" NAME="?TranslateAcceleratorA@XDocHostUIHandler@CHtmlControlSite@@UEAAJPEAUtagMSG@@PEBU_GUID@@K@Z" PURGE="-1" COMMENT="" />
    <EXPORT ORDINAL="13747" NAME="?TranslateAcceleratorA@CDHtmlDialog@@UEAAJPEAUtagMSG@@PEBU_GUID@@K@Z" PURGE="-1" COMMENT="" />
    <EXPORT ORDINAL="13746" NAME="?TranslateAcceleratorA@CBrowserControlSite@@MEAAJPEAUtagMSG@@PEBU_GUID@@K@Z" PURGE="-1" COMMENT="" />
    <EXPORT ORDINAL="13745" NAME="?TransformCoords@XOleControlSite@COleControlSite@@UEAAJPEAU_POINTL@@PEAUtagPOINTF@@K@Z" PURGE="-1" COMMENT="" />
    <EXPORT ORDINAL="13744" NAME="?TransformCoords@COleControl@@QEAAXPEAU_POINTL@@PEAUtagPOINTF@@K@Z" PURGE="-1" COMMENT="" />
    <EXPORT ORDINAL="13743" NAME="?TrackToolTip@CMFCPropertyGridCtrl@@IEAAXVCPoint@@@Z" PURGE="-1" COMMENT="" />
    <EXPORT ORDINAL="13742" NAME="?TrackRubberBand@CRectTracker@@QEAAHPEAVCWnd@@VCPoint@@H@Z" PURGE="-1" COMMENT="" />
    <EXPORT ORDINAL="13741" NAME="?TrackRowSize@CSplitterWnd@@MEAAXHH@Z" PURGE="-1" COMMENT="" />
    <EXPORT ORDINAL="13740" NAME="?TrackPopupMenuEx@CMenu@@QEAAHIHHPEAVCWnd@@PEAUtagTPMPARAMS@@@Z" PURGE="-1" COMMENT="" />
    <EXPORT ORDINAL="13739" NAME="?TrackPopupMenu@CMenu@@QEAAHIHHPEAVCWnd@@PEBUtagRECT@@@Z" PURGE="-1" COMMENT="" />
    <EXPORT ORDINAL="13738" NAME="?TrackPopupMenu@CContextMenuManager@@UEAAIPEAUHMENU__@@HHPEAVCWnd@@H@Z" PURGE="-1" COMMENT="" />
    <EXPORT ORDINAL="13737" NAME="?TrackHeader@CMFCPropertyGridCtrl@@IEAAXH@Z" PURGE="-1" COMMENT="" />
    <EXPORT ORDINAL="13736" NAME="?TrackHandle@CRectTracker@@IEAAHHPEAVCWnd@@VCPoint@@0@Z" PURGE="-1" COMMENT="" />
    <EXPORT ORDINAL="13735" NAME="?TrackDescr@CMFCPropertyGridCtrl@@IEAAXH@Z" PURGE="-1" COMMENT="" />
    <EXPORT ORDINAL="13734" NAME="?TrackColumnSize@CSplitterWnd@@MEAAXHH@Z" PURGE="-1" COMMENT="" />
    <EXPORT ORDINAL="13733" NAME="?Track@CRectTracker@@QEAAHPEAVCWnd@@VCPoint@@H0@Z" PURGE="-1" COMMENT="" />
    <EXPORT ORDINAL="13732" NAME="?Track@CMFCPropertyGridToolTipCtrl@@QEAAXVCRect@@AEBV?$CStringT@DV?$StrTraitMFC_DLL@DV?$ChTraitsCRT@D@ATL@@@@@ATL@@@Z" PURGE="-1" COMMENT="" />
    <EXPORT ORDINAL="13731" NAME="?Track@CMFCDropDownListBox@@QEAAXVCPoint@@PEAVCWnd@@@Z" PURGE="-1" COMMENT="" />
    <EXPORT ORDINAL="13730" NAME="?Track@CDockContext@@QEAAHXZ" PURGE="-1" COMMENT="" />
    <EXPORT ORDINAL="13728" NAME="?ToolBarMouseHookProc@CMFCToolBar@@KA_JH_K_J@Z" PURGE="-1" COMMENT="" />
    <EXPORT ORDINAL="13726" NAME="?Tokenize@?$CStringT@_WV?$StrTraitMFC_DLL@_WV?$ChTraitsCRT@_W@ATL@@@@@ATL@@QEBA?AV12@PEB_WAEAH@Z" PURGE="-1" COMMENT="" />
    <EXPORT ORDINAL="13727" NAME="?Tokenize@?$CStringT@DV?$StrTraitMFC_DLL@DV?$ChTraitsCRT@D@ATL@@@@@ATL@@QEBA?AV12@PEBDAEAH@Z" PURGE="-1" COMMENT="" />
    <EXPORT ORDINAL="13725" NAME="?ToggleMimimizeState@CMFCRibbonBar@@QEAAXXZ" PURGE="-1" COMMENT="" />
    <EXPORT ORDINAL="13724" NAME="?ToggleDocking@CDockContext@@UEAAXXZ" PURGE="-1" COMMENT="" />
    <EXPORT ORDINAL="13723" NAME="?ToggleAutoHide@CDockablePane@@UEAAXXZ" PURGE="-1" COMMENT="" />
    <EXPORT ORDINAL="13729" NAME="?ToVariant@CDataSourceControl@@QEAA?AVCOleVariant@@H@Z" PURGE="-1" COMMENT="" />
    <EXPORT ORDINAL="13722" NAME="?ThrowOsError@CFileException@@SAXJPEBD@Z" PURGE="-1" COMMENT="" />
    <EXPORT ORDINAL="13720" NAME="?ThrowMemoryException@?$CSimpleStringT@_W$00@ATL@@KAXXZ" PURGE="-1" COMMENT="" />
    <EXPORT ORDINAL="13721" NAME="?ThrowMemoryException@?$CSimpleStringT@D$00@ATL@@KAXXZ" PURGE="-1" COMMENT="" />
    <EXPORT ORDINAL="13719" NAME="?ThrowError@COleControl@@QEAAXJPEBDI@Z" PURGE="-1" COMMENT="" />
    <EXPORT ORDINAL="13718" NAME="?ThrowError@COleControl@@QEAAXJII@Z" PURGE="-1" COMMENT="" />
    <EXPORT ORDINAL="13717" NAME="?ThrowErrno@CFileException@@SAXHPEBD@Z" PURGE="-1" COMMENT="" />
    <EXPORT ORDINAL="13716" NAME="?TextToVar@CMFCPropertyGridProperty@@MEAAHAEBV?$CStringT@DV?$StrTraitMFC_DLL@DV?$ChTraitsCRT@D@ATL@@@@@ATL@@@Z" PURGE="-1" COMMENT="" />
    <EXPORT ORDINAL="13715" NAME="?TextOutA@CPreviewDC@@UEAAHHHPEBDH@Z" PURGE="-1" COMMENT="" />
    <EXPORT ORDINAL="13714" NAME="?TextOutA@CMetaFileDC@@UEAAHHHPEBDH@Z" PURGE="-1" COMMENT="" />
    <EXPORT ORDINAL="13713" NAME="?TextNotFound@CRichEditView@@QEAAXPEBD@Z" PURGE="-1" COMMENT="" />
    <EXPORT ORDINAL="13712" NAME="?Tessellate@CD2DGeometry@@QEBAHAEBUD2D_MATRIX_3X2_F@@PEAUID2D1TessellationSink@@M@Z" PURGE="-1" COMMENT="" />
    <EXPORT ORDINAL="13711" NAME="?TearOff@CMFCPopupMenu@@MEAAHVCPoint@@@Z" PURGE="-1" COMMENT="" />
    <EXPORT ORDINAL="13710" NAME="?TaskHitTest@CMFCTasksPane@@IEBAPEAVCMFCTasksPaneTask@@VCPoint@@@Z" PURGE="-1" COMMENT="" />
    <EXPORT ORDINAL="13708" NAME="?TabbedTextOutA@CPreviewDC@@UEAA?AVCSize@@HHPEBDHHPEAHH@Z" PURGE="-1" COMMENT="" />
    <EXPORT ORDINAL="13707" NAME="?TabbedTextOutA@CMetaFileDC@@UEAA?AVCSize@@HHPEBDHHPEAHH@Z" PURGE="-1" COMMENT="" />
    <EXPORT ORDINAL="13706" NAME="?TabbedDocumentToControlBar@CMDIFrameWndEx@@UEAAHPEAVCMDIChildWndEx@@@Z" PURGE="-1" COMMENT="" />
    <EXPORT ORDINAL="13709" NAME="?TabWndFromPoint@CMDIClientAreaWnd@@AEAAPEAVCMFCTabCtrl@@VCPoint@@@Z" PURGE="-1" COMMENT="" />
    <EXPORT ORDINAL="13704" NAME="?SynchronizeScrollBar@CMFCTabCtrl@@QEAAHPEAUtagSCROLLINFO@@@Z" PURGE="-1" COMMENT="" />
    <EXPORT ORDINAL="13705" NAME="?SyncToRichEditObject@CRichEditCntrItem@@QEAAXAEAU_reobject@@@Z" PURGE="-1" COMMENT="" />
    <EXPORT ORDINAL="13703" NAME="?SyncBefore@XNotifyDBEvents@COleControlSite@@UEAAJKKQEAUtagDBNOTIFYREASON@@@Z" PURGE="-1" COMMENT="" />
    <EXPORT ORDINAL="13702" NAME="?SyncAfter@XNotifyDBEvents@COleControlSite@@UEAAJKKQEAUtagDBNOTIFYREASON@@@Z" PURGE="-1" COMMENT="" />
    <EXPORT ORDINAL="13701" NAME="?SwapTabs@CMFCTabCtrl@@UEAAXHH@Z" PURGE="-1" COMMENT="" />
    <EXPORT ORDINAL="13700" NAME="?SwapTabs@CMFCBaseTabCtrl@@UEAAXHH@Z" PURGE="-1" COMMENT="" />
    <EXPORT ORDINAL="13699" NAME="?SwapRows@CDockSite@@QEAAXPEAVCDockingPanesRow@@0@Z" PURGE="-1" COMMENT="" />
    <EXPORT ORDINAL="13698" NAME="?SupportsIPrint@COleDocObjectItem@@IEAAHXZ" PURGE="-1" COMMENT="" />
    <EXPORT ORDINAL="13697" NAME="?SubclassWindow@CWnd@@QEAAHPEAUHWND__@@@Z" PURGE="-1" COMMENT="" />
    <EXPORT ORDINAL="13696" NAME="?SubclassDlgItem@CWnd@@QEAAHIPEAV1@@Z" PURGE="-1" COMMENT="" />
    <EXPORT ORDINAL="13695" NAME="?SubclassDlgControls@CMFCControlContainer@@QEAAHXZ" PURGE="-1" COMMENT="" />
    <EXPORT ORDINAL="13694" NAME="?StrokeContainsPoint@CD2DGeometry@@QEBAHVCD2DPointF@@MPEAUID2D1StrokeStyle@@AEBUD2D_MATRIX_3X2_F@@PEAHM@Z" PURGE="-1" COMMENT="" />
    <EXPORT ORDINAL="13690" NAME="?StringLength@?$CSimpleStringT@_W$00@ATL@@SAHPEB_W@Z" PURGE="-1" COMMENT="" />
    <EXPORT ORDINAL="13691" NAME="?StringLength@?$CSimpleStringT@_W$00@ATL@@SAHPEBD@Z" PURGE="-1" COMMENT="" />
    <EXPORT ORDINAL="13692" NAME="?StringLength@?$CSimpleStringT@D$00@ATL@@SAHPEB_W@Z" PURGE="-1" COMMENT="" />
    <EXPORT ORDINAL="13693" NAME="?StringLength@?$CSimpleStringT@D$00@ATL@@SAHPEBD@Z" PURGE="-1" COMMENT="" />
    <EXPORT ORDINAL="13689" NAME="?StringFromDecimal@CGlobalUtils@@QEAAHAEAV?$CStringT@DV?$StrTraitMFC_DLL@DV?$ChTraitsCRT@D@ATL@@@@@ATL@@AEAUtagDEC@@@Z" PURGE="-1" COMMENT="" />
    <EXPORT ORDINAL="13688" NAME="?StringFromCy@CGlobalUtils@@QEAAHAEAV?$CStringT@DV?$StrTraitMFC_DLL@DV?$ChTraitsCRT@D@ATL@@@@@ATL@@AEATtagCY@@@Z" PURGE="-1" COMMENT="" />
    <EXPORT ORDINAL="13687" NAME="?StretchToWholeRow@CMFCRibbonBaseElement@@UEAAHPEAVCDC@@H@Z" PURGE="-1" COMMENT="" />
    <EXPORT ORDINAL="13686" NAME="?StretchPaneRect@CDockingPanesRow@@IEAAHPEAVCPane@@H@Z" PURGE="-1" COMMENT="" />
    <EXPORT ORDINAL="13685" NAME="?StretchPaneDeferWndPos@CPane@@UEAAHHAEAPEAX@Z" PURGE="-1" COMMENT="" />
    <EXPORT ORDINAL="13684" NAME="?StretchPaneContainer@CPaneContainer@@UEAAHHHHHAEAPEAX@Z" PURGE="-1" COMMENT="" />
    <EXPORT ORDINAL="13683" NAME="?StretchPane@CMFCToolBar@@UEAA?AVCSize@@HH@Z" PURGE="-1" COMMENT="" />
    <EXPORT ORDINAL="13682" NAME="?StretchPane@CMFCAutoHideBar@@UEAA?AVCSize@@HH@Z" PURGE="-1" COMMENT="" />
    <EXPORT ORDINAL="13681" NAME="?Stretch@CDockContext@@QEAAXVCPoint@@@Z" PURGE="-1" COMMENT="" />
    <EXPORT ORDINAL="13680" NAME="?Stream@CRichEditView@@QEAAXAEAVCArchive@@H@Z" PURGE="-1" COMMENT="" />
    <EXPORT ORDINAL="13679" NAME="?Stream@CD2DPathGeometry@@QEAAHPEAUID2D1GeometrySink@@@Z" PURGE="-1" COMMENT="" />
    <EXPORT ORDINAL="13678" NAME="?StoreWindowPlacement@CWinAppEx@@MEAAHAEBVCRect@@HH@Z" PURGE="-1" COMMENT="" />
    <EXPORT ORDINAL="13677" NAME="?StoreWindowPlacement@CFrameImpl@@IEAAXXZ" PURGE="-1" COMMENT="" />
    <EXPORT ORDINAL="13676" NAME="?StoreRecentTabRelatedInfo@CPaneFrameWnd@@UEAAXPEAVCDockablePane@@0@Z" PURGE="-1" COMMENT="" />
    <EXPORT ORDINAL="13675" NAME="?StoreRecentTabRelatedInfo@CPaneDivider@@QEAAXPEAVCDockablePane@@0@Z" PURGE="-1" COMMENT="" />
    <EXPORT ORDINAL="13674" NAME="?StoreRecentTabRelatedInfo@CMultiPaneFrameWnd@@UEAAXPEAVCDockablePane@@0@Z" PURGE="-1" COMMENT="" />
    <EXPORT ORDINAL="13673" NAME="?StoreRecentTabRelatedInfo@CDockablePane@@MEAAXXZ" PURGE="-1" COMMENT="" />
    <EXPORT ORDINAL="13672" NAME="?StoreRecentDockSiteInfo@CPaneFrameWnd@@UEAAXPEAVCPane@@@Z" PURGE="-1" COMMENT="" />
    <EXPORT ORDINAL="13671" NAME="?StoreRecentDockSiteInfo@CPaneDivider@@QEAAXPEAVCDockablePane@@@Z" PURGE="-1" COMMENT="" />
    <EXPORT ORDINAL="13670" NAME="?StoreRecentDockSiteInfo@CPaneContainerManager@@UEAAXPEAVCDockablePane@@@Z" PURGE="-1" COMMENT="" />
    <EXPORT ORDINAL="13669" NAME="?StoreRecentDockSiteInfo@CPaneContainer@@UEAAXPEAVCDockablePane@@@Z" PURGE="-1" COMMENT="" />
    <EXPORT ORDINAL="13668" NAME="?StoreRecentDockSiteInfo@CPane@@MEAAXXZ" PURGE="-1" COMMENT="" />
    <EXPORT ORDINAL="13667" NAME="?StoreRecentDockSiteInfo@CMultiPaneFrameWnd@@UEAAXPEAVCPane@@@Z" PURGE="-1" COMMENT="" />
    <EXPORT ORDINAL="13666" NAME="?StoreRecentDockSiteInfo@CDockablePane@@MEAAXXZ" PURGE="-1" COMMENT="" />
    <EXPORT ORDINAL="13665" NAME="?StoreRecentDockSiteInfo@CBaseTabbedPane@@MEAAXXZ" PURGE="-1" COMMENT="" />
    <EXPORT ORDINAL="13664" NAME="?StoreFields@CRecordset@@QEAAXXZ" PURGE="-1" COMMENT="" />
    <EXPORT ORDINAL="13663" NAME="?StoreDockInfo@CRecentPaneContainerInfo@@UEAAXPEAVCPaneContainer@@PEAVCDockablePane@@1@Z" PURGE="-1" COMMENT="" />
    <EXPORT ORDINAL="13662" NAME="?StoreDockInfo@CRecentDockSiteInfo@@UEAAXPEAVCPaneContainer@@PEAVCDockablePane@@@Z" PURGE="-1" COMMENT="" />
    <EXPORT ORDINAL="13661" NAME="?Store@CRuntimeClass@@QEBAXAEAVCArchive@@@Z" PURGE="-1" COMMENT="" />
    <EXPORT ORDINAL="13660" NAME="?StopTracking@CSplitterWnd@@MEAAXH@Z" PURGE="-1" COMMENT="" />
    <EXPORT ORDINAL="13659" NAME="?StopTracking@CPaneDivider@@MEAAXH@Z" PURGE="-1" COMMENT="" />
    <EXPORT ORDINAL="13658" NAME="?StopResize@CMFCTabCtrl@@QEAAXH@Z" PURGE="-1" COMMENT="" />
    <EXPORT ORDINAL="13657" NAME="?StopCaptionButtonsTracking@CPaneFrameWnd@@MEAAXXZ" PURGE="-1" COMMENT="" />
    <EXPORT ORDINAL="13656" NAME="?StopCaptionButtonsTracking@CMFCTasksPaneFrameWnd@@MEAAXXZ" PURGE="-1" COMMENT="" />
    <EXPORT ORDINAL="13655" NAME="?StopCaptionButtonsTracking@CMFCTasksPane@@MEAAXXZ" PURGE="-1" COMMENT="" />
    <EXPORT ORDINAL="13654" NAME="?StopCaptionButtonsTracking@CFrameImpl@@IEAAXXZ" PURGE="-1" COMMENT="" />
    <EXPORT ORDINAL="13653" NAME="?StopCaptionButtonsTracking@CDockablePane@@MEAAXXZ" PURGE="-1" COMMENT="" />
    <EXPORT ORDINAL="13652" NAME="?StopAnimation@CMFCRibbonStatusBarPane@@QEAAXXZ" PURGE="-1" COMMENT="" />
    <EXPORT ORDINAL="13651" NAME="?Stop@CSmartDockingManager@@QEAAXXZ" PURGE="-1" COMMENT="" />
    <EXPORT ORDINAL="13650" NAME="?Stat@CArchiveStream@@UEAAJPEAUtagSTATSTG@@K@Z" PURGE="-1" COMMENT="" />
    <EXPORT ORDINAL="13649" NAME="?StartWindowMove@CMFCDesktopAlertWnd@@IEAAXXZ" PURGE="-1" COMMENT="" />
    <EXPORT ORDINAL="13648" NAME="?StartVisualGroup@CFileDialog@@QEAAJKAEBV?$CStringT@DV?$StrTraitMFC_DLL@DV?$ChTraitsCRT@D@ATL@@@@@ATL@@@Z" PURGE="-1" COMMENT="" />
    <EXPORT ORDINAL="13647" NAME="?StartTracking@CSplitterWnd@@MEAAXH@Z" PURGE="-1" COMMENT="" />
    <EXPORT ORDINAL="13646" NAME="?StartTearOff@CPaneFrameWnd@@QEAAHPEAVCMFCPopupMenu@@@Z" PURGE="-1" COMMENT="" />
    <EXPORT ORDINAL="13645" NAME="?StartResize@CMFCPopupMenu@@IEAAHXZ" PURGE="-1" COMMENT="" />
    <EXPORT ORDINAL="13644" NAME="?StartResize@CDockContext@@UEAAXHVCPoint@@@Z" PURGE="-1" COMMENT="" />
    <EXPORT ORDINAL="13643" NAME="?StartRenameTab@CMFCBaseTabCtrl@@UEAAHH@Z" PURGE="-1" COMMENT="" />
    <EXPORT ORDINAL="13642" NAME="?StartPopupMenuTimer@CMFCPopupMenuBar@@QEAAXPEAVCMFCToolBarMenuButton@@H@Z" PURGE="-1" COMMENT="" />
    <EXPORT ORDINAL="13641" NAME="?StartDrag@CDockContext@@UEAAXVCPoint@@@Z" PURGE="-1" COMMENT="" />
    <EXPORT ORDINAL="13640" NAME="?StartDocA@CDC@@QEAAHPEBD@Z" PURGE="-1" COMMENT="" />
    <EXPORT ORDINAL="13639" NAME="?StartAnimation@CMFCRibbonStatusBarPane@@QEAAXII@Z" PURGE="-1" COMMENT="" />
    <EXPORT ORDINAL="13638" NAME="?StartAnimation@CMFCDesktopAlertWnd@@IEAAXH@Z" PURGE="-1" COMMENT="" />
    <EXPORT ORDINAL="13637" NAME="?Start@CSmartDockingManager@@QEAAXPEAVCWnd@@@Z" PURGE="-1" COMMENT="" />
    <EXPORT ORDINAL="13636" NAME="?SplitRow@CSplitterWnd@@UEAAHH@Z" PURGE="-1" COMMENT="" />
    <EXPORT ORDINAL="13635" NAME="?SplitDialogTemplate@COccManager@@UEAAPEAUDLGTEMPLATE@@PEBU2@PEAPEAUDLGITEMTEMPLATE@@@Z" PURGE="-1" COMMENT="" />
    <EXPORT ORDINAL="13634" NAME="?SplitColumn@CSplitterWnd@@UEAAHH@Z" PURGE="-1" COMMENT="" />
    <EXPORT ORDINAL="13632" NAME="?SpanIncluding@?$CStringT@_WV?$StrTraitMFC_DLL@_WV?$ChTraitsCRT@_W@ATL@@@@@ATL@@QEBA?AV12@PEB_W@Z" PURGE="-1" COMMENT="" />
    <EXPORT ORDINAL="13633" NAME="?SpanIncluding@?$CStringT@DV?$StrTraitMFC_DLL@DV?$ChTraitsCRT@D@ATL@@@@@ATL@@QEBA?AV12@PEBD@Z" PURGE="-1" COMMENT="" />
    <EXPORT ORDINAL="13630" NAME="?SpanExcluding@?$CStringT@_WV?$StrTraitMFC_DLL@_WV?$ChTraitsCRT@_W@ATL@@@@@ATL@@QEBA?AV12@PEB_W@Z" PURGE="-1" COMMENT="" />
    <EXPORT ORDINAL="13631" NAME="?SpanExcluding@?$CStringT@DV?$StrTraitMFC_DLL@DV?$ChTraitsCRT@D@ATL@@@@@ATL@@QEBA?AV12@PEBD@Z" PURGE="-1" COMMENT="" />
    <EXPORT ORDINAL="13629" NAME="?Sort@CMFCListCtrl@@UEAAXHHH@Z" PURGE="-1" COMMENT="" />
    <EXPORT ORDINAL="13628" NAME="?Socket@CAsyncSocket@@QEAAHHJHH@Z" PURGE="-1" COMMENT="" />
    <EXPORT ORDINAL="13627" NAME="?SmoothResize@CMFCToolBarImages@@QEAAHN@Z" PURGE="-1" COMMENT="" />
    <EXPORT ORDINAL="13626" NAME="?SmoothResize@CMFCControlRenderer@@QEAAHN@Z" PURGE="-1" COMMENT="" />
    <EXPORT ORDINAL="13625" NAME="?SmartUpdate@CMFCToolBar@@MEAAHAEBVCObList@@@Z" PURGE="-1" COMMENT="" />
    <EXPORT ORDINAL="13624" NAME="?SmartUpdate@CMFCOutlookBarPane@@UEAAHAEBVCObList@@@Z" PURGE="-1" COMMENT="" />
    <EXPORT ORDINAL="13623" NAME="?SmartMixColors@CDrawingManager@@SAKKKNHH@Z" PURGE="-1" COMMENT="" />
    <EXPORT ORDINAL="13622" NAME="?Slide@CDockablePane@@UEAAXHH@Z" PURGE="-1" COMMENT="" />
    <EXPORT ORDINAL="13621" NAME="?SkipDeletedRecords@CRecordset@@QEAAXGJPEA_KPEAF@Z" PURGE="-1" COMMENT="" />
    <EXPORT ORDINAL="13620" NAME="?Skip@XEnumVOID@CEnumArray@@UEAAJK@Z" PURGE="-1" COMMENT="" />
    <EXPORT ORDINAL="13619" NAME="?SizeToolBar@CToolBar@@IEAAXPEAU_TBBUTTON@@HHH@Z" PURGE="-1" COMMENT="" />
    <EXPORT ORDINAL="13618" NAME="?SizeToolBar@CMFCToolBar@@IEAAXHH@Z" PURGE="-1" COMMENT="" />
    <EXPORT ORDINAL="13617" NAME="?SizeToContent@CPaneFrameWnd@@UEAAXXZ" PURGE="-1" COMMENT="" />
    <EXPORT ORDINAL="13616" NAME="?SizeToContent@CMFCMenuButton@@UEAA?AVCSize@@H@Z" PURGE="-1" COMMENT="" />
    <EXPORT ORDINAL="13615" NAME="?SizeToContent@CMFCLinkCtrl@@UEAA?AVCSize@@HH@Z" PURGE="-1" COMMENT="" />
    <EXPORT ORDINAL="13614" NAME="?SizeToContent@CMFCColorButton@@UEAA?AVCSize@@H@Z" PURGE="-1" COMMENT="" />
    <EXPORT ORDINAL="13613" NAME="?SizeToContent@CMFCButton@@UEAA?AVCSize@@H@Z" PURGE="-1" COMMENT="" />
    <EXPORT ORDINAL="13612" NAME="?SizeToContent@CBitmapButton@@QEAAXXZ" PURGE="-1" COMMENT="" />
    <EXPORT ORDINAL="13611" NAME="?SizeMinReq@CMonthCalCtrl@@QEAAHH@Z" PURGE="-1" COMMENT="" />
    <EXPORT ORDINAL="13609" NAME="?Size@CMenuImages@@SA?AVCSize@@XZ" PURGE="-1" COMMENT="" />
    <EXPORT ORDINAL="13608" NAME="?Simplify@CD2DGeometry@@QEBAHW4D2D1_GEOMETRY_SIMPLIFICATION_OPTION@@AEBUD2D_MATRIX_3X2_F@@PEAUID2D1SimplifiedGeometrySink@@M@Z" PURGE="-1" COMMENT="" />
    <EXPORT ORDINAL="13607" NAME="?ShowWithContextMenu@CMFCRibbonMiniToolBar@@QEAAHHHIPEAVCWnd@@@Z" PURGE="-1" COMMENT="" />
    <EXPORT ORDINAL="13606" NAME="?ShowWindowsDialog@CMDIFrameWndEx@@QEAAXXZ" PURGE="-1" COMMENT="" />
    <EXPORT ORDINAL="13605" NAME="?ShowWindow@CWnd@@QEAAHH@Z" PURGE="-1" COMMENT="" />
    <EXPORT ORDINAL="13604" NAME="?ShowWindow@CPaneDivider@@QEAAXH@Z" PURGE="-1" COMMENT="" />
    <EXPORT ORDINAL="13603" NAME="?ShowWindow@COleControlSite@@UEAAHH@Z" PURGE="-1" COMMENT="" />
    <EXPORT ORDINAL="13602" NAME="?ShowUI@XDocHostUIHandler@CHtmlControlSite@@UEAAJKPEAUIOleInPlaceActiveObject@@PEAUIOleCommandTarget@@PEAUIOleInPlaceFrame@@PEAUIOleInPlaceUIWindow@@@Z" PURGE="-1" COMMENT="" />
    <EXPORT ORDINAL="13601" NAME="?ShowUI@CDHtmlDialog@@UEAAJKPEAUIOleInPlaceActiveObject@@PEAUIOleCommandTarget@@PEAUIOleInPlaceFrame@@PEAUIOleInPlaceUIWindow@@@Z" PURGE="-1" COMMENT="" />
    <EXPORT ORDINAL="13600" NAME="?ShowUI@CBrowserControlSite@@MEAAJKPEAUIOleInPlaceActiveObject@@PEAUIOleCommandTarget@@PEAUIOleInPlaceFrame@@PEAUIOleInPlaceUIWindow@@@Z" PURGE="-1" COMMENT="" />
    <EXPORT ORDINAL="13599" NAME="?ShowToolBar@CMFCToolBarsListPropertyPage@@QEAAXPEAVCMFCToolBar@@H@Z" PURGE="-1" COMMENT="" />
    <EXPORT ORDINAL="13598" NAME="?ShowToolBar@CMFCToolBarsCustomizeDialog@@IEAAXPEAVCMFCToolBar@@H@Z" PURGE="-1" COMMENT="" />
    <EXPORT ORDINAL="13597" NAME="?ShowTaskByCmdId@CMFCTasksPane@@QEAAHIHH@Z" PURGE="-1" COMMENT="" />
    <EXPORT ORDINAL="13596" NAME="?ShowTask@CMFCTasksPane@@QEAAHHHHH@Z" PURGE="-1" COMMENT="" />
    <EXPORT ORDINAL="13595" NAME="?ShowTabbedPlaceAt@CSmartDockingManager@@QEAAXVCRect@@HHH@Z" PURGE="-1" COMMENT="" />
    <EXPORT ORDINAL="13594" NAME="?ShowTabbedAt@CSmartDockingHighlighterWnd@@QEAAXVCRect@@0@Z" PURGE="-1" COMMENT="" />
    <EXPORT ORDINAL="13593" NAME="?ShowTab@CMFCBaseTabCtrl@@UEAAHHHHH@Z" PURGE="-1" COMMENT="" />
    <EXPORT ORDINAL="13592" NAME="?ShowTab@CBaseTabbedPane@@UEAAHPEAVCWnd@@HHH@Z" PURGE="-1" COMMENT="" />
    <EXPORT ORDINAL="13591" NAME="?ShowSysMenu@CMFCRibbonBar@@IEAAXAEBVCPoint@@@Z" PURGE="-1" COMMENT="" />
    <EXPORT ORDINAL="13590" NAME="?ShowRow@CDockSite@@QEAAXPEAVCDockingPanesRow@@HH@Z" PURGE="-1" COMMENT="" />
    <EXPORT ORDINAL="13589" NAME="?ShowQuickCustomizePane@CFrameImpl@@IEAAXPEAVCMFCPopupMenu@@@Z" PURGE="-1" COMMENT="" />
    <EXPORT ORDINAL="13588" NAME="?ShowPropertyFrame@XOleControlSite@COleControlSite@@UEAAJXZ" PURGE="-1" COMMENT="" />
    <EXPORT ORDINAL="13587" NAME="?ShowPopupMenu@CWinAppEx@@UEAAHIAEBVCPoint@@PEAVCWnd@@@Z" PURGE="-1" COMMENT="" />
    <EXPORT ORDINAL="13586" NAME="?ShowPopupMenu@COleIPFrameWndEx@@IEAAHPEAVCMFCPopupMenu@@@Z" PURGE="-1" COMMENT="" />
    <EXPORT ORDINAL="13585" NAME="?ShowPopupMenu@COleDocIPFrameWndEx@@IEAAHPEAVCMFCPopupMenu@@@Z" PURGE="-1" COMMENT="" />
    <EXPORT ORDINAL="13584" NAME="?ShowPopupMenu@CMDIFrameWndEx@@IEAAHPEAVCMFCPopupMenu@@@Z" PURGE="-1" COMMENT="" />
    <EXPORT ORDINAL="13583" NAME="?ShowPopupMenu@CFrameWndEx@@IEAAHPEAVCMFCPopupMenu@@@Z" PURGE="-1" COMMENT="" />
    <EXPORT ORDINAL="13582" NAME="?ShowPopupMenu@CContextMenuManager@@UEAAPEAVCMFCPopupMenu@@PEAUHMENU__@@HHPEAVCWnd@@HHH@Z" PURGE="-1" COMMENT="" />
    <EXPORT ORDINAL="13581" NAME="?ShowPopupMenu@CContextMenuManager@@UEAAHIHHPEAVCWnd@@HH@Z" PURGE="-1" COMMENT="" />
    <EXPORT ORDINAL="13580" NAME="?ShowPopup@CMFCRibbonPanel@@QEAAPEAVCMFCRibbonPanelMenu@@PEAVCMFCRibbonDefaultPanelButton@@@Z" PURGE="-1" COMMENT="" />
    <EXPORT ORDINAL="13579" NAME="?ShowPlaceAt@CSmartDockingManager@@QEAAXVCRect@@@Z" PURGE="-1" COMMENT="" />
    <EXPORT ORDINAL="13578" NAME="?ShowPanes@CDockingManager@@UEAAHH@Z" PURGE="-1" COMMENT="" />
    <EXPORT ORDINAL="13577" NAME="?ShowPane@COleIPFrameWndEx@@QEAAXPEAVCBasePane@@HHH@Z" PURGE="-1" COMMENT="" />
    <EXPORT ORDINAL="13576" NAME="?ShowPane@COleDocIPFrameWndEx@@QEAAXPEAVCBasePane@@HHH@Z" PURGE="-1" COMMENT="" />
    <EXPORT ORDINAL="13575" NAME="?ShowPane@COleCntrFrameWndEx@@QEAAXPEAVCBasePane@@HHH@Z" PURGE="-1" COMMENT="" />
    <EXPORT ORDINAL="13574" NAME="?ShowPane@CMDIFrameWndEx@@QEAAXPEAVCBasePane@@HHH@Z" PURGE="-1" COMMENT="" />
    <EXPORT ORDINAL="13573" NAME="?ShowPane@CMDIChildWndEx@@QEAAXPEAVCBasePane@@HHH@Z" PURGE="-1" COMMENT="" />
    <EXPORT ORDINAL="13572" NAME="?ShowPane@CFrameWndEx@@QEAAXPEAVCBasePane@@HHH@Z" PURGE="-1" COMMENT="" />
    <EXPORT ORDINAL="13570" NAME="?ShowPane@CDockingPanesRow@@UEAAHPEAVCPane@@HH@Z" PURGE="-1" COMMENT="" />
    <EXPORT ORDINAL="13569" NAME="?ShowPane@CDockablePane@@UEAAXHHH@Z" PURGE="-1" COMMENT="" />
    <EXPORT ORDINAL="13571" NAME="?ShowPane@CDockSite@@UEAAHPEAVCBasePane@@HHH@Z" PURGE="-1" COMMENT="" />
    <EXPORT ORDINAL="13568" NAME="?ShowPane@CBasePane@@UEAAXHHH@Z" PURGE="-1" COMMENT="" />
    <EXPORT ORDINAL="13567" NAME="?ShowOwnedWindows@CFrameWnd@@QEAAXH@Z" PURGE="-1" COMMENT="" />
    <EXPORT ORDINAL="13566" NAME="?ShowObject@XOleClientSite@COleControlSite@@UEAAJXZ" PURGE="-1" COMMENT="" />
    <EXPORT ORDINAL="13565" NAME="?ShowObject@XOleClientSite@COleClientItem@@UEAAJXZ" PURGE="-1" COMMENT="" />
    <EXPORT ORDINAL="13564" NAME="?ShowMenu@CMFCCaptionMenuButton@@QEAAXPEAUHMENU__@@PEAVCWnd@@@Z" PURGE="-1" COMMENT="" />
    <EXPORT ORDINAL="13563" NAME="?ShowMainMenu@CMFCRibbonApplicationButton@@IEAAHXZ" PURGE="-1" COMMENT="" />
    <EXPORT ORDINAL="13562" NAME="?ShowKeyTips@CMFCRibbonBar@@QEAAXH@Z" PURGE="-1" COMMENT="" />
    <EXPORT ORDINAL="13561" NAME="?ShowGuide@CSmartDockingGroupGuidesManager@@QEAAXW4SDMarkerPlace@CSmartDockingStandaloneGuide@@HH@Z" PURGE="-1" COMMENT="" />
    <EXPORT ORDINAL="13560" NAME="?ShowFullScreen@CFullScreenImpl@@QEAAXXZ" PURGE="-1" COMMENT="" />
    <EXPORT ORDINAL="13559" NAME="?ShowFullScreen@CFullScreenImpl@@QEAAXPEAVCFrameWnd@@@Z" PURGE="-1" COMMENT="" />
    <EXPORT ORDINAL="13558" NAME="?ShowFloating@CMFCRibbonCategory@@IEAAXVCRect@@@Z" PURGE="-1" COMMENT="" />
    <EXPORT ORDINAL="13557" NAME="?ShowElements@CMFCRibbonCategory@@IEAAXH@Z" PURGE="-1" COMMENT="" />
    <EXPORT ORDINAL="13556" NAME="?ShowDockSiteRow@CDockingPanesRow@@UEAAXHH@Z" PURGE="-1" COMMENT="" />
    <EXPORT ORDINAL="13555" NAME="?ShowDelayShowMiniFrames@CDockingManager@@UEAAXH@Z" PURGE="-1" COMMENT="" />
    <EXPORT ORDINAL="13554" NAME="?ShowDefaultButton@CMFCRibbonPanel@@IEAAXPEAVCDC@@@Z" PURGE="-1" COMMENT="" />
    <EXPORT ORDINAL="13553" NAME="?ShowControlBar@CFrameWnd@@QEAAXPEAVCControlBar@@HH@Z" PURGE="-1" COMMENT="" />
    <EXPORT ORDINAL="13552" NAME="?ShowContextMenu@XDocHostUIHandler@CHtmlControlSite@@UEAAJKPEAUtagPOINT@@PEAUIUnknown@@PEAUIDispatch@@@Z" PURGE="-1" COMMENT="" />
    <EXPORT ORDINAL="13551" NAME="?ShowContextMenu@CDHtmlDialog@@UEAAJKPEAUtagPOINT@@PEAUIUnknown@@PEAUIDispatch@@@Z" PURGE="-1" COMMENT="" />
    <EXPORT ORDINAL="13550" NAME="?ShowContextMenu@CBrowserControlSite@@MEAAJKPEAUtagPOINT@@PEAUIUnknown@@PEAUIDispatch@@@Z" PURGE="-1" COMMENT="" />
    <EXPORT ORDINAL="13549" NAME="?ShowContextCategories@CMFCRibbonBar@@QEAAXIH@Z" PURGE="-1" COMMENT="" />
    <EXPORT ORDINAL="13548" NAME="?ShowContainerUI@XRichEditOleCallback@CRichEditView@@UEAAJH@Z" PURGE="-1" COMMENT="" />
    <EXPORT ORDINAL="13547" NAME="?ShowContainerUI@CRichEditView@@QEAAJH@Z" PURGE="-1" COMMENT="" />
    <EXPORT ORDINAL="13546" NAME="?ShowContainerUI@CRichEditCntrItem@@QEAAJH@Z" PURGE="-1" COMMENT="" />
    <EXPORT ORDINAL="13545" NAME="?ShowCommandMessageString@CMFCToolBar@@MEAAXI@Z" PURGE="-1" COMMENT="" />
    <EXPORT ORDINAL="13544" NAME="?ShowCommandMessageString@CMFCTasksPane@@UEAAXI@Z" PURGE="-1" COMMENT="" />
    <EXPORT ORDINAL="13543" NAME="?ShowCommandMessageString@CMFCPopupMenuBar@@MEAAXI@Z" PURGE="-1" COMMENT="" />
    <EXPORT ORDINAL="13542" NAME="?ShowCommandMessageString@CMFCColorBar@@MEAAXI@Z" PURGE="-1" COMMENT="" />
    <EXPORT ORDINAL="13541" NAME="?ShowCentralGroup@CSmartDockingManager@@QEAAXHK@Z" PURGE="-1" COMMENT="" />
    <EXPORT ORDINAL="13540" NAME="?ShowCategory@CMFCRibbonBar@@QEAAXHH@Z" PURGE="-1" COMMENT="" />
    <EXPORT ORDINAL="13539" NAME="?ShowButton@CPaneFrameWnd@@IEAAXIH@Z" PURGE="-1" COMMENT="" />
    <EXPORT ORDINAL="13538" NAME="?ShowButton@CMFCAutoHideButton@@UEAAXH@Z" PURGE="-1" COMMENT="" />
    <EXPORT ORDINAL="13537" NAME="?ShowAutoHideWindow@CMFCAutoHideBar@@QEAAHPEAVCDockablePane@@HH@Z" PURGE="-1" COMMENT="" />
    <EXPORT ORDINAL="13536" NAME="?ShowAttachedWindow@CMFCAutoHideButton@@QEAAXH@Z" PURGE="-1" COMMENT="" />
    <EXPORT ORDINAL="13535" NAME="?ShowAt@CSmartDockingHighlighterWnd@@QEAAXVCRect@@@Z" PURGE="-1" COMMENT="" />
    <EXPORT ORDINAL="13534" NAME="?ShowAppMessageBox@CWinApp@@SAHPEAV1@PEBDII@Z" PURGE="-1" COMMENT="" />
    <EXPORT ORDINAL="13533" NAME="?ShowAllCommands@CMFCPopupMenu@@QEAAXXZ" PURGE="-1" COMMENT="" />
    <EXPORT ORDINAL="13532" NAME="?ShowAllAccelerators@CKeyboardManager@@SAXH@Z" PURGE="-1" COMMENT="" />
    <EXPORT ORDINAL="13531" NAME="?ShowAll@CDockBar@@QEAAXH@Z" PURGE="-1" COMMENT="" />
    <EXPORT ORDINAL="13530" NAME="?Show@XPropertyPage@COlePropertyPage@@UEAAJI@Z" PURGE="-1" COMMENT="" />
    <EXPORT ORDINAL="13529" NAME="?Show@XOleDocumentView@CDocObjectServer@@UEAAJH@Z" PURGE="-1" COMMENT="" />
    <EXPORT ORDINAL="13528" NAME="?Show@CSmartDockingStandaloneGuide@@UEAAXH@Z" PURGE="-1" COMMENT="" />
    <EXPORT ORDINAL="13527" NAME="?Show@CSmartDockingManager@@QEAAXH@Z" PURGE="-1" COMMENT="" />
    <EXPORT ORDINAL="13526" NAME="?Show@CSmartDockingGroupGuidesManager@@UEAAXH@Z" PURGE="-1" COMMENT="" />
    <EXPORT ORDINAL="13525" NAME="?Show@CSmartDockingGroupGuide@@UEAAXH@Z" PURGE="-1" COMMENT="" />
    <EXPORT ORDINAL="13524" NAME="?Show@CMFCRibbonMiniToolBar@@QEAAHHH@Z" PURGE="-1" COMMENT="" />
    <EXPORT ORDINAL="13523" NAME="?Show@CMFCRibbonKeyTip@@QEAAHH@Z" PURGE="-1" COMMENT="" />
    <EXPORT ORDINAL="13522" NAME="?Show@CMFCPropertyGridProperty@@QEAAXHH@Z" PURGE="-1" COMMENT="" />
    <EXPORT ORDINAL="13521" NAME="?ShiftPanesRect@CDockingPanesRow@@IEAAXPEAVCPane@@HH@Z" PURGE="-1" COMMENT="" />
    <EXPORT ORDINAL="13520" NAME="?ShiftPanes@CDockingPanesRow@@AEAAXPEAVCPane@@HH@Z" PURGE="-1" COMMENT="" />
    <EXPORT ORDINAL="13519" NAME="?ShellCreateItemFromParsingName@AFX_GLOBAL_DATA@@QEAAJPEB_WPEAUIBindCtx@@AEBU_GUID@@PEAPEAX@Z" PURGE="-1" COMMENT="" />
    <EXPORT ORDINAL="13472" NAME="?SetupToolbarMenu@CFrameImpl@@IEAAXAEAVCMenu@@II@Z" PURGE="-1" COMMENT="" />
    <EXPORT ORDINAL="13471" NAME="?SetupTearOffMenus@CMenuTearOffManager@@QEAAXPEAUHMENU__@@@Z" PURGE="-1" COMMENT="" />
    <EXPORT ORDINAL="13470" NAME="?SetupFromMenus@CMFCToolBarsCustomizeDialog@@IEAAXXZ" PURGE="-1" COMMENT="" />
    <EXPORT ORDINAL="13467" NAME="?Setup@CMFCFontComboBox@@QEAAHHEE@Z" PURGE="-1" COMMENT="" />
    <EXPORT ORDINAL="13466" NAME="?Setup@CMFCCustomColorsPropertyPage@@QEAAXEEE@Z" PURGE="-1" COMMENT="" />
    <EXPORT ORDINAL="13518" NAME="?SetZoomState@CPreviewView@@IEAAXIIVCPoint@@@Z" PURGE="-1" COMMENT="" />
    <EXPORT ORDINAL="13517" NAME="?SetZoomIncrement@CMFCRibbonSlider@@QEAAXH@Z" PURGE="-1" COMMENT="" />
    <EXPORT ORDINAL="13516" NAME="?SetZoomButtons@CMFCRibbonSlider@@QEAAXH@Z" PURGE="-1" COMMENT="" />
    <EXPORT ORDINAL="13515" NAME="?SetWriteBufferSize@CInternetFile@@QEAAHI@Z" PURGE="-1" COMMENT="" />
    <EXPORT ORDINAL="13514" NAME="?SetWrappedWnd@CDockablePaneAdapter@@UEAAHPEAVCWnd@@@Z" PURGE="-1" COMMENT="" />
    <EXPORT ORDINAL="13513" NAME="?SetWorldTransform@CDC@@QEAAHPEBUtagXFORM@@@Z" PURGE="-1" COMMENT="" />
    <EXPORT ORDINAL="13511" NAME="?SetWordCharFormat@CRichEditCtrl@@QEAAHAEAU_charformat@@@Z" PURGE="-1" COMMENT="" />
    <EXPORT ORDINAL="13512" NAME="?SetWordCharFormat@CRichEditCtrl@@QEAAHAEAUCHARFORMAT2A@@@Z" PURGE="-1" COMMENT="" />
    <EXPORT ORDINAL="13507" NAME="?SetWindows7Look@CMFCRibbonBar@@QEAAXHH@Z" PURGE="-1" COMMENT="" />
    <EXPORT ORDINAL="13506" NAME="?SetWindows7Image@CMFCRibbonApplicationButton@@QEAAXPEAUHBITMAP__@@@Z" PURGE="-1" COMMENT="" />
    <EXPORT ORDINAL="13505" NAME="?SetWindows7Image@CMFCRibbonApplicationButton@@QEAAXI@Z" PURGE="-1" COMMENT="" />
    <EXPORT ORDINAL="13510" NAME="?SetWindowTextA@CWnd@@QEAAXPEBD@Z" PURGE="-1" COMMENT="" />
    <EXPORT ORDINAL="13509" NAME="?SetWindowTextA@COleControlSite@@UEAAXPEBD@Z" PURGE="-1" COMMENT="" />
    <EXPORT ORDINAL="13508" NAME="?SetWindowTextA@CMFCMaskedEdit@@QEAAXPEBD@Z" PURGE="-1" COMMENT="" />
    <EXPORT ORDINAL="13504" NAME="?SetWindowPos@CWnd@@QEAAHPEBV1@HHHHI@Z" PURGE="-1" COMMENT="" />
    <EXPORT ORDINAL="13503" NAME="?SetWindowPos@COleControlSite@@UEAAHPEBVCWnd@@HHHHI@Z" PURGE="-1" COMMENT="" />
    <EXPORT ORDINAL="13502" NAME="?SetWindowPos@CBasePane@@UEAAPEAXPEBVCWnd@@HHHHIPEAX@Z" PURGE="-1" COMMENT="" />
    <EXPORT ORDINAL="13501" NAME="?SetWindowPlacement@CWnd@@QEAAHPEBUtagWINDOWPLACEMENT@@@Z" PURGE="-1" COMMENT="" />
    <EXPORT ORDINAL="13500" NAME="?SetWindowOrg@CDC@@QEAA?AVCPoint@@HH@Z" PURGE="-1" COMMENT="" />
    <EXPORT ORDINAL="13499" NAME="?SetWindowHeight@CMFCTasksPane@@QEAAHPEAUHWND__@@H@Z" PURGE="-1" COMMENT="" />
    <EXPORT ORDINAL="13498" NAME="?SetWindowHeight@CMFCTasksPane@@QEAAHHPEAUHWND__@@H@Z" PURGE="-1" COMMENT="" />
    <EXPORT ORDINAL="13497" NAME="?SetWindowExt@CPreviewDC@@UEAA?AVCSize@@HH@Z" PURGE="-1" COMMENT="" />
    <EXPORT ORDINAL="13496" NAME="?SetWindowExt@CDC@@UEAA?AVCSize@@HH@Z" PURGE="-1" COMMENT="" />
    <EXPORT ORDINAL="13495" NAME="?SetWindow@XPreviewHandler@CDocument@@UEAAJPEAUHWND__@@PEBUtagRECT@@@Z" PURGE="-1" COMMENT="" />
    <EXPORT ORDINAL="13494" NAME="?SetWidth@CMFCRibbonEdit@@QEAAXHH@Z" PURGE="-1" COMMENT="" />
    <EXPORT ORDINAL="13492" NAME="?SetVisible@CSmartDockingGroupGuide@@QEAAXHH@Z" PURGE="-1" COMMENT="" />
    <EXPORT ORDINAL="13491" NAME="?SetVirtualRect@CPane@@QEAAXAEBVCRect@@H@Z" PURGE="-1" COMMENT="" />
    <EXPORT ORDINAL="13490" NAME="?SetViewportOrg@CPreviewDC@@UEAA?AVCPoint@@HH@Z" PURGE="-1" COMMENT="" />
    <EXPORT ORDINAL="13489" NAME="?SetViewportOrg@CMetaFileDC@@UEAA?AVCPoint@@HH@Z" PURGE="-1" COMMENT="" />
    <EXPORT ORDINAL="13488" NAME="?SetViewportOrg@CDC@@UEAA?AVCPoint@@HH@Z" PURGE="-1" COMMENT="" />
    <EXPORT ORDINAL="13487" NAME="?SetViewportExt@CPreviewDC@@UEAA?AVCSize@@HH@Z" PURGE="-1" COMMENT="" />
    <EXPORT ORDINAL="13486" NAME="?SetViewportExt@CMetaFileDC@@UEAA?AVCSize@@HH@Z" PURGE="-1" COMMENT="" />
    <EXPORT ORDINAL="13485" NAME="?SetViewportExt@CDC@@UEAA?AVCSize@@HH@Z" PURGE="-1" COMMENT="" />
    <EXPORT ORDINAL="13484" NAME="?SetViewInfo@XOleUIObjInfo@COlePropertiesDialog@@UEAAJKPEAXKHH@Z" PURGE="-1" COMMENT="" />
    <EXPORT ORDINAL="13483" NAME="?SetVertMargin@CMFCColorBar@@QEAAXH@Z" PURGE="-1" COMMENT="" />
    <EXPORT ORDINAL="13482" NAME="?SetValue@CThreadSlotData@@QEAAXHPEAX@Z" PURGE="-1" COMMENT="" />
    <EXPORT ORDINAL="13481" NAME="?SetValue@CMFCPropertyGridProperty@@UEAAXAEBVCOleVariant@@@Z" PURGE="-1" COMMENT="" />
    <EXPORT ORDINAL="13480" NAME="?SetValue@CMFCMaskedEdit@@IEAAHPEBDH@Z" PURGE="-1" COMMENT="" />
    <EXPORT ORDINAL="13479" NAME="?SetValidChars@CMFCMaskedEdit@@QEAAXPEBD@Z" PURGE="-1" COMMENT="" />
    <EXPORT ORDINAL="13493" NAME="?SetVSDotNetLook@CMFCPropertyGridCtrl@@QEAAXH@Z" PURGE="-1" COMMENT="" />
    <EXPORT ORDINAL="13478" NAME="?SetUserImages@CMFCToolBar@@SAHPEAVCMFCToolBarImages@@@Z" PURGE="-1" COMMENT="" />
    <EXPORT ORDINAL="13477" NAME="?SetUserCategory@CMFCToolBarsCustomizeDialog@@QEAAHPEBD@Z" PURGE="-1" COMMENT="" />
    <EXPORT ORDINAL="13476" NAME="?SetUserCategory@CMFCToolBarsCommandsPropertyPage@@QEAAXPEBD@Z" PURGE="-1" COMMENT="" />
    <EXPORT ORDINAL="13475" NAME="?SetUseGlobalTheme@CMFCVisualManagerOffice2003@@SAXH@Z" PURGE="-1" COMMENT="" />
    <EXPORT ORDINAL="13469" NAME="?SetUpdateMethod@CRecordset@@IEAAXXZ" PURGE="-1" COMMENT="" />
    <EXPORT ORDINAL="13468" NAME="?SetUpByID@CPaneContainer@@QEAAHIPEAVCDockablePane@@@Z" PURGE="-1" COMMENT="" />
    <EXPORT ORDINAL="13474" NAME="?SetURLPrefix@CMFCLinkCtrl@@QEAAXPEBD@Z" PURGE="-1" COMMENT="" />
    <EXPORT ORDINAL="13473" NAME="?SetURL@CMFCLinkCtrl@@QEAAXPEBD@Z" PURGE="-1" COMMENT="" />
    <EXPORT ORDINAL="13465" NAME="?SetType@CProperty@@QEAAXK@Z" PURGE="-1" COMMENT="" />
    <EXPORT ORDINAL="13464" NAME="?SetType@CMFCColorPickerCtrl@@QEAAXW4COLORTYPE@1@@Z" PURGE="-1" COMMENT="" />
    <EXPORT ORDINAL="13463" NAME="?SetTwoRowsWithSibling@CMFCToolBar@@QEAAXXZ" PURGE="-1" COMMENT="" />
    <EXPORT ORDINAL="13462" NAME="?SetTwipSize@CMFCToolBarFontSizeComboBox@@QEAAXH@Z" PURGE="-1" COMMENT="" />
    <EXPORT ORDINAL="13461" NAME="?SetTransparentColor@CMFCOutlookBarPane@@QEAAXK@Z" PURGE="-1" COMMENT="" />
    <EXPORT ORDINAL="13460" NAME="?SetTransform@CRenderTarget@@QEAAXPEBUD2D_MATRIX_3X2_F@@@Z" PURGE="-1" COMMENT="" />
    <EXPORT ORDINAL="13459" NAME="?SetTransform@CRenderTarget@@QEAAXAEBUD2D_MATRIX_3X2_F@@@Z" PURGE="-1" COMMENT="" />
    <EXPORT ORDINAL="13458" NAME="?SetTransform@CD2DBrush@@QEAAXPEBUD2D_MATRIX_3X2_F@@@Z" PURGE="-1" COMMENT="" />
    <EXPORT ORDINAL="13457" NAME="?SetTopLeftOffset@CPreviewDC@@QEAAXVCSize@@@Z" PURGE="-1" COMMENT="" />
    <EXPORT ORDINAL="13456" NAME="?SetTooltipText@CTooltipManager@@SAXPEAUtagTOOLINFOA@@PEAVCToolTipCtrl@@IV?$CStringT@DV?$StrTraitMFC_DLL@DV?$ChTraitsCRT@D@ATL@@@@@ATL@@PEBD@Z" PURGE="-1" COMMENT="" />
    <EXPORT ORDINAL="13454" NAME="?SetTooltipParams@CTooltipManager@@QEAAXIPEAUCRuntimeClass@@PEAVCMFCToolTipInfo@@@Z" PURGE="-1" COMMENT="" />
    <EXPORT ORDINAL="13453" NAME="?SetTooltipFixedWidth@CMFCRibbonBar@@QEAAXHH@Z" PURGE="-1" COMMENT="" />
    <EXPORT ORDINAL="13452" NAME="?SetTooltip@CMFCButton@@QEAAXPEBD@Z" PURGE="-1" COMMENT="" />
    <EXPORT ORDINAL="13449" NAME="?SetToolbarSize@CPreviewViewEx@@IEAAXXZ" PURGE="-1" COMMENT="" />
    <EXPORT ORDINAL="13448" NAME="?SetToolbarImageList@CMFCOutlookBarTabCtrl@@QEAAHIHK@Z" PURGE="-1" COMMENT="" />
    <EXPORT ORDINAL="13455" NAME="?SetToolTipText@CMFCRibbonBaseElement@@UEAAXPEBD@Z" PURGE="-1" COMMENT="" />
    <EXPORT ORDINAL="13451" NAME="?SetToolRect@CToolTipCtrl@@QEAAXPEAVCWnd@@_KPEBUtagRECT@@@Z" PURGE="-1" COMMENT="" />
    <EXPORT ORDINAL="13450" NAME="?SetToolIcon@CUserTool@@UEAAPEAUHICON__@@XZ" PURGE="-1" COMMENT="" />
    <EXPORT ORDINAL="13447" NAME="?SetToolBarBtnText@CMFCToolBar@@QEAAXIPEBDHH@Z" PURGE="-1" COMMENT="" />
    <EXPORT ORDINAL="13446" NAME="?SetToday@CMonthCalCtrl@@QEAAXPEBVCTime@ATL@@@Z" PURGE="-1" COMMENT="" />
    <EXPORT ORDINAL="13445" NAME="?SetToday@CMonthCalCtrl@@QEAAXAEBVCOleDateTime@ATL@@@Z" PURGE="-1" COMMENT="" />
    <EXPORT ORDINAL="13444" NAME="?SetTitle@CRichEditDoc@@UEAAXPEBD@Z" PURGE="-1" COMMENT="" />
    <EXPORT ORDINAL="13443" NAME="?SetTitle@CPropertySheet@@QEAAXPEBDI@Z" PURGE="-1" COMMENT="" />
    <EXPORT ORDINAL="13442" NAME="?SetTitle@CDocument@@UEAAXPEBD@Z" PURGE="-1" COMMENT="" />
    <EXPORT ORDINAL="13441" NAME="?SetTipText@CMFCStatusBar@@QEAAXHPEBD@Z" PURGE="-1" COMMENT="" />
    <EXPORT ORDINAL="13440" NAME="?SetTimeAll@CMFCToolBarDateTimeCtrl@@SAHIPEBVCTime@ATL@@@Z" PURGE="-1" COMMENT="" />
    <EXPORT ORDINAL="13439" NAME="?SetTimeAll@CMFCToolBarDateTimeCtrl@@SAHIPEAU_SYSTEMTIME@@@Z" PURGE="-1" COMMENT="" />
    <EXPORT ORDINAL="13438" NAME="?SetTimeAll@CMFCToolBarDateTimeCtrl@@SAHIAEBVCOleDateTime@ATL@@@Z" PURGE="-1" COMMENT="" />
    <EXPORT ORDINAL="13437" NAME="?SetTime@CMFCToolBarDateTimeCtrl@@QEAAHPEBVCTime@ATL@@@Z" PURGE="-1" COMMENT="" />
    <EXPORT ORDINAL="13436" NAME="?SetTime@CMFCToolBarDateTimeCtrl@@QEAAHPEAU_SYSTEMTIME@@@Z" PURGE="-1" COMMENT="" />
    <EXPORT ORDINAL="13435" NAME="?SetTime@CMFCToolBarDateTimeCtrl@@QEAAHAEBVCOleDateTime@ATL@@@Z" PURGE="-1" COMMENT="" />
    <EXPORT ORDINAL="13434" NAME="?SetTime@CDateTimeCtrl@@QEAAHPEBVCTime@ATL@@@Z" PURGE="-1" COMMENT="" />
    <EXPORT ORDINAL="13433" NAME="?SetTime@CDateTimeCtrl@@QEAAHPEAU_SYSTEMTIME@@@Z" PURGE="-1" COMMENT="" />
    <EXPORT ORDINAL="13432" NAME="?SetTime@CDateTimeCtrl@@QEAAHAEBVCOleDateTime@ATL@@@Z" PURGE="-1" COMMENT="" />
    <EXPORT ORDINAL="13431" NAME="?SetThumbRect@CMFCRibbonSlider@@IEAAXXZ" PURGE="-1" COMMENT="" />
    <EXPORT ORDINAL="13430" NAME="?SetTextValue@CMFCFilterChunkValueImpl@@UEAAJAEBU_tagpropertykey@@PEBDW4tagCHUNKSTATE@@KKKW4tagCHUNK_BREAKTYPE@@@Z" PURGE="-1" COMMENT="" />
    <EXPORT ORDINAL="13429" NAME="?SetTextRenderingParams@CRenderTarget@@QEAAXPEAUIDWriteRenderingParams@@@Z" PURGE="-1" COMMENT="" />
    <EXPORT ORDINAL="13428" NAME="?SetTextJustification@CDC@@QEAAHHH@Z" PURGE="-1" COMMENT="" />
    <EXPORT ORDINAL="13427" NAME="?SetTextColor@XPreviewHandlerVisuals@CDocument@@UEAAJK@Z" PURGE="-1" COMMENT="" />
    <EXPORT ORDINAL="13426" NAME="?SetTextColor@CPreviewDC@@UEAAKK@Z" PURGE="-1" COMMENT="" />
    <EXPORT ORDINAL="13425" NAME="?SetTextColor@CMFCOutlookBarPane@@QEAAXKK@Z" PURGE="-1" COMMENT="" />
    <EXPORT ORDINAL="13424" NAME="?SetTextColor@CDC@@UEAAKK@Z" PURGE="-1" COMMENT="" />
    <EXPORT ORDINAL="13423" NAME="?SetTextCharacterExtra@CDC@@QEAAHH@Z" PURGE="-1" COMMENT="" />
    <EXPORT ORDINAL="13422" NAME="?SetTextAntialiasMode@CRenderTarget@@QEAAXW4D2D1_TEXT_ANTIALIAS_MODE@@@Z" PURGE="-1" COMMENT="" />
    <EXPORT ORDINAL="13421" NAME="?SetTextAlwaysOnRight@CMFCRibbonBaseElement@@UEAAXH@Z" PURGE="-1" COMMENT="" />
    <EXPORT ORDINAL="13420" NAME="?SetTextAlign@CMFCRibbonEdit@@QEAAXH@Z" PURGE="-1" COMMENT="" />
    <EXPORT ORDINAL="13419" NAME="?SetTextAlign@CDC@@QEAAII@Z" PURGE="-1" COMMENT="" />
    <EXPORT ORDINAL="13418" NAME="?SetText@CToolCmdUI@@UEAAXPEBD@Z" PURGE="-1" COMMENT="" />
    <EXPORT ORDINAL="13417" NAME="?SetText@CTestCmdUI@@UEAAXPEBD@Z" PURGE="-1" COMMENT="" />
    <EXPORT ORDINAL="13416" NAME="?SetText@CStatusCmdUI@@UEAAXPEBD@Z" PURGE="-1" COMMENT="" />
    <EXPORT ORDINAL="13415" NAME="?SetText@COleControl@@QEAAXPEBD@Z" PURGE="-1" COMMENT="" />
    <EXPORT ORDINAL="13414" NAME="?SetText@COleCmdUI@@UEAAXPEBD@Z" PURGE="-1" COMMENT="" />
    <EXPORT ORDINAL="13413" NAME="?SetText@CMFCToolBarComboBoxButton@@QEAAXPEBD@Z" PURGE="-1" COMMENT="" />
    <EXPORT ORDINAL="13412" NAME="?SetText@CMFCToolBarCmdUI@@UEAAXPEBD@Z" PURGE="-1" COMMENT="" />
    <EXPORT ORDINAL="13411" NAME="?SetText@CMFCTasksPaneToolBarCmdUI@@UEAAXPEBD@Z" PURGE="-1" COMMENT="" />
    <EXPORT ORDINAL="13410" NAME="?SetText@CMFCStatusBarCmdUI@@UEAAXPEBD@Z" PURGE="-1" COMMENT="" />
    <EXPORT ORDINAL="13409" NAME="?SetText@CMFCRibbonCmdUI@@UEAAXPEBD@Z" PURGE="-1" COMMENT="" />
    <EXPORT ORDINAL="13408" NAME="?SetText@CMFCRibbonButton@@UEAAXPEBD@Z" PURGE="-1" COMMENT="" />
    <EXPORT ORDINAL="13407" NAME="?SetText@CMFCRibbonBaseElement@@UEAAXPEBD@Z" PURGE="-1" COMMENT="" />
    <EXPORT ORDINAL="13406" NAME="?SetText@CMFCCaptionBar@@QEAAXAEBV?$CStringT@DV?$StrTraitMFC_DLL@DV?$ChTraitsCRT@D@ATL@@@@@ATL@@W4BarElementAlignment@1@@Z" PURGE="-1" COMMENT="" />
    <EXPORT ORDINAL="13405" NAME="?SetText@CCmdUI@@UEAAXPEBD@Z" PURGE="-1" COMMENT="" />
    <EXPORT ORDINAL="13404" NAME="?SetTemplate@CFileDialog@@QEAAXPEBD0@Z" PURGE="-1" COMMENT="" />
    <EXPORT ORDINAL="13403" NAME="?SetTemplate@CDialogTemplate@@IEAAHPEBUDLGTEMPLATE@@I@Z" PURGE="-1" COMMENT="" />
    <EXPORT ORDINAL="13402" NAME="?SetTearOff@CMFCToolBarMenuButton@@UEAAXI@Z" PURGE="-1" COMMENT="" />
    <EXPORT ORDINAL="13398" NAME="?SetTaskbarThumbnailClipRect@CMDIChildWndEx@@MEAAHVCRect@@@Z" PURGE="-1" COMMENT="" />
    <EXPORT ORDINAL="13397" NAME="?SetTaskbarTabText@CMDIChildWndEx@@MEAAXPEBD@Z" PURGE="-1" COMMENT="" />
    <EXPORT ORDINAL="13396" NAME="?SetTaskbarTabProperties@CMDIChildWndEx@@QEAAXK@Z" PURGE="-1" COMMENT="" />
    <EXPORT ORDINAL="13395" NAME="?SetTaskbarTabOrder@CMDIClientAreaWnd@@QEAAXXZ" PURGE="-1" COMMENT="" />
    <EXPORT ORDINAL="13394" NAME="?SetTaskbarTabOrder@CMDIChildWndEx@@QEAAXPEAV1@@Z" PURGE="-1" COMMENT="" />
    <EXPORT ORDINAL="13393" NAME="?SetTaskbarTabActive@CMDIChildWndEx@@QEAAXXZ" PURGE="-1" COMMENT="" />
    <EXPORT ORDINAL="13392" NAME="?SetTaskbarOverlayIcon@CFrameWnd@@QEAAHPEAUHICON__@@PEBD@Z" PURGE="-1" COMMENT="" />
    <EXPORT ORDINAL="13391" NAME="?SetTaskbarOverlayIcon@CFrameWnd@@QEAAHIPEBD@Z" PURGE="-1" COMMENT="" />
    <EXPORT ORDINAL="13401" NAME="?SetTaskTextColor@CMFCTasksPane@@QEAAHHHKK@Z" PURGE="-1" COMMENT="" />
    <EXPORT ORDINAL="13400" NAME="?SetTaskPaneCaptionButtons@CMFCTasksPaneFrameWnd@@QEAAXXZ" PURGE="-1" COMMENT="" />
    <EXPORT ORDINAL="13399" NAME="?SetTaskName@CMFCTasksPane@@QEAAHHHPEBD@Z" PURGE="-1" COMMENT="" />
    <EXPORT ORDINAL="13390" NAME="?SetTags@CRenderTarget@@QEAAX_K0@Z" PURGE="-1" COMMENT="" />
    <EXPORT ORDINAL="13387" NAME="?SetTabsOrder@CMFCBaseTabCtrl@@QEAAHAEBV?$CArray@HH@@@Z" PURGE="-1" COMMENT="" />
    <EXPORT ORDINAL="13386" NAME="?SetTabsHeight@CMFCTabCtrl@@MEAAXXZ" PURGE="-1" COMMENT="" />
    <EXPORT ORDINAL="13385" NAME="?SetTabsHeight@CMFCBaseTabCtrl@@UEAAXXZ" PURGE="-1" COMMENT="" />
    <EXPORT ORDINAL="13389" NAME="?SetTabTextColor@CMFCBaseTabCtrl@@UEAAHHK@Z" PURGE="-1" COMMENT="" />
    <EXPORT ORDINAL="13388" NAME="?SetTabStops@CEditView@@QEAAXH@Z" PURGE="-1" COMMENT="" />
    <EXPORT ORDINAL="13384" NAME="?SetTabMaxWidth@CMFCTabCtrl@@QEAAXH@Z" PURGE="-1" COMMENT="" />
    <EXPORT ORDINAL="13383" NAME="?SetTabLabel@CMFCBaseTabCtrl@@UEAAHHAEBV?$CStringT@DV?$StrTraitMFC_DLL@DV?$ChTraitsCRT@D@ATL@@@@@ATL@@@Z" PURGE="-1" COMMENT="" />
    <EXPORT ORDINAL="13382" NAME="?SetTabIconOnly@CMFCBaseTabCtrl@@UEAAHHHH@Z" PURGE="-1" COMMENT="" />
    <EXPORT ORDINAL="13381" NAME="?SetTabIcon@CMFCBaseTabCtrl@@UEAAHHI@Z" PURGE="-1" COMMENT="" />
    <EXPORT ORDINAL="13380" NAME="?SetTabHicon@CMFCBaseTabCtrl@@UEAAHHPEAUHICON__@@@Z" PURGE="-1" COMMENT="" />
    <EXPORT ORDINAL="13379" NAME="?SetTabBorderSize@CMFCBaseTabCtrl@@UEAAXHH@Z" PURGE="-1" COMMENT="" />
    <EXPORT ORDINAL="13378" NAME="?SetTabBkColor@CMFCBaseTabCtrl@@UEAAHHK@Z" PURGE="-1" COMMENT="" />
    <EXPORT ORDINAL="13377" NAME="?SetTabAutoColors@CTabbedPane@@SAXAEBV?$CArray@KK@@@Z" PURGE="-1" COMMENT="" />
    <EXPORT ORDINAL="13376" NAME="?SetSystemTimeValue@CMFCFilterChunkValueImpl@@UEAAJAEBU_tagpropertykey@@AEBU_SYSTEMTIME@@W4tagCHUNKSTATE@@KKKW4tagCHUNK_BREAKTYPE@@@Z" PURGE="-1" COMMENT="" />
    <EXPORT ORDINAL="13375" NAME="?SetSystemFont@CDialogTemplate@@QEAAHG@Z" PURGE="-1" COMMENT="" />
    <EXPORT ORDINAL="13373" NAME="?SetSysString@?$CStringT@_WV?$StrTraitMFC_DLL@_WV?$ChTraitsCRT@_W@ATL@@@@@ATL@@QEBAPEA_WPEAPEA_W@Z" PURGE="-1" COMMENT="" />
    <EXPORT ORDINAL="13374" NAME="?SetSysString@?$CStringT@DV?$StrTraitMFC_DLL@DV?$ChTraitsCRT@D@ATL@@@@@ATL@@QEBAPEA_WPEAPEA_W@Z" PURGE="-1" COMMENT="" />
    <EXPORT ORDINAL="13372" NAME="?SetStyle@CMFCVisualManagerWindows7@@SAHPEBD@Z" PURGE="-1" COMMENT="" />
    <EXPORT ORDINAL="13371" NAME="?SetStyle@CMFCVisualManagerOffice2007@@SAHW4Style@1@PEBD@Z" PURGE="-1" COMMENT="" />
    <EXPORT ORDINAL="13370" NAME="?SetStyle@CMFCToolBarEditBoxButton@@UEAAXI@Z" PURGE="-1" COMMENT="" />
    <EXPORT ORDINAL="13369" NAME="?SetStyle@CMFCToolBarDateTimeCtrl@@UEAAXI@Z" PURGE="-1" COMMENT="" />
    <EXPORT ORDINAL="13368" NAME="?SetStyle@CMFCToolBarComboBoxButton@@UEAAXI@Z" PURGE="-1" COMMENT="" />
    <EXPORT ORDINAL="13367" NAME="?SetString@COleVariant@@QEAAXPEBDG@Z" PURGE="-1" COMMENT="" />
    <EXPORT ORDINAL="13364" NAME="?SetString@?$CSimpleStringT@_W$00@ATL@@QEAAXPEB_WH@Z" PURGE="-1" COMMENT="" />
    <EXPORT ORDINAL="13363" NAME="?SetString@?$CSimpleStringT@_W$00@ATL@@QEAAXPEB_W@Z" PURGE="-1" COMMENT="" />
    <EXPORT ORDINAL="13366" NAME="?SetString@?$CSimpleStringT@D$00@ATL@@QEAAXPEBDH@Z" PURGE="-1" COMMENT="" />
    <EXPORT ORDINAL="13365" NAME="?SetString@?$CSimpleStringT@D$00@ATL@@QEAAXPEBD@Z" PURGE="-1" COMMENT="" />
    <EXPORT ORDINAL="13362" NAME="?SetStretchBltMode@CDC@@QEAAHH@Z" PURGE="-1" COMMENT="" />
    <EXPORT ORDINAL="13361" NAME="?SetStdImage@CMFCButton@@QEAAXW4IMAGES_IDS@CMenuImages@@W4IMAGE_STATE@3@0@Z" PURGE="-1" COMMENT="" />
    <EXPORT ORDINAL="13359" NAME="?SetStatusText@XOleInPlaceFrame@COleFrameHook@@UEAAJPEB_W@Z" PURGE="-1" COMMENT="" />
    <EXPORT ORDINAL="13360" NAME="?SetStatusText@XOleIPFrame@COleControlContainer@@UEAAJPEB_W@Z" PURGE="-1" COMMENT="" />
    <EXPORT ORDINAL="13357" NAME="?SetStatusText@CControlBar@@UEAAH_J@Z" PURGE="-1" COMMENT="" />
    <EXPORT ORDINAL="13358" NAME="?SetStatusText@CControlBar@@UEAAHH@Z" PURGE="-1" COMMENT="" />
    <EXPORT ORDINAL="13356" NAME="?SetStatusBarOfficeXPLook@CMFCVisualManagerOffice2003@@SAXH@Z" PURGE="-1" COMMENT="" />
    <EXPORT ORDINAL="13355" NAME="?SetStatus@CFile@@SAXPEBDAEBUCFileStatus@@PEAVCAtlTransactionManager@ATL@@@Z" PURGE="-1" COMMENT="" />
    <EXPORT ORDINAL="13354" NAME="?SetState@CRecordset@@IEAAXHPEBDK@Z" PURGE="-1" COMMENT="" />
    <EXPORT ORDINAL="13353" NAME="?SetStartPoint@CD2DLinearGradientBrush@@QEAAXVCD2DPointF@@@Z" PURGE="-1" COMMENT="" />
    <EXPORT ORDINAL="13352" NAME="?SetStandardProp@CCmdTarget@@IEAAJPEBUAFX_DISPMAP_ENTRY@@PEAUtagDISPPARAMS@@PEAI@Z" PURGE="-1" COMMENT="" />
    <EXPORT ORDINAL="13351" NAME="?SetStandardButtons@CVSListBoxBase@@QEAAHI@Z" PURGE="-1" COMMENT="" />
    <EXPORT ORDINAL="13350" NAME="?SetSplitCursor@CSplitterWnd@@MEAAXH@Z" PURGE="-1" COMMENT="" />
    <EXPORT ORDINAL="13349" NAME="?SetSortColumn@CMFCListCtrl@@QEAAXHHH@Z" PURGE="-1" COMMENT="" />
    <EXPORT ORDINAL="13348" NAME="?SetSortColumn@CMFCHeaderCtrl@@QEAAXHHH@Z" PURGE="-1" COMMENT="" />
    <EXPORT ORDINAL="13347" NAME="?SetSmartDockingParams@CDockingManager@@SAXAEAVCSmartDockingInfo@@@Z" PURGE="-1" COMMENT="" />
    <EXPORT ORDINAL="13346" NAME="?SetSizes@CToolBar@@QEAAXUtagSIZE@@0@Z" PURGE="-1" COMMENT="" />
    <EXPORT ORDINAL="13345" NAME="?SetSizes@CMFCToolBar@@SAXUtagSIZE@@0@Z" PURGE="-1" COMMENT="" />
    <EXPORT ORDINAL="13344" NAME="?SetSize@CWordArray@@QEAAX_J0@Z" PURGE="-1" COMMENT="" />
    <EXPORT ORDINAL="13343" NAME="?SetSize@CUIntArray@@QEAAX_J0@Z" PURGE="-1" COMMENT="" />
    <EXPORT ORDINAL="13342" NAME="?SetSize@CStringArray@@QEAAX_J0@Z" PURGE="-1" COMMENT="" />
    <EXPORT ORDINAL="13341" NAME="?SetSize@CPtrArray@@QEAAX_J0@Z" PURGE="-1" COMMENT="" />
    <EXPORT ORDINAL="13340" NAME="?SetSize@CObArray@@QEAAX_J0@Z" PURGE="-1" COMMENT="" />
    <EXPORT ORDINAL="13339" NAME="?SetSize@CDWordArray@@QEAAX_J0@Z" PURGE="-1" COMMENT="" />
    <EXPORT ORDINAL="13338" NAME="?SetSize@CByteArray@@QEAAX_J0@Z" PURGE="-1" COMMENT="" />
    <EXPORT ORDINAL="13337" NAME="?SetSize@CArchiveStream@@UEAAJT_ULARGE_INTEGER@@@Z" PURGE="-1" COMMENT="" />
    <EXPORT ORDINAL="13336" NAME="?SetSite@XObjectWithSite@CDocument@@UEAAJPEAUIUnknown@@@Z" PURGE="-1" COMMENT="" />
    <EXPORT ORDINAL="13335" NAME="?SetSite@CPrintDialogEx@@UEAAJPEAUIUnknown@@@Z" PURGE="-1" COMMENT="" />
    <EXPORT ORDINAL="13334" NAME="?SetSingleImage@CMFCToolBarImages@@QEAAXXZ" PURGE="-1" COMMENT="" />
    <EXPORT ORDINAL="13333" NAME="?SetSiblingToolBar@CMFCToolBar@@QEAAXPEAV1@@Z" PURGE="-1" COMMENT="" />
    <EXPORT ORDINAL="13332" NAME="?SetShowAllCommands@CMFCMenuBar@@SAXH@Z" PURGE="-1" COMMENT="" />
    <EXPORT ORDINAL="13331" NAME="?SetServerInfo@CDocTemplate@@QEAAXIIPEAUCRuntimeClass@@0@Z" PURGE="-1" COMMENT="" />
    <EXPORT ORDINAL="13327" NAME="?SetSelectionCheck@CCheckListBox@@IEAAXH@Z" PURGE="-1" COMMENT="" />
    <EXPORT ORDINAL="13325" NAME="?SetSelectionCharFormat@CRichEditCtrl@@QEAAHAEAU_charformat@@@Z" PURGE="-1" COMMENT="" />
    <EXPORT ORDINAL="13326" NAME="?SetSelectionCharFormat@CRichEditCtrl@@QEAAHAEAUCHARFORMAT2A@@@Z" PURGE="-1" COMMENT="" />
    <EXPORT ORDINAL="13324" NAME="?SetSelection@CSliderCtrl@@QEAAXHH@Z" PURGE="-1" COMMENT="" />
    <EXPORT ORDINAL="13323" NAME="?SetSelectedControlItem@CFileDialog@@QEAAJKK@Z" PURGE="-1" COMMENT="" />
    <EXPORT ORDINAL="13330" NAME="?SetSelRange@CMonthCalCtrl@@QEAAHQEAU_SYSTEMTIME@@0@Z" PURGE="-1" COMMENT="" />
    <EXPORT ORDINAL="13329" NAME="?SetSelRange@CMonthCalCtrl@@QEAAHAEBVCTime@ATL@@0@Z" PURGE="-1" COMMENT="" />
    <EXPORT ORDINAL="13328" NAME="?SetSelRange@CMonthCalCtrl@@QEAAHAEBVCOleDateTime@ATL@@0@Z" PURGE="-1" COMMENT="" />
    <EXPORT ORDINAL="13322" NAME="?SetSel@CRichEditCtrl@@QEAAXJJ@Z" PURGE="-1" COMMENT="" />
    <EXPORT ORDINAL="13321" NAME="?SetSegmentFlags@CD2DGeometrySink@@QEAAXW4D2D1_PATH_SEGMENT@@@Z" PURGE="-1" COMMENT="" />
    <EXPORT ORDINAL="13320" NAME="?SetSectionName@CPropertySection@@QEAAHPEBD@Z" PURGE="-1" COMMENT="" />
    <EXPORT ORDINAL="13319" NAME="?SetScrollStyle@CSplitterWnd@@QEAAXK@Z" PURGE="-1" COMMENT="" />
    <EXPORT ORDINAL="13318" NAME="?SetScrollSizes@CScrollView@@QEAAXHUtagSIZE@@AEBU2@1@Z" PURGE="-1" COMMENT="" />
    <EXPORT ORDINAL="13317" NAME="?SetScrollSizes@CMFCTasksPane@@IEAAXXZ" PURGE="-1" COMMENT="" />
    <EXPORT ORDINAL="13316" NAME="?SetScrollSizes@CMFCPropertyGridCtrl@@IEAAXXZ" PURGE="-1" COMMENT="" />
    <EXPORT ORDINAL="13315" NAME="?SetScrollRange@CWnd@@QEAAXHHHH@Z" PURGE="-1" COMMENT="" />
    <EXPORT ORDINAL="13314" NAME="?SetScrollPos@CWnd@@QEAAHHHH@Z" PURGE="-1" COMMENT="" />
    <EXPORT ORDINAL="13313" NAME="?SetScrollInfo@CWnd@@QEAAHHPEAUtagSCROLLINFO@@H@Z" PURGE="-1" COMMENT="" />
    <EXPORT ORDINAL="13312" NAME="?SetScrollButtons@CMFCTabCtrl@@IEAAXXZ" PURGE="-1" COMMENT="" />
    <EXPORT ORDINAL="13311" NAME="?SetScrollBar@CMFCPopupMenu@@IEAAXXZ" PURGE="-1" COMMENT="" />
    <EXPORT ORDINAL="13310" NAME="?SetScreenSize@CDockState@@QEAAXAEAVCSize@@@Z" PURGE="-1" COMMENT="" />
    <EXPORT ORDINAL="13307" NAME="?SetScaledSize@CPreviewView@@IEAAXI@Z" PURGE="-1" COMMENT="" />
    <EXPORT ORDINAL="13309" NAME="?SetScaleToFitSize@CScrollView@@QEAAXUtagSIZE@@@Z" PURGE="-1" COMMENT="" />
    <EXPORT ORDINAL="13308" NAME="?SetScaleRatio@CPreviewDC@@QEAAXHH@Z" PURGE="-1" COMMENT="" />
    <EXPORT ORDINAL="13306" NAME="?SetRuntimeClass@CSettingsStoreSP@@SAHPEAUCRuntimeClass@@@Z" PURGE="-1" COMMENT="" />
    <EXPORT ORDINAL="13305" NAME="?SetRowsetSize@CRecordset@@UEAAXK@Z" PURGE="-1" COMMENT="" />
    <EXPORT ORDINAL="13304" NAME="?SetRowsetCursorPosition@CRecordset@@QEAAXGG@Z" PURGE="-1" COMMENT="" />
    <EXPORT ORDINAL="13303" NAME="?SetRowsetCurrencyStatus@CRecordset@@UEAAXFGJ_K@Z" PURGE="-1" COMMENT="" />
    <EXPORT ORDINAL="13302" NAME="?SetRowInfo@CSplitterWnd@@QEAAXHHH@Z" PURGE="-1" COMMENT="" />
    <EXPORT ORDINAL="13301" NAME="?SetRoundedRgn@CMFCToolBar@@IEAAXXZ" PURGE="-1" COMMENT="" />
    <EXPORT ORDINAL="13299" NAME="?SetRollUpTimer@CPaneFrameWnd@@IEAAXXZ" PURGE="-1" COMMENT="" />
    <EXPORT ORDINAL="13298" NAME="?SetResourceID@CMFCControlRendererInfo@@QEAAXPEBD@Z" PURGE="-1" COMMENT="" />
    <EXPORT ORDINAL="13297" NAME="?SetResourceHandle@CMFCVisualManagerWindows7@@SAXPEAUHINSTANCE__@@@Z" PURGE="-1" COMMENT="" />
    <EXPORT ORDINAL="13296" NAME="?SetResourceHandle@CMFCVisualManagerOffice2007@@SAXPEAUHINSTANCE__@@@Z" PURGE="-1" COMMENT="" />
    <EXPORT ORDINAL="13295" NAME="?SetResizeMode@CPaneContainerManager@@UEAAXH@Z" PURGE="-1" COMMENT="" />
    <EXPORT ORDINAL="13294" NAME="?SetResizeMode@CMFCTabCtrl@@QEAAXW4ResizeMode@1@@Z" PURGE="-1" COMMENT="" />
    <EXPORT ORDINAL="13293" NAME="?SetResizeMode@CDockablePane@@QEAAXH@Z" PURGE="-1" COMMENT="" />
    <EXPORT ORDINAL="13292" NAME="?SetRelatedMDIChildFrame@CMDITabProxyWnd@@QEAAXPEAVCMDIChildWndEx@@@Z" PURGE="-1" COMMENT="" />
    <EXPORT ORDINAL="13291" NAME="?SetRelatedList@CMFCShellTreeCtrl@@QEAAXPEAVCMFCShellListCtrl@@@Z" PURGE="-1" COMMENT="" />
    <EXPORT ORDINAL="13290" NAME="?SetRegistryKey@CWinApp@@IEAAXPEBD@Z" PURGE="-1" COMMENT="" />
    <EXPORT ORDINAL="13289" NAME="?SetRegistryKey@CWinApp@@IEAAXI@Z" PURGE="-1" COMMENT="" />
    <EXPORT ORDINAL="13288" NAME="?SetRegistryBase@CWinAppEx@@QEAAPEBDPEBD@Z" PURGE="-1" COMMENT="" />
    <EXPORT ORDINAL="13287" NAME="?SetRectInContainer@COleControl@@QEAAHPEBUtagRECT@@@Z" PURGE="-1" COMMENT="" />
    <EXPORT ORDINAL="13286" NAME="?SetRectComplex@XOleDocumentView@CDocObjectServer@@UEAAJPEAUtagRECT@@000@Z" PURGE="-1" COMMENT="" />
    <EXPORT ORDINAL="13285" NAME="?SetRect@XPreviewHandler@CDocument@@UEAAJPEBUtagRECT@@@Z" PURGE="-1" COMMENT="" />
    <EXPORT ORDINAL="13284" NAME="?SetRect@XOleDocumentView@CDocObjectServer@@UEAAJPEAUtagRECT@@@Z" PURGE="-1" COMMENT="" />
    <EXPORT ORDINAL="13283" NAME="?SetRect@CMFCPreviewCtrlImpl@@UEAAXPEBUtagRECT@@H@Z" PURGE="-1" COMMENT="" />
    <EXPORT ORDINAL="13282" NAME="?SetRecentlyUsedMenus@CMFCMenuBar@@SAXH@Z" PURGE="-1" COMMENT="" />
    <EXPORT ORDINAL="13281" NAME="?SetReadBufferSize@CInternetFile@@QEAAHI@Z" PURGE="-1" COMMENT="" />
    <EXPORT ORDINAL="13280" NAME="?SetRange@CSliderCtrl@@QEAAXHHH@Z" PURGE="-1" COMMENT="" />
    <EXPORT ORDINAL="13279" NAME="?SetRange@CMonthCalCtrl@@QEAAHQEAU_SYSTEMTIME@@0@Z" PURGE="-1" COMMENT="" />
    <EXPORT ORDINAL="13278" NAME="?SetRange@CMonthCalCtrl@@QEAAHPEBVCTime@ATL@@0@Z" PURGE="-1" COMMENT="" />
    <EXPORT ORDINAL="13277" NAME="?SetRange@CMonthCalCtrl@@QEAAHPEBVCOleDateTime@ATL@@0@Z" PURGE="-1" COMMENT="" />
    <EXPORT ORDINAL="13276" NAME="?SetRange@CMFCToolBarSpinEditBoxButton@@QEAAXHH@Z" PURGE="-1" COMMENT="" />
    <EXPORT ORDINAL="13275" NAME="?SetRange@CMFCRibbonSlider@@QEAAXHH@Z" PURGE="-1" COMMENT="" />
    <EXPORT ORDINAL="13274" NAME="?SetRange@CMFCRibbonProgressBar@@QEAAXHH@Z" PURGE="-1" COMMENT="" />
    <EXPORT ORDINAL="13273" NAME="?SetRange@CDateTimeCtrl@@QEAAHPEBVCTime@ATL@@0@Z" PURGE="-1" COMMENT="" />
    <EXPORT ORDINAL="13272" NAME="?SetRange@CDateTimeCtrl@@QEAAHPEBVCOleDateTime@ATL@@0@Z" PURGE="-1" COMMENT="" />
    <EXPORT ORDINAL="13271" NAME="?SetRadiusY@CD2DRadialGradientBrush@@QEAAXM@Z" PURGE="-1" COMMENT="" />
    <EXPORT ORDINAL="13270" NAME="?SetRadiusX@CD2DRadialGradientBrush@@QEAAXM@Z" PURGE="-1" COMMENT="" />
    <EXPORT ORDINAL="13269" NAME="?SetRadio@CTestCmdUI@@UEAAXH@Z" PURGE="-1" COMMENT="" />
    <EXPORT ORDINAL="13268" NAME="?SetRadio@CMFCToolBarMenuButton@@UEAAXXZ" PURGE="-1" COMMENT="" />
    <EXPORT ORDINAL="13267" NAME="?SetRadio@CMFCToolBarCmdUI@@UEAAXH@Z" PURGE="-1" COMMENT="" />
    <EXPORT ORDINAL="13266" NAME="?SetRadio@CMFCRibbonCmdUI@@UEAAXH@Z" PURGE="-1" COMMENT="" />
    <EXPORT ORDINAL="13265" NAME="?SetRadio@CCmdUI@@UEAAXH@Z" PURGE="-1" COMMENT="" />
    <EXPORT ORDINAL="13300" NAME="?SetROP2@CDC@@QEAAHH@Z" PURGE="-1" COMMENT="" />
    <EXPORT ORDINAL="13264" NAME="?SetQuickMode@CMFCPopupMenu@@QEAAXXZ" PURGE="-1" COMMENT="" />
    <EXPORT ORDINAL="13263" NAME="?SetQuickAccessToolbarOnTop@CMFCRibbonBar@@QEAAXH@Z" PURGE="-1" COMMENT="" />
    <EXPORT ORDINAL="13262" NAME="?SetQuickAccessDefaultState@CMFCRibbonBar@@QEAAXAEBVCMFCRibbonQuickAccessToolBarDefaultState@@@Z" PURGE="-1" COMMENT="" />
    <EXPORT ORDINAL="13261" NAME="?SetQuickAccessCommands@CMFCRibbonBar@@QEAAXAEBV?$CList@II@@H@Z" PURGE="-1" COMMENT="" />
    <EXPORT ORDINAL="13260" NAME="?SetProxy@XAccessibleServer@CWnd@@UEAAJPEAUIAccessibleProxy@@@Z" PURGE="-1" COMMENT="" />
    <EXPORT ORDINAL="13259" NAME="?SetProxy@CWnd@@UEAAJPEAUIAccessibleProxy@@@Z" PURGE="-1" COMMENT="" />
    <EXPORT ORDINAL="13258" NAME="?SetProtectedCommands@CMFCToolBarButton@@SAXAEBV?$CList@II@@@Z" PURGE="-1" COMMENT="" />
    <EXPORT ORDINAL="13248" NAME="?SetPropsetData@COleControl@@IEAAHPEAUtagFORMATETC@@PEAUtagSTGMEDIUM@@AEBU_GUID@@@Z" PURGE="-1" COMMENT="" />
    <EXPORT ORDINAL="13245" NAME="?SetPropertyV@COleControlSite@@UEAAXJGPEAD@Z" PURGE="-1" COMMENT="" />
    <EXPORT ORDINAL="13244" NAME="?SetProperty@CWnd@@QEAAXJGZZ" PURGE="-1" COMMENT="" />
    <EXPORT ORDINAL="13243" NAME="?SetProperty@COleDispatchDriver@@QEAAXJGZZ" PURGE="-1" COMMENT="" />
    <EXPORT ORDINAL="13242" NAME="?SetProperty@COleControlSite@@UEAAXJGZZ" PURGE="-1" COMMENT="" />
    <EXPORT ORDINAL="13241" NAME="?SetProperties@CFileDialog@@QEAAHPEB_W@Z" PURGE="-1" COMMENT="" />
    <EXPORT ORDINAL="13257" NAME="?SetPropText@COlePropertyPage@@QEAAHPEBDAEAV?$CStringT@DV?$StrTraitMFC_DLL@DV?$ChTraitsCRT@D@ATL@@@@@ATL@@@Z" PURGE="-1" COMMENT="" />
    <EXPORT ORDINAL="13256" NAME="?SetPropText@COlePropertyPage@@QEAAHPEBDAEAN@Z" PURGE="-1" COMMENT="" />
    <EXPORT ORDINAL="13255" NAME="?SetPropText@COlePropertyPage@@QEAAHPEBDAEAM@Z" PURGE="-1" COMMENT="" />
    <EXPORT ORDINAL="13254" NAME="?SetPropText@COlePropertyPage@@QEAAHPEBDAEAK@Z" PURGE="-1" COMMENT="" />
    <EXPORT ORDINAL="13253" NAME="?SetPropText@COlePropertyPage@@QEAAHPEBDAEAJ@Z" PURGE="-1" COMMENT="" />
    <EXPORT ORDINAL="13252" NAME="?SetPropText@COlePropertyPage@@QEAAHPEBDAEAI@Z" PURGE="-1" COMMENT="" />
    <EXPORT ORDINAL="13251" NAME="?SetPropText@COlePropertyPage@@QEAAHPEBDAEAH@Z" PURGE="-1" COMMENT="" />
    <EXPORT ORDINAL="13250" NAME="?SetPropText@COlePropertyPage@@QEAAHPEBDAEAF@Z" PURGE="-1" COMMENT="" />
    <EXPORT ORDINAL="13249" NAME="?SetPropText@COlePropertyPage@@QEAAHPEBDAEAE@Z" PURGE="-1" COMMENT="" />
    <EXPORT ORDINAL="13247" NAME="?SetPropRadio@COlePropertyPage@@QEAAHPEBDH@Z" PURGE="-1" COMMENT="" />
    <EXPORT ORDINAL="13246" NAME="?SetPropIndex@COlePropertyPage@@QEAAHPEBDH@Z" PURGE="-1" COMMENT="" />
    <EXPORT ORDINAL="13240" NAME="?SetPropCheck@COlePropertyPage@@QEAAHPEBDH@Z" PURGE="-1" COMMENT="" />
    <EXPORT ORDINAL="13239" NAME="?SetProgressBarState@CFrameWnd@@QEAAXW4TBPFLAG@@@Z" PURGE="-1" COMMENT="" />
    <EXPORT ORDINAL="13238" NAME="?SetProgressBarRange@CFrameWnd@@QEAAXHH@Z" PURGE="-1" COMMENT="" />
    <EXPORT ORDINAL="13237" NAME="?SetProgressBarPosition@CFrameWnd@@QEAAXH@Z" PURGE="-1" COMMENT="" />
    <EXPORT ORDINAL="13233" NAME="?SetPrinterFont@CEditView@@QEAAXPEAVCFont@@@Z" PURGE="-1" COMMENT="" />
    <EXPORT ORDINAL="13236" NAME="?SetPrintView@CPreviewView@@QEAAHPEAVCView@@@Z" PURGE="-1" COMMENT="" />
    <EXPORT ORDINAL="13235" NAME="?SetPrintPreviewMode@CMFCRibbonBar@@IEAAXH@Z" PURGE="-1" COMMENT="" />
    <EXPORT ORDINAL="13234" NAME="?SetPrintPreviewMode@CDockingManager@@QEAAXHPEAUCPrintPreviewState@@@Z" PURGE="-1" COMMENT="" />
    <EXPORT ORDINAL="13232" NAME="?SetPrintDevice@COleClientItem@@QEAAHPEBUtagPDA@@@Z" PURGE="-1" COMMENT="" />
    <EXPORT ORDINAL="13231" NAME="?SetPrintDevice@COleClientItem@@QEAAHPEBUtagDVTARGETDEVICE@@@Z" PURGE="-1" COMMENT="" />
    <EXPORT ORDINAL="13230" NAME="?SetPreviewVisuals@CMFCPreviewCtrlImpl@@UEAAXKKPEBUtagLOGFONTW@@@Z" PURGE="-1" COMMENT="" />
    <EXPORT ORDINAL="13229" NAME="?SetPreviewInfo@CDocTemplate@@QEAAXIPEAUCRuntimeClass@@0@Z" PURGE="-1" COMMENT="" />
    <EXPORT ORDINAL="13228" NAME="?SetPreferedSize@CMFCRibbonPanelMenuBar@@IEAAXVCSize@@@Z" PURGE="-1" COMMENT="" />
    <EXPORT ORDINAL="13227" NAME="?SetPreDockState@CPaneFrameWnd@@UEAAHW4AFX_PREDOCK_STATE@@PEAVCBasePane@@W4AFX_DOCK_METHOD@@@Z" PURGE="-1" COMMENT="" />
    <EXPORT ORDINAL="13226" NAME="?SetPreDockState@CMultiPaneFrameWnd@@UEAAHW4AFX_PREDOCK_STATE@@PEAVCBasePane@@W4AFX_DOCK_METHOD@@@Z" PURGE="-1" COMMENT="" />
    <EXPORT ORDINAL="13225" NAME="?SetPos@CMFCRibbonSlider@@QEAAXHH@Z" PURGE="-1" COMMENT="" />
    <EXPORT ORDINAL="13224" NAME="?SetPos@CMFCRibbonProgressBar@@QEAAXHH@Z" PURGE="-1" COMMENT="" />
    <EXPORT ORDINAL="13223" NAME="?SetPolyFillMode@CDC@@QEAAHH@Z" PURGE="-1" COMMENT="" />
    <EXPORT ORDINAL="13222" NAME="?SetPixel@CDrawingManager@@SAXPEAKHHHHK@Z" PURGE="-1" COMMENT="" />
    <EXPORT ORDINAL="13221" NAME="?SetPictureDispatch@CPictureHolder@@QEAAXPEAUIPictureDisp@@@Z" PURGE="-1" COMMENT="" />
    <EXPORT ORDINAL="13220" NAME="?SetPathName@CRichEditDoc@@UEAAXPEBDH@Z" PURGE="-1" COMMENT="" />
    <EXPORT ORDINAL="13219" NAME="?SetPathName@COleDocument@@UEAAXPEBDH@Z" PURGE="-1" COMMENT="" />
    <EXPORT ORDINAL="13218" NAME="?SetPathName@CDocument@@UEAAXPEBDH@Z" PURGE="-1" COMMENT="" />
    <EXPORT ORDINAL="13217" NAME="?SetParentRibbonElement@CMFCPopupMenu@@QEAAXPEAVCMFCRibbonBaseElement@@@Z" PURGE="-1" COMMENT="" />
    <EXPORT ORDINAL="13216" NAME="?SetParentRibbonBar@CMFCRibbonButtonsGroup@@MEAAXPEAVCMFCRibbonBar@@@Z" PURGE="-1" COMMENT="" />
    <EXPORT ORDINAL="13215" NAME="?SetParentRibbonBar@CMFCRibbonButton@@MEAAXPEAVCMFCRibbonBar@@@Z" PURGE="-1" COMMENT="" />
    <EXPORT ORDINAL="13214" NAME="?SetParentMenu@CMFCRibbonButtonsGroup@@MEAAXPEAVCMFCRibbonPanelMenuBar@@@Z" PURGE="-1" COMMENT="" />
    <EXPORT ORDINAL="13213" NAME="?SetParentMenu@CMFCRibbonBaseElement@@UEAAXPEAVCMFCRibbonPanelMenuBar@@@Z" PURGE="-1" COMMENT="" />
    <EXPORT ORDINAL="13212" NAME="?SetParentCategory@CMFCRibbonGallery@@MEAAXPEAVCMFCRibbonCategory@@@Z" PURGE="-1" COMMENT="" />
    <EXPORT ORDINAL="13211" NAME="?SetParentCategory@CMFCRibbonButtonsGroup@@UEAAXPEAVCMFCRibbonCategory@@@Z" PURGE="-1" COMMENT="" />
    <EXPORT ORDINAL="13210" NAME="?SetParentCategory@CMFCRibbonButton@@UEAAXPEAVCMFCRibbonCategory@@@Z" PURGE="-1" COMMENT="" />
    <EXPORT ORDINAL="13209" NAME="?SetParentCategory@CMFCRibbonBaseElement@@UEAAXPEAVCMFCRibbonCategory@@@Z" PURGE="-1" COMMENT="" />
    <EXPORT ORDINAL="13208" NAME="?SetParentAnimationObjects@CAnimationBaseObject@@MEAAXXZ" PURGE="-1" COMMENT="" />
    <EXPORT ORDINAL="13207" NAME="?SetParams@CMFCToolTipCtrl@@QEAAXPEAVCMFCToolTipInfo@@@Z" PURGE="-1" COMMENT="" />
    <EXPORT ORDINAL="13206" NAME="?SetParamNull@CRecordset@@QEAAXHH@Z" PURGE="-1" COMMENT="" />
    <EXPORT ORDINAL="13205" NAME="?SetParaFormat@CRichEditView@@QEAAHAEAUPARAFORMAT2@@@Z" PURGE="-1" COMMENT="" />
    <EXPORT ORDINAL="13203" NAME="?SetParaFormat@CRichEditCtrl@@QEAAHAEAU_paraformat@@@Z" PURGE="-1" COMMENT="" />
    <EXPORT ORDINAL="13204" NAME="?SetParaFormat@CRichEditCtrl@@QEAAHAEAUPARAFORMAT2@@@Z" PURGE="-1" COMMENT="" />
    <EXPORT ORDINAL="13195" NAME="?SetPanelsLayout@CMFCRibbonCategory@@IEAAHH@Z" PURGE="-1" COMMENT="" />
    <EXPORT ORDINAL="13202" NAME="?SetPaneWidth@CMFCStatusBar@@QEAAXHH@Z" PURGE="-1" COMMENT="" />
    <EXPORT ORDINAL="13201" NAME="?SetPaneTextColor@CMFCStatusBar@@QEAAXHKH@Z" PURGE="-1" COMMENT="" />
    <EXPORT ORDINAL="13200" NAME="?SetPaneText@CStatusBar@@QEAAHHPEBDH@Z" PURGE="-1" COMMENT="" />
    <EXPORT ORDINAL="13199" NAME="?SetPaneText@CMFCStatusBar@@UEAAHHPEBDH@Z" PURGE="-1" COMMENT="" />
    <EXPORT ORDINAL="13198" NAME="?SetPaneStyle@CStatusBar@@QEAAXHI@Z" PURGE="-1" COMMENT="" />
    <EXPORT ORDINAL="13197" NAME="?SetPaneStyle@CMFCStatusBar@@QEAAXHI@Z" PURGE="-1" COMMENT="" />
    <EXPORT ORDINAL="13196" NAME="?SetPaneProgress@CMFCStatusBar@@QEAAXHJH@Z" PURGE="-1" COMMENT="" />
    <EXPORT ORDINAL="13194" NAME="?SetPaneInfo@CStatusBar@@QEAAXHIIH@Z" PURGE="-1" COMMENT="" />
    <EXPORT ORDINAL="13193" NAME="?SetPaneInfo@CMFCStatusBar@@QEAAXHIIH@Z" PURGE="-1" COMMENT="" />
    <EXPORT ORDINAL="13192" NAME="?SetPaneIcon@CMFCStatusBar@@QEAAXHPEAUHICON__@@H@Z" PURGE="-1" COMMENT="" />
    <EXPORT ORDINAL="13191" NAME="?SetPaneIcon@CMFCStatusBar@@QEAAXHPEAUHBITMAP__@@KH@Z" PURGE="-1" COMMENT="" />
    <EXPORT ORDINAL="13190" NAME="?SetPaneContainerManager@CPaneContainer@@IEAAXPEAVCPaneContainerManager@@H@Z" PURGE="-1" COMMENT="" />
    <EXPORT ORDINAL="13189" NAME="?SetPaneContainer@CPaneContainer@@QEAAXPEAV1@H@Z" PURGE="-1" COMMENT="" />
    <EXPORT ORDINAL="13188" NAME="?SetPaneBackgroundColor@CMFCStatusBar@@QEAAXHKH@Z" PURGE="-1" COMMENT="" />
    <EXPORT ORDINAL="13187" NAME="?SetPaneAnimation@CMFCStatusBar@@QEAAXHPEAU_IMAGELIST@@IH@Z" PURGE="-1" COMMENT="" />
    <EXPORT ORDINAL="13186" NAME="?SetPaneAlignment@CMFCReBar@@UEAAXK@Z" PURGE="-1" COMMENT="" />
    <EXPORT ORDINAL="13185" NAME="?SetPane@CPaneContainer@@QEAAXPEAVCDockablePane@@H@Z" PURGE="-1" COMMENT="" />
    <EXPORT ORDINAL="13184" NAME="?SetPalette@CMFCRibbonGallery@@QEAAXIH@Z" PURGE="-1" COMMENT="" />
    <EXPORT ORDINAL="13183" NAME="?SetPalette@CMFCRibbonGallery@@QEAAXAEAVCMFCToolBarImages@@@Z" PURGE="-1" COMMENT="" />
    <EXPORT ORDINAL="13182" NAME="?SetPalette@CMFCRibbonColorButton@@QEAAXPEAVCPalette@@@Z" PURGE="-1" COMMENT="" />
    <EXPORT ORDINAL="13181" NAME="?SetPalette@CMFCColorPickerCtrl@@QEAAXPEAVCPalette@@@Z" PURGE="-1" COMMENT="" />
    <EXPORT ORDINAL="13180" NAME="?SetPalette@CMFCColorButton@@QEAAXPEAVCPalette@@@Z" PURGE="-1" COMMENT="" />
    <EXPORT ORDINAL="13179" NAME="?SetPageTwo@CMFCColorDialog@@QEAAXEEE@Z" PURGE="-1" COMMENT="" />
    <EXPORT ORDINAL="13178" NAME="?SetPageSite@XPropertyPage@COlePropertyPage@@UEAAJPEAUIPropertyPageSite@@@Z" PURGE="-1" COMMENT="" />
    <EXPORT ORDINAL="13177" NAME="?SetPageOne@CMFCColorDialog@@QEAAXEEE@Z" PURGE="-1" COMMENT="" />
    <EXPORT ORDINAL="13176" NAME="?SetPageName@COlePropertyPage@@QEAAXPEBD@Z" PURGE="-1" COMMENT="" />
    <EXPORT ORDINAL="13175" NAME="?SetPageCaption@CMFCTasksPane@@QEAAXHPEBD@Z" PURGE="-1" COMMENT="" />
    <EXPORT ORDINAL="13174" NAME="?SetPageButtonTextAlign@CMFCOutlookBarTabCtrl@@QEAAXIH@Z" PURGE="-1" COMMENT="" />
    <EXPORT ORDINAL="13173" NAME="?SetOwnerList@CMFCPropertyGridProperty@@IEAAXPEAVCMFCPropertyGridCtrl@@@Z" PURGE="-1" COMMENT="" />
    <EXPORT ORDINAL="13172" NAME="?SetOwner@CToolBar@@QEAAXPEAVCWnd@@@Z" PURGE="-1" COMMENT="" />
    <EXPORT ORDINAL="13171" NAME="?SetOutputDC@CPreviewDC@@UEAAXPEAUHDC__@@@Z" PURGE="-1" COMMENT="" />
    <EXPORT ORDINAL="13170" NAME="?SetOutputDC@CMetaFileDC@@MEAAXPEAUHDC__@@@Z" PURGE="-1" COMMENT="" />
    <EXPORT ORDINAL="13169" NAME="?SetOutputDC@CDC@@UEAAXPEAUHDC__@@@Z" PURGE="-1" COMMENT="" />
    <EXPORT ORDINAL="13168" NAME="?SetOuterRect@CSmartDockingManager@@QEAAXVCRect@@@Z" PURGE="-1" COMMENT="" />
    <EXPORT ORDINAL="13166" NAME="?SetOriginalValue@CMFCPropertyGridProperty@@QEAAXAEBVCOleVariant@@@Z" PURGE="-1" COMMENT="" />
    <EXPORT ORDINAL="13165" NAME="?SetOriginalColor@CMFCColorPickerCtrl@@QEAAXK@Z" PURGE="-1" COMMENT="" />
    <EXPORT ORDINAL="13164" NAME="?SetOriginal@CMFCRibbonButtonsGroup@@MEAAXPEAVCMFCRibbonBaseElement@@@Z" PURGE="-1" COMMENT="" />
    <EXPORT ORDINAL="13163" NAME="?SetOriginal@CMFCRibbonButton@@MEAAXPEAVCMFCRibbonBaseElement@@@Z" PURGE="-1" COMMENT="" />
    <EXPORT ORDINAL="13162" NAME="?SetOriginal@CMFCRibbonBaseElement@@UEAAXPEAV1@@Z" PURGE="-1" COMMENT="" />
    <EXPORT ORDINAL="13161" NAME="?SetOrigButtons@CMFCToolBar@@QEAAXAEBVCObList@@@Z" PURGE="-1" COMMENT="" />
    <EXPORT ORDINAL="13160" NAME="?SetOrderArray@CHeaderCtrl@@QEAAHHPEAH@Z" PURGE="-1" COMMENT="" />
    <EXPORT ORDINAL="13159" NAME="?SetOptions@CMFCCmdUsageCount@@SAHII@Z" PURGE="-1" COMMENT="" />
    <EXPORT ORDINAL="13158" NAME="?SetOption@CInternetSession@@QEAAHKPEAXKK@Z" PURGE="-1" COMMENT="" />
    <EXPORT ORDINAL="13157" NAME="?SetOption@CInternetFile@@QEAAHKPEAXKK@Z" PURGE="-1" COMMENT="" />
    <EXPORT ORDINAL="13156" NAME="?SetOption@CInternetConnection@@QEAAHKPEAXKK@Z" PURGE="-1" COMMENT="" />
    <EXPORT ORDINAL="13155" NAME="?SetOpacity@CD2DBrush@@QEAAXM@Z" PURGE="-1" COMMENT="" />
    <EXPORT ORDINAL="13154" NAME="?SetOneRowWithSibling@CMFCToolBar@@QEAAXXZ" PURGE="-1" COMMENT="" />
    <EXPORT ORDINAL="13153" NAME="?SetOfficeStyleMenus@CMFCVisualManagerWindows@@QEAAXH@Z" PURGE="-1" COMMENT="" />
    <EXPORT ORDINAL="13152" NAME="?SetOccDialogInfo@CWnd@@MEAAHPEAU_AFX_OCC_DIALOG_INFO@@@Z" PURGE="-1" COMMENT="" />
    <EXPORT ORDINAL="13151" NAME="?SetOccDialogInfo@CPaneDialog@@UEAAHPEAU_AFX_OCC_DIALOG_INFO@@@Z" PURGE="-1" COMMENT="" />
    <EXPORT ORDINAL="13150" NAME="?SetOccDialogInfo@CFormView@@MEAAHPEAU_AFX_OCC_DIALOG_INFO@@@Z" PURGE="-1" COMMENT="" />
    <EXPORT ORDINAL="13149" NAME="?SetOccDialogInfo@CDialogBar@@MEAAHPEAU_AFX_OCC_DIALOG_INFO@@@Z" PURGE="-1" COMMENT="" />
    <EXPORT ORDINAL="13148" NAME="?SetOccDialogInfo@CDialog@@MEAAHPEAU_AFX_OCC_DIALOG_INFO@@@Z" PURGE="-1" COMMENT="" />
    <EXPORT ORDINAL="13147" NAME="?SetObjects@XPropertyPage@COlePropertyPage@@UEAAJKPEAPEAUIUnknown@@@Z" PURGE="-1" COMMENT="" />
    <EXPORT ORDINAL="13146" NAME="?SetObjectRects@XOleInPlaceObject@COleServerDoc@@UEAAJPEBUtagRECT@@0@Z" PURGE="-1" COMMENT="" />
    <EXPORT ORDINAL="13145" NAME="?SetObjectRects@XOleInPlaceObject@COleControl@@UEAAJPEBUtagRECT@@0@Z" PURGE="-1" COMMENT="" />
    <EXPORT ORDINAL="13167" NAME="?SetOSVersion@CPropertySet@@QEAAXK@Z" PURGE="-1" COMMENT="" />
    <EXPORT ORDINAL="13144" NAME="?SetNullParamStatus@CRecordset@@QEAAXK@Z" PURGE="-1" COMMENT="" />
    <EXPORT ORDINAL="13143" NAME="?SetNullFieldStatus@CRecordset@@QEAAXK@Z" PURGE="-1" COMMENT="" />
    <EXPORT ORDINAL="13139" NAME="?SetNotifyParentID@CMFCRibbonGallery@@IEAAXH@Z" PURGE="-1" COMMENT="" />
    <EXPORT ORDINAL="13142" NAME="?SetNotSupported@COleControl@@QEAAXXZ" PURGE="-1" COMMENT="" />
    <EXPORT ORDINAL="13141" NAME="?SetNotSupported@CCmdTarget@@QEAAXXZ" PURGE="-1" COMMENT="" />
    <EXPORT ORDINAL="13140" NAME="?SetNotPermitted@COleControl@@QEAAXXZ" PURGE="-1" COMMENT="" />
    <EXPORT ORDINAL="13138" NAME="?SetNonPermittedCommands@CMFCToolBar@@SAXAEAV?$CList@II@@@Z" PURGE="-1" COMMENT="" />
    <EXPORT ORDINAL="13137" NAME="?SetNewUserToolBarRTC@CFrameImpl@@QEAAXPEAUCRuntimeClass@@@Z" PURGE="-1" COMMENT="" />
    <EXPORT ORDINAL="13136" NAME="?SetNewParent@CGlobalUtils@@QEAAXAEAVCObList@@PEAVCWnd@@H@Z" PURGE="-1" COMMENT="" />
    <EXPORT ORDINAL="13135" NAME="?SetNewColor@CMFCColorDialog@@QEAAXK@Z" PURGE="-1" COMMENT="" />
    <EXPORT ORDINAL="13134" NAME="?SetName@CPropertySection@@QEAAHKPEBD@Z" PURGE="-1" COMMENT="" />
    <EXPORT ORDINAL="13133" NAME="?SetName@CMFCRibbonCategory@@QEAAXPEBD@Z" PURGE="-1" COMMENT="" />
    <EXPORT ORDINAL="13132" NAME="?SetName@CMFCPropertyGridProperty@@QEAAXPEBDH@Z" PURGE="-1" COMMENT="" />
    <EXPORT ORDINAL="13131" NAME="?SetMouseCursorHand@CMFCButton@@QEAAXXZ" PURGE="-1" COMMENT="" />
    <EXPORT ORDINAL="13130" NAME="?SetMouseCursor@CMFCButton@@QEAAXPEAUHICON__@@@Z" PURGE="-1" COMMENT="" />
    <EXPORT ORDINAL="13129" NAME="?SetMoniker@XOleObject@COleServerItem@@UEAAJKPEAUIMoniker@@@Z" PURGE="-1" COMMENT="" />
    <EXPORT ORDINAL="13128" NAME="?SetMoniker@XOleObject@COleServerDoc@@UEAAJKPEAUIMoniker@@@Z" PURGE="-1" COMMENT="" />
    <EXPORT ORDINAL="13127" NAME="?SetMoniker@XOleObject@COleControl@@UEAAJKPEAUIMoniker@@@Z" PURGE="-1" COMMENT="" />
    <EXPORT ORDINAL="13126" NAME="?SetMoniker@XOleObject@CDocObjectServer@@UEAAJKPEAUIMoniker@@@Z" PURGE="-1" COMMENT="" />
    <EXPORT ORDINAL="13125" NAME="?SetModifiedFlag@CRichEditDoc@@UEAAXH@Z" PURGE="-1" COMMENT="" />
    <EXPORT ORDINAL="13124" NAME="?SetModifiedFlag@COlePropertyPage@@QEAAXH@Z" PURGE="-1" COMMENT="" />
    <EXPORT ORDINAL="13123" NAME="?SetModifiedFlag@COleControl@@QEAAXH@Z" PURGE="-1" COMMENT="" />
    <EXPORT ORDINAL="13122" NAME="?SetModifiedFlag@CMFCPropertyGridProperty@@IEAAXXZ" PURGE="-1" COMMENT="" />
    <EXPORT ORDINAL="13121" NAME="?SetModified@CPropertyPage@@QEAAXH@Z" PURGE="-1" COMMENT="" />
    <EXPORT ORDINAL="13120" NAME="?SetMode2003@CMFCOutlookBar@@QEAAXH@Z" PURGE="-1" COMMENT="" />
    <EXPORT ORDINAL="13119" NAME="?SetMessageText@CFrameWnd@@QEAAXPEBD@Z" PURGE="-1" COMMENT="" />
    <EXPORT ORDINAL="13118" NAME="?SetMessageText@CFrameWnd@@QEAAXI@Z" PURGE="-1" COMMENT="" />
    <EXPORT ORDINAL="13117" NAME="?SetMenuSizes@CMFCToolBar@@SAXUtagSIZE@@0@Z" PURGE="-1" COMMENT="" />
    <EXPORT ORDINAL="13116" NAME="?SetMenuPaletteMode@CMFCToolBarMenuButton@@QEAAXHH@Z" PURGE="-1" COMMENT="" />
    <EXPORT ORDINAL="13115" NAME="?SetMenuFont@CMFCMenuBar@@SAHPEAUtagLOGFONTA@@H@Z" PURGE="-1" COMMENT="" />
    <EXPORT ORDINAL="13114" NAME="?SetMenuFont@AFX_GLOBAL_DATA@@QEAAHPEAUtagLOGFONTA@@H@Z" PURGE="-1" COMMENT="" />
    <EXPORT ORDINAL="13113" NAME="?SetMenuButtonRTC@CMFCMenuBar@@QEAAXPEAUCRuntimeClass@@@Z" PURGE="-1" COMMENT="" />
    <EXPORT ORDINAL="13112" NAME="?SetMenuBarVisibility@CMDIFrameWnd@@UEAAXK@Z" PURGE="-1" COMMENT="" />
    <EXPORT ORDINAL="13111" NAME="?SetMenuBarVisibility@CFrameWnd@@UEAAXK@Z" PURGE="-1" COMMENT="" />
    <EXPORT ORDINAL="13110" NAME="?SetMenuBarState@CMDIFrameWnd@@UEAAHK@Z" PURGE="-1" COMMENT="" />
    <EXPORT ORDINAL="13109" NAME="?SetMenuBarState@CFrameWnd@@UEAAHK@Z" PURGE="-1" COMMENT="" />
    <EXPORT ORDINAL="13108" NAME="?SetMenuBar@CFrameImpl@@IEAAXPEAVCMFCMenuBar@@@Z" PURGE="-1" COMMENT="" />
    <EXPORT ORDINAL="13106" NAME="?SetMenu@XOleInPlaceFrame@COleFrameHook@@UEAAJPEAUHMENU__@@PEAXPEAUHWND__@@@Z" PURGE="-1" COMMENT="" />
    <EXPORT ORDINAL="13107" NAME="?SetMenu@XOleIPFrame@COleControlContainer@@UEAAJPEAUHMENU__@@PEAXPEAUHWND__@@@Z" PURGE="-1" COMMENT="" />
    <EXPORT ORDINAL="13105" NAME="?SetMenu@CWnd@@UEAAHPEAVCMenu@@@Z" PURGE="-1" COMMENT="" />
    <EXPORT ORDINAL="13104" NAME="?SetMenu@CMFCRibbonButton@@QEAAXPEAUHMENU__@@HH@Z" PURGE="-1" COMMENT="" />
    <EXPORT ORDINAL="13103" NAME="?SetMenu@CMFCRibbonButton@@QEAAXIHH@Z" PURGE="-1" COMMENT="" />
    <EXPORT ORDINAL="13102" NAME="?SetMenu@CFrameWnd@@UEAAHPEAVCMenu@@@Z" PURGE="-1" COMMENT="" />
    <EXPORT ORDINAL="13100" NAME="?SetMaximizeMode@CMFCRibbonBar@@QEAAXHPEAVCWnd@@@Z" PURGE="-1" COMMENT="" />
    <EXPORT ORDINAL="13099" NAME="?SetMaximizeMode@CMFCMenuBar@@QEAAXHPEAVCWnd@@H@Z" PURGE="-1" COMMENT="" />
    <EXPORT ORDINAL="13101" NAME="?SetMaxWidth@CMFCPopupMenu@@QEAAXH@Z" PURGE="-1" COMMENT="" />
    <EXPORT ORDINAL="13098" NAME="?SetMapperFlags@CDC@@QEAAKK@Z" PURGE="-1" COMMENT="" />
    <EXPORT ORDINAL="13097" NAME="?SetMapMode@CPreviewDC@@UEAAHH@Z" PURGE="-1" COMMENT="" />
    <EXPORT ORDINAL="13096" NAME="?SetMapMode@CDC@@UEAAHH@Z" PURGE="-1" COMMENT="" />
    <EXPORT ORDINAL="13094" NAME="?SetManager@?$CSimpleStringT@_W$00@ATL@@QEAAXPEAUIAtlStringMgr@2@@Z" PURGE="-1" COMMENT="" />
    <EXPORT ORDINAL="13095" NAME="?SetManager@?$CSimpleStringT@D$00@ATL@@QEAAXPEAUIAtlStringMgr@2@@Z" PURGE="-1" COMMENT="" />
    <EXPORT ORDINAL="13093" NAME="?SetLuminanceBarWidth@CMFCColorPickerCtrl@@QEAAXH@Z" PURGE="-1" COMMENT="" />
    <EXPORT ORDINAL="13092" NAME="?SetLook@CMFCPropertySheet@@QEAAXW4PropSheetLook@1@H@Z" PURGE="-1" COMMENT="" />
    <EXPORT ORDINAL="13091" NAME="?SetLongValue@CMFCFilterChunkValueImpl@@UEAAJAEBU_tagpropertykey@@JW4tagCHUNKSTATE@@KKKW4tagCHUNK_BREAKTYPE@@@Z" PURGE="-1" COMMENT="" />
    <EXPORT ORDINAL="13090" NAME="?SetLockingMode@CRecordset@@QEAAXI@Z" PURGE="-1" COMMENT="" />
    <EXPORT ORDINAL="13089" NAME="?SetLockedSizes@CMFCToolBar@@QEAAXUtagSIZE@@0H@Z" PURGE="-1" COMMENT="" />
    <EXPORT ORDINAL="13088" NAME="?SetLocation@CMFCToolTipCtrl@@QEAAXVCPoint@@@Z" PURGE="-1" COMMENT="" />
    <EXPORT ORDINAL="13087" NAME="?SetLocation@CMFCBaseTabCtrl@@UEAAXW4Location@1@@Z" PURGE="-1" COMMENT="" />
    <EXPORT ORDINAL="13086" NAME="?SetLocaleName@CD2DTextLayout@@QEAAHPEB_WUDWRITE_TEXT_RANGE@@@Z" PURGE="-1" COMMENT="" />
    <EXPORT ORDINAL="13085" NAME="?SetListDelimiter@CMFCPropertyGridCtrl@@QEAAXD@Z" PURGE="-1" COMMENT="" />
    <EXPORT ORDINAL="13084" NAME="?SetLinkUpdateOptions@COleUILinkInfo@@UEAAJKK@Z" PURGE="-1" COMMENT="" />
    <EXPORT ORDINAL="13083" NAME="?SetLinkUpdateOptions@COleClientItem@@QEAAXW4tagOLEUPDATE@@@Z" PURGE="-1" COMMENT="" />
    <EXPORT ORDINAL="13082" NAME="?SetLinkSource@COleUILinkInfo@@UEAAJKPEADKPEAKH@Z" PURGE="-1" COMMENT="" />
    <EXPORT ORDINAL="13081" NAME="?SetLink@CMFCRibbonLinkCtrl@@QEAAXPEBD@Z" PURGE="-1" COMMENT="" />
    <EXPORT ORDINAL="13080" NAME="?SetLength@CSocketFile@@UEAAX_K@Z" PURGE="-1" COMMENT="" />
    <EXPORT ORDINAL="13079" NAME="?SetLength@COleStreamFile@@UEAAX_K@Z" PURGE="-1" COMMENT="" />
    <EXPORT ORDINAL="13078" NAME="?SetLength@CMemFile@@UEAAX_K@Z" PURGE="-1" COMMENT="" />
    <EXPORT ORDINAL="13077" NAME="?SetLength@CInternetFile@@UEAAX_K@Z" PURGE="-1" COMMENT="" />
    <EXPORT ORDINAL="13076" NAME="?SetLength@CFile@@UEAAX_K@Z" PURGE="-1" COMMENT="" />
    <EXPORT ORDINAL="13074" NAME="?SetLength@?$CSimpleStringT@_W$00@ATL@@AEAAXH@Z" PURGE="-1" COMMENT="" />
    <EXPORT ORDINAL="13075" NAME="?SetLength@?$CSimpleStringT@D$00@ATL@@AEAAXH@Z" PURGE="-1" COMMENT="" />
    <EXPORT ORDINAL="13073" NAME="?SetLayout@CDC@@QEAAKK@Z" PURGE="-1" COMMENT="" />
    <EXPORT ORDINAL="13072" NAME="?SetLayeredAttrib@AFX_GLOBAL_DATA@@QEAAHPEAUHWND__@@KEK@Z" PURGE="-1" COMMENT="" />
    <EXPORT ORDINAL="13071" NAME="?SetLargeIcons@CMFCToolBar@@SAXH@Z" PURGE="-1" COMMENT="" />
    <EXPORT ORDINAL="13070" NAME="?SetKeys@CMFCRibbonPanel@@QEAAXPEBD@Z" PURGE="-1" COMMENT="" />
    <EXPORT ORDINAL="13069" NAME="?SetKeys@CMFCRibbonCategory@@QEAAXPEBD@Z" PURGE="-1" COMMENT="" />
    <EXPORT ORDINAL="13068" NAME="?SetKeys@CMFCRibbonBaseElement@@UEAAXPEBD0@Z" PURGE="-1" COMMENT="" />
    <EXPORT ORDINAL="13067" NAME="?SetKeyboardNavigationLevel@CMFCRibbonBar@@QEAAXPEAVCObject@@H@Z" PURGE="-1" COMMENT="" />
    <EXPORT ORDINAL="13066" NAME="?SetItemTypes@CMFCShellListCtrl@@QEAAXK@Z" PURGE="-1" COMMENT="" />
    <EXPORT ORDINAL="13065" NAME="?SetItemToolTip@CMFCRibbonGallery@@QEAAXHPEBD@Z" PURGE="-1" COMMENT="" />
    <EXPORT ORDINAL="13064" NAME="?SetItemText@CVSListBox@@MEAAXHAEBV?$CStringT@DV?$StrTraitMFC_DLL@DV?$ChTraitsCRT@D@ATL@@@@@ATL@@@Z" PURGE="-1" COMMENT="" />
    <EXPORT ORDINAL="13063" NAME="?SetItemText@CListCtrl@@QEAAHHHPEBD@Z" PURGE="-1" COMMENT="" />
    <EXPORT ORDINAL="13062" NAME="?SetItemState@CTabCtrl@@QEAAHHKK@Z" PURGE="-1" COMMENT="" />
    <EXPORT ORDINAL="13061" NAME="?SetItemState@CListCtrl@@QEAAHHII@Z" PURGE="-1" COMMENT="" />
    <EXPORT ORDINAL="13060" NAME="?SetItemRects@COleClientItem@@QEAAHPEBUtagRECT@@0@Z" PURGE="-1" COMMENT="" />
    <EXPORT ORDINAL="13059" NAME="?SetItemIndex@CMFCCustomizeMenuButton@@QEAAXIHH@Z" PURGE="-1" COMMENT="" />
    <EXPORT ORDINAL="13058" NAME="?SetItemEx@CTreeCtrl@@QEAAHPEAU_TREEITEM@@IPEBDHHII_JIPEAUHWND__@@H@Z" PURGE="-1" COMMENT="" />
    <EXPORT ORDINAL="13057" NAME="?SetItemData@CVSListBox@@UEAAXH_K@Z" PURGE="-1" COMMENT="" />
    <EXPORT ORDINAL="13056" NAME="?SetItemCountEx@CListCtrl@@QEAAHHK@Z" PURGE="-1" COMMENT="" />
    <EXPORT ORDINAL="13055" NAME="?SetItem@CTreeCtrl@@QEAAHPEAU_TREEITEM@@IPEBDHHII_J@Z" PURGE="-1" COMMENT="" />
    <EXPORT ORDINAL="13054" NAME="?SetItem@CListCtrl@@QEAAHHHIPEBDHII_JH@Z" PURGE="-1" COMMENT="" />
    <EXPORT ORDINAL="13053" NAME="?SetItem@CListCtrl@@QEAAHHHIPEBDHII_J@Z" PURGE="-1" COMMENT="" />
    <EXPORT ORDINAL="13052" NAME="?SetItem@CComboBoxEx@@QEAAHPEBUtagCOMBOBOXEXITEMA@@@Z" PURGE="-1" COMMENT="" />
    <EXPORT ORDINAL="13049" NAME="?SetInterpolationMode@CD2DBitmapBrush@@QEAAXW4D2D1_BITMAP_INTERPOLATION_MODE@@@Z" PURGE="-1" COMMENT="" />
    <EXPORT ORDINAL="13048" NAME="?SetInternalImage@CMFCEditBrowseCtrl@@IEAAXXZ" PURGE="-1" COMMENT="" />
    <EXPORT ORDINAL="13050" NAME="?SetIntValue@CMFCFilterChunkValueImpl@@UEAAJAEBU_tagpropertykey@@HW4tagCHUNKSTATE@@KKKW4tagCHUNK_BREAKTYPE@@@Z" PURGE="-1" COMMENT="" />
    <EXPORT ORDINAL="13047" NAME="?SetInt64Value@CMFCFilterChunkValueImpl@@UEAAJAEBU_tagpropertykey@@_JW4tagCHUNKSTATE@@KKKW4tagCHUNK_BREAKTYPE@@@Z" PURGE="-1" COMMENT="" />
    <EXPORT ORDINAL="13044" NAME="?SetInitialSize@COleControl@@QEAAXHH@Z" PURGE="-1" COMMENT="" />
    <EXPORT ORDINAL="13043" NAME="?SetInitialPageNum@XPrint@CDocObjectServer@@UEAAJJ@Z" PURGE="-1" COMMENT="" />
    <EXPORT ORDINAL="13042" NAME="?SetInitialDataFormats@COleControl@@MEAAXXZ" PURGE="-1" COMMENT="" />
    <EXPORT ORDINAL="13041" NAME="?SetInformation@CMFCRibbonStatusBar@@QEAAXPEBD@Z" PURGE="-1" COMMENT="" />
    <EXPORT ORDINAL="13040" NAME="?SetInfo@CRecentPaneContainerInfo@@UEAAXAEAV1@@Z" PURGE="-1" COMMENT="" />
    <EXPORT ORDINAL="13039" NAME="?SetInfo@CRecentDockSiteInfo@@UEAAXHAEAV1@@Z" PURGE="-1" COMMENT="" />
    <EXPORT ORDINAL="13038" NAME="?SetInfiniteMode@CMFCRibbonProgressBar@@QEAAXH@Z" PURGE="-1" COMMENT="" />
    <EXPORT ORDINAL="13037" NAME="?SetIndicators@CStatusBar@@QEAAHPEBIH@Z" PURGE="-1" COMMENT="" />
    <EXPORT ORDINAL="13036" NAME="?SetIndicators@CMFCStatusBar@@QEAAHPEBIH@Z" PURGE="-1" COMMENT="" />
    <EXPORT ORDINAL="13051" NAME="?SetInUse@CMenuTearOffManager@@QEAAXIH@Z" PURGE="-1" COMMENT="" />
    <EXPORT ORDINAL="13046" NAME="?SetInPlaceSite@XOleDocumentView@CDocObjectServer@@UEAAJPEAUIOleInPlaceSite@@@Z" PURGE="-1" COMMENT="" />
    <EXPORT ORDINAL="13045" NAME="?SetInPlaceOwner@CControlBar@@QEAAXPEAVCWnd@@@Z" PURGE="-1" COMMENT="" />
    <EXPORT ORDINAL="13035" NAME="?SetInCommand@CMFCPopupMenuBar@@IEAAXH@Z" PURGE="-1" COMMENT="" />
    <EXPORT ORDINAL="13033" NAME="?SetImages@CMFCToolBarButtonsListButton@@QEAAXPEAVCMFCToolBarImages@@@Z" PURGE="-1" COMMENT="" />
    <EXPORT ORDINAL="13032" NAME="?SetImages@CMFCRibbonButtonsGroup@@QEAAXPEAVCMFCToolBarImages@@00@Z" PURGE="-1" COMMENT="" />
    <EXPORT ORDINAL="13034" NAME="?SetImageToolTip@CMFCCaptionBar@@QEAAXPEBD0@Z" PURGE="-1" COMMENT="" />
    <EXPORT ORDINAL="13031" NAME="?SetImageList@CReBarCtrl@@QEAAHPEAVCImageList@@@Z" PURGE="-1" COMMENT="" />
    <EXPORT ORDINAL="13030" NAME="?SetImageList@CMFCTabCtrl@@UEAAHPEAU_IMAGELIST@@@Z" PURGE="-1" COMMENT="" />
    <EXPORT ORDINAL="13029" NAME="?SetImageList@CMFCTabCtrl@@UEAAHIHK@Z" PURGE="-1" COMMENT="" />
    <EXPORT ORDINAL="13028" NAME="?SetImageList@CMFCBaseTabCtrl@@UEAAHPEAU_IMAGELIST@@@Z" PURGE="-1" COMMENT="" />
    <EXPORT ORDINAL="13027" NAME="?SetImageList@CMFCBaseTabCtrl@@UEAAHIHK@Z" PURGE="-1" COMMENT="" />
    <EXPORT ORDINAL="13026" NAME="?SetImageInternal@CMFCButton@@IEAAXPEAUHICON__@@H0H0H@Z" PURGE="-1" COMMENT="" />
    <EXPORT ORDINAL="13025" NAME="?SetImageInternal@CMFCButton@@IEAAXPEAUHBITMAP__@@H0HH0@Z" PURGE="-1" COMMENT="" />
    <EXPORT ORDINAL="13024" NAME="?SetImageInternal@CMFCButton@@IEAAXIIHI@Z" PURGE="-1" COMMENT="" />
    <EXPORT ORDINAL="13023" NAME="?SetImage@CMFCToolBarButton@@UEAAXH@Z" PURGE="-1" COMMENT="" />
    <EXPORT ORDINAL="13022" NAME="?SetImage@CMFCRibbonApplicationButton@@QEAAXPEAUHBITMAP__@@@Z" PURGE="-1" COMMENT="" />
    <EXPORT ORDINAL="13021" NAME="?SetImage@CMFCRibbonApplicationButton@@QEAAXI@Z" PURGE="-1" COMMENT="" />
    <EXPORT ORDINAL="13020" NAME="?SetImage@CMFCOutlookBarPaneButton@@UEAAXH@Z" PURGE="-1" COMMENT="" />
    <EXPORT ORDINAL="13019" NAME="?SetImage@CMFCButton@@QEAAXPEAUHICON__@@H00H@Z" PURGE="-1" COMMENT="" />
    <EXPORT ORDINAL="13018" NAME="?SetImage@CMFCButton@@QEAAXPEAUHBITMAP__@@H0H0@Z" PURGE="-1" COMMENT="" />
    <EXPORT ORDINAL="13017" NAME="?SetImage@CMFCButton@@QEAAXIII@Z" PURGE="-1" COMMENT="" />
    <EXPORT ORDINAL="13010" NAME="?SetIconsList@CMFCTasksPane@@QEAAXPEAU_IMAGELIST@@@Z" PURGE="-1" COMMENT="" />
    <EXPORT ORDINAL="13009" NAME="?SetIconsList@CMFCTasksPane@@QEAAHIHK@Z" PURGE="-1" COMMENT="" />
    <EXPORT ORDINAL="13008" NAME="?SetIconsList@CMFCPropertySheet@@QEAAXPEAU_IMAGELIST@@@Z" PURGE="-1" COMMENT="" />
    <EXPORT ORDINAL="13007" NAME="?SetIconsList@CMFCPropertySheet@@QEAAHIHK@Z" PURGE="-1" COMMENT="" />
    <EXPORT ORDINAL="13006" NAME="?SetIconicMetafile@COleClientItem@@QEAAHPEAX@Z" PURGE="-1" COMMENT="" />
    <EXPORT ORDINAL="13012" NAME="?SetIconSpacing@CListCtrl@@QEAA?AVCSize@@V2@@Z" PURGE="-1" COMMENT="" />
    <EXPORT ORDINAL="13011" NAME="?SetIconSpacing@CListCtrl@@QEAA?AVCSize@@HH@Z" PURGE="-1" COMMENT="" />
    <EXPORT ORDINAL="13005" NAME="?SetIcon@CMFCRibbonConstructor@@MEBAXAEAVCMFCRibbonButton@@W4RibbonImageType@CMFCRibbonBaseElement@@AEBVCMFCToolBarImages@@H@Z" PURGE="-1" COMMENT="" />
    <EXPORT ORDINAL="13004" NAME="?SetIcon@CMFCCaptionBar@@QEAAXPEAUHICON__@@W4BarElementAlignment@1@@Z" PURGE="-1" COMMENT="" />
    <EXPORT ORDINAL="13016" NAME="?SetID@CProperty@@QEAAXK@Z" PURGE="-1" COMMENT="" />
    <EXPORT ORDINAL="13015" NAME="?SetID@CMFCRibbonConstructor@@MEBAXAEAVCMFCRibbonBaseElement@@AEBVXID@CMFCRibbonInfo@@@Z" PURGE="-1" COMMENT="" />
    <EXPORT ORDINAL="13014" NAME="?SetID@CMFCRibbonBaseElement@@UEAAXI@Z" PURGE="-1" COMMENT="" />
    <EXPORT ORDINAL="13013" NAME="?SetID@CAnimationBaseObject@@QEAAXII@Z" PURGE="-1" COMMENT="" />
    <EXPORT ORDINAL="13003" NAME="?SetHotTextColor@CMFCToolBar@@SAXK@Z" PURGE="-1" COMMENT="" />
    <EXPORT ORDINAL="13002" NAME="?SetHotRibbonButton@CMFCToolTipCtrl@@QEAAXPEAVCMFCRibbonButton@@@Z" PURGE="-1" COMMENT="" />
    <EXPORT ORDINAL="13001" NAME="?SetHotEdit@CMFCToolBarEditBoxButton@@IEAAXH@Z" PURGE="-1" COMMENT="" />
    <EXPORT ORDINAL="13000" NAME="?SetHotEdit@CMFCToolBarComboBoxButton@@IEAAXH@Z" PURGE="-1" COMMENT="" />
    <EXPORT ORDINAL="12999" NAME="?SetHot@CMFCToolBar@@QEAAHPEAVCMFCToolBarButton@@@Z" PURGE="-1" COMMENT="" />
    <EXPORT ORDINAL="12998" NAME="?SetHostNames@XOleObject@COleServerItem@@UEAAJPEB_W0@Z" PURGE="-1" COMMENT="" />
    <EXPORT ORDINAL="12997" NAME="?SetHostNames@XOleObject@COleServerDoc@@UEAAJPEB_W0@Z" PURGE="-1" COMMENT="" />
    <EXPORT ORDINAL="12996" NAME="?SetHostNames@XOleObject@COleControl@@UEAAJPEB_W0@Z" PURGE="-1" COMMENT="" />
    <EXPORT ORDINAL="12995" NAME="?SetHostNames@XOleObject@CDocObjectServer@@UEAAJPEB_W0@Z" PURGE="-1" COMMENT="" />
    <EXPORT ORDINAL="12994" NAME="?SetHostNames@COleClientItem@@QEAAXPEBD0@Z" PURGE="-1" COMMENT="" />
    <EXPORT ORDINAL="12993" NAME="?SetHostFlags@CDHtmlDialog@@QEAAXK@Z" PURGE="-1" COMMENT="" />
    <EXPORT ORDINAL="12992" NAME="?SetHost@CMFCPreviewCtrlImpl@@UEAAXPEAUHWND__@@@Z" PURGE="-1" COMMENT="" />
    <EXPORT ORDINAL="12991" NAME="?SetHorzMargin@CMFCColorBar@@QEAAXH@Z" PURGE="-1" COMMENT="" />
    <EXPORT ORDINAL="12989" NAME="?SetHighlightedSysButton@CFrameImpl@@IEAAXI@Z" PURGE="-1" COMMENT="" />
    <EXPORT ORDINAL="12988" NAME="?SetHelpMode@CMFCToolBar@@SAXH@Z" PURGE="-1" COMMENT="" />
    <EXPORT ORDINAL="12987" NAME="?SetHelpInfo@COlePropertyPage@@QEAAXPEBD0K@Z" PURGE="-1" COMMENT="" />
    <EXPORT ORDINAL="12986" NAME="?SetHelpCapture@CFrameWnd@@IEAAPEAUHWND__@@UtagPOINT@@PEAH@Z" PURGE="-1" COMMENT="" />
    <EXPORT ORDINAL="12985" NAME="?SetHeight@CToolBar@@QEAAXH@Z" PURGE="-1" COMMENT="" />
    <EXPORT ORDINAL="12984" NAME="?SetHeight@CMFCToolBar@@QEAAXH@Z" PURGE="-1" COMMENT="" />
    <EXPORT ORDINAL="12983" NAME="?SetHandles@CMDIChildWnd@@QEAAXPEAUHMENU__@@PEAUHACCEL__@@@Z" PURGE="-1" COMMENT="" />
    <EXPORT ORDINAL="12982" NAME="?SetHandle@CSharedFile@@QEAAXPEAXH@Z" PURGE="-1" COMMENT="" />
    <EXPORT ORDINAL="12990" NAME="?SetHLS@CMFCColorPickerCtrl@@QEAAXNNNH@Z" PURGE="-1" COMMENT="" />
    <EXPORT ORDINAL="12981" NAME="?SetGroupTextColor@CMFCTasksPane@@QEAAHHKK@Z" PURGE="-1" COMMENT="" />
    <EXPORT ORDINAL="12980" NAME="?SetGroupNameFullWidth@CMFCPropertyGridCtrl@@QEAAXHH@Z" PURGE="-1" COMMENT="" />
    <EXPORT ORDINAL="12979" NAME="?SetGroupName@CMFCTasksPane@@QEAAHHPEBD@Z" PURGE="-1" COMMENT="" />
    <EXPORT ORDINAL="12978" NAME="?SetGroupName@CMFCRibbonGallery@@QEAAXHPEBD@Z" PURGE="-1" COMMENT="" />
    <EXPORT ORDINAL="12977" NAME="?SetGrayDisabledButtons@CVSListBoxBase@@QEAAXH@Z" PURGE="-1" COMMENT="" />
    <EXPORT ORDINAL="12976" NAME="?SetGraphicsMode@CDC@@QEAAHH@Z" PURGE="-1" COMMENT="" />
    <EXPORT ORDINAL="12975" NAME="?SetGradientOriginOffset@CD2DRadialGradientBrush@@QEAAXVCD2DPointF@@@Z" PURGE="-1" COMMENT="" />
    <EXPORT ORDINAL="12974" NAME="?SetGestureConfig@CWnd@@QEAAHPEAVCGestureConfig@@@Z" PURGE="-1" COMMENT="" />
    <EXPORT ORDINAL="12973" NAME="?SetFrameCustMode@CMFCToolBarsCustomizeDialog@@IEAAXH@Z" PURGE="-1" COMMENT="" />
    <EXPORT ORDINAL="12972" NAME="?SetFormatVersion@CPropertySet@@QEAAXG@Z" PURGE="-1" COMMENT="" />
    <EXPORT ORDINAL="12971" NAME="?SetFormatID@CPropertySection@@QEAAXU_GUID@@@Z" PURGE="-1" COMMENT="" />
    <EXPORT ORDINAL="12970" NAME="?SetForeColor@COleControl@@QEAAXK@Z" PURGE="-1" COMMENT="" />
    <EXPORT ORDINAL="12969" NAME="?SetFontNotifySink@CFontHolder@@QEAAXPEAUIPropertyNotifySink@@@Z" PURGE="-1" COMMENT="" />
    <EXPORT ORDINAL="12968" NAME="?SetFontFamilyName@CD2DTextLayout@@QEAAHPEB_WUDWRITE_TEXT_RANGE@@@Z" PURGE="-1" COMMENT="" />
    <EXPORT ORDINAL="12967" NAME="?SetFont@XPreviewHandlerVisuals@CDocument@@UEAAJPEBUtagLOGFONTW@@@Z" PURGE="-1" COMMENT="" />
    <EXPORT ORDINAL="12966" NAME="?SetFont@COleControl@@QEAAXPEAUIFontDisp@@@Z" PURGE="-1" COMMENT="" />
    <EXPORT ORDINAL="12965" NAME="?SetFont@CMFCToolBarFontComboBox@@QEAAHPEBDEH@Z" PURGE="-1" COMMENT="" />
    <EXPORT ORDINAL="12964" NAME="?SetFont@CMFCTasksPane@@IEAAPEAUHFONT__@@PEAVCDC@@@Z" PURGE="-1" COMMENT="" />
    <EXPORT ORDINAL="12963" NAME="?SetFont@CMFCRibbonFontComboBox@@QEAAHPEBDEH@Z" PURGE="-1" COMMENT="" />
    <EXPORT ORDINAL="12962" NAME="?SetFont@CFontHolder@@QEAAXPEAUIFont@@@Z" PURGE="-1" COMMENT="" />
    <EXPORT ORDINAL="12961" NAME="?SetFont@CDialogTemplate@@QEAAHPEBDG@Z" PURGE="-1" COMMENT="" />
    <EXPORT ORDINAL="12959" NAME="?SetFocused@CMFCRibbonPanel@@QEAAXPEAVCMFCRibbonBaseElement@@@Z" PURGE="-1" COMMENT="" />
    <EXPORT ORDINAL="12960" NAME="?SetFocusToElement@CDHtmlDialog@@IEAAXPEBD@Z" PURGE="-1" COMMENT="" />
    <EXPORT ORDINAL="12958" NAME="?SetFocus@XPreviewHandler@CDocument@@UEAAJXZ" PURGE="-1" COMMENT="" />
    <EXPORT ORDINAL="12957" NAME="?SetFocus@XOleIPSite@COleControlSite@@UEAAJH@Z" PURGE="-1" COMMENT="" />
    <EXPORT ORDINAL="12956" NAME="?SetFocus@CWnd@@QEAAPEAV1@XZ" PURGE="-1" COMMENT="" />
    <EXPORT ORDINAL="12955" NAME="?SetFocus@COleControlSite@@UEAAPEAVCWnd@@XZ" PURGE="-1" COMMENT="" />
    <EXPORT ORDINAL="12954" NAME="?SetFocus@COleControlSite@@UEAAPEAVCWnd@@PEAUtagMSG@@@Z" PURGE="-1" COMMENT="" />
    <EXPORT ORDINAL="12953" NAME="?SetFocus@COleControl@@QEAAPEAVCWnd@@XZ" PURGE="-1" COMMENT="" />
    <EXPORT ORDINAL="12952" NAME="?SetFlags@CMFCShellTreeCtrl@@QEAAXKH@Z" PURGE="-1" COMMENT="" />
    <EXPORT ORDINAL="12951" NAME="?SetFlags@CMFCPropertyGridProperty@@IEAAXXZ" PURGE="-1" COMMENT="" />
    <EXPORT ORDINAL="12950" NAME="?SetFirstDayOfWeek@CMonthCalCtrl@@QEAAHHPEAH@Z" PURGE="-1" COMMENT="" />
    <EXPORT ORDINAL="12949" NAME="?SetFillMode@CD2DGeometrySink@@QEAAXW4D2D1_FILL_MODE@@@Z" PURGE="-1" COMMENT="" />
    <EXPORT ORDINAL="12948" NAME="?SetFileTimeValue@CMFCFilterChunkValueImpl@@UEAAJAEBU_tagpropertykey@@U_FILETIME@@W4tagCHUNKSTATE@@KKKW4tagCHUNK_BREAKTYPE@@@Z" PURGE="-1" COMMENT="" />
    <EXPORT ORDINAL="12947" NAME="?SetFieldStatus@CRecordset@@QEAAXKE@Z" PURGE="-1" COMMENT="" />
    <EXPORT ORDINAL="12946" NAME="?SetFieldNull@CRecordset@@QEAAXPEAXH@Z" PURGE="-1" COMMENT="" />
    <EXPORT ORDINAL="12945" NAME="?SetFieldDirty@CRecordset@@QEAAXPEAXH@Z" PURGE="-1" COMMENT="" />
    <EXPORT ORDINAL="12944" NAME="?SetFaceColor@CMFCButton@@QEAAXKH@Z" PURGE="-1" COMMENT="" />
    <EXPORT ORDINAL="12943" NAME="?SetExternalDispatch@CDHtmlDialog@@QEAAXPEAUIDispatch@@@Z" PURGE="-1" COMMENT="" />
    <EXPORT ORDINAL="12942" NAME="?SetExtent@XOleObject@COleServerItem@@UEAAJKPEAUtagSIZE@@@Z" PURGE="-1" COMMENT="" />
    <EXPORT ORDINAL="12941" NAME="?SetExtent@XOleObject@COleServerDoc@@UEAAJKPEAUtagSIZE@@@Z" PURGE="-1" COMMENT="" />
    <EXPORT ORDINAL="12940" NAME="?SetExtent@XOleObject@COleControl@@UEAAJKPEAUtagSIZE@@@Z" PURGE="-1" COMMENT="" />
    <EXPORT ORDINAL="12939" NAME="?SetExtent@XOleObject@CDocObjectServer@@UEAAJKPEAUtagSIZE@@@Z" PURGE="-1" COMMENT="" />
    <EXPORT ORDINAL="12938" NAME="?SetExtent@COleControlSite@@IEAAHXZ" PURGE="-1" COMMENT="" />
    <EXPORT ORDINAL="12937" NAME="?SetExtent@COleClientItem@@QEAAXAEBVCSize@@W4tagDVASPECT@@@Z" PURGE="-1" COMMENT="" />
    <EXPORT ORDINAL="12936" NAME="?SetExtendModeY@CD2DBitmapBrush@@QEAAXW4D2D1_EXTEND_MODE@@@Z" PURGE="-1" COMMENT="" />
    <EXPORT ORDINAL="12935" NAME="?SetExtendModeX@CD2DBitmapBrush@@QEAAXW4D2D1_EXTEND_MODE@@@Z" PURGE="-1" COMMENT="" />
    <EXPORT ORDINAL="12934" NAME="?SetError@XInfoError@CMFCRibbonInfo@@QEAAXW4XError@12@AEBV?$CStringT@DV?$StrTraitMFC_DLL@DV?$ChTraitsCRT@D@ATL@@@@@ATL@@JJ@Z" PURGE="-1" COMMENT="" />
    <EXPORT ORDINAL="12933" NAME="?SetEndPoint@CD2DLinearGradientBrush@@QEAAXVCD2DPointF@@@Z" PURGE="-1" COMMENT="" />
    <EXPORT ORDINAL="12932" NAME="?SetEnabled@COleControl@@QEAAXH@Z" PURGE="-1" COMMENT="" />
    <EXPORT ORDINAL="12931" NAME="?SetElementText@CDHtmlDialog@@QEAAXPEBDPEA_W@Z" PURGE="-1" COMMENT="" />
    <EXPORT ORDINAL="12930" NAME="?SetElementText@CDHtmlDialog@@QEAAXPEAUIUnknown@@PEA_W@Z" PURGE="-1" COMMENT="" />
    <EXPORT ORDINAL="12929" NAME="?SetElementRTCByID@CMFCRibbonPanel@@QEAAPEAVCMFCRibbonBaseElement@@IPEAUCRuntimeClass@@@Z" PURGE="-1" COMMENT="" />
    <EXPORT ORDINAL="12928" NAME="?SetElementRTC@CMFCRibbonPanel@@QEAAPEAVCMFCRibbonBaseElement@@HPEAUCRuntimeClass@@@Z" PURGE="-1" COMMENT="" />
    <EXPORT ORDINAL="12927" NAME="?SetElementProperty@CDHtmlDialog@@QEAAXPEBDJPEAUtagVARIANT@@@Z" PURGE="-1" COMMENT="" />
    <EXPORT ORDINAL="12926" NAME="?SetElementMenu@CMFCRibbonPanel@@QEAAHIPEAUHMENU__@@HH@Z" PURGE="-1" COMMENT="" />
    <EXPORT ORDINAL="12925" NAME="?SetElementMenu@CMFCRibbonPanel@@QEAAHIIHH@Z" PURGE="-1" COMMENT="" />
    <EXPORT ORDINAL="12924" NAME="?SetElementKeys@CMFCRibbonBar@@QEAAHIPEBD0@Z" PURGE="-1" COMMENT="" />
    <EXPORT ORDINAL="12923" NAME="?SetElementHtml@CDHtmlDialog@@QEAAXPEBDPEA_W@Z" PURGE="-1" COMMENT="" />
    <EXPORT ORDINAL="12922" NAME="?SetElementHtml@CDHtmlDialog@@QEAAXPEAUIUnknown@@PEA_W@Z" PURGE="-1" COMMENT="" />
    <EXPORT ORDINAL="12921" NAME="?SetEditText@CMFCRibbonEdit@@QEAAXV?$CStringT@DV?$StrTraitMFC_DLL@DV?$ChTraitsCRT@D@ATL@@@@@ATL@@@Z" PURGE="-1" COMMENT="" />
    <EXPORT ORDINAL="12920" NAME="?SetEditBoxText@CFileDialog@@QEAAJKAEBV?$CStringT@DV?$StrTraitMFC_DLL@DV?$ChTraitsCRT@D@ATL@@@@@ATL@@@Z" PURGE="-1" COMMENT="" />
    <EXPORT ORDINAL="12919" NAME="?SetDwordValue@CMFCFilterChunkValueImpl@@UEAAJAEBU_tagpropertykey@@KW4tagCHUNKSTATE@@KKKW4tagCHUNK_BREAKTYPE@@@Z" PURGE="-1" COMMENT="" />
    <EXPORT ORDINAL="12917" NAME="?SetDroppedDown@CMFCRibbonBaseElement@@IEAAXPEAVCMFCPopupMenu@@@Z" PURGE="-1" COMMENT="" />
    <EXPORT ORDINAL="12916" NAME="?SetDropDownHeight@CMFCToolBarComboBoxButton@@QEAAXH@Z" PURGE="-1" COMMENT="" />
    <EXPORT ORDINAL="12915" NAME="?SetDropDownHeight@CMFCRibbonComboBox@@QEAAXH@Z" PURGE="-1" COMMENT="" />
    <EXPORT ORDINAL="12914" NAME="?SetDrawNoPrefix@CMFCBaseTabCtrl@@QEAAXHH@Z" PURGE="-1" COMMENT="" />
    <EXPORT ORDINAL="12913" NAME="?SetDrawFrame@CMFCTabCtrl@@QEAAXH@Z" PURGE="-1" COMMENT="" />
    <EXPORT ORDINAL="12912" NAME="?SetDrawAspect@CRichEditCntrItem@@UEAAXW4tagDVASPECT@@@Z" PURGE="-1" COMMENT="" />
    <EXPORT ORDINAL="12911" NAME="?SetDrawAspect@COleClientItem@@UEAAXW4tagDVASPECT@@@Z" PURGE="-1" COMMENT="" />
    <EXPORT ORDINAL="12910" NAME="?SetDragMode@CPane@@MEAAXH@Z" PURGE="-1" COMMENT="" />
    <EXPORT ORDINAL="12909" NAME="?SetDpi@CRenderTarget@@QEAAXAEBVCD2DSizeF@@@Z" PURGE="-1" COMMENT="" />
    <EXPORT ORDINAL="12908" NAME="?SetDocumentColors@CMFCRibbonColorButton@@QEAAXPEBDAEAV?$CList@KK@@@Z" PURGE="-1" COMMENT="" />
    <EXPORT ORDINAL="12907" NAME="?SetDocumentColors@CMFCColorButton@@QEAAXPEBDAEAV?$CList@KK@@@Z" PURGE="-1" COMMENT="" />
    <EXPORT ORDINAL="12906" NAME="?SetDocumentColors@CMFCColorBar@@QEAAXPEBDAEAV?$CList@KK@@H@Z" PURGE="-1" COMMENT="" />
    <EXPORT ORDINAL="12898" NAME="?SetDockingTimer@CPaneFrameWnd@@QEAAXI@Z" PURGE="-1" COMMENT="" />
    <EXPORT ORDINAL="12897" NAME="?SetDockingMode@CDockingManager@@SAXW4AFX_DOCK_TYPE@@W4AFX_SMARTDOCK_THEME@@@Z" PURGE="-1" COMMENT="" />
    <EXPORT ORDINAL="12904" NAME="?SetDockState@CPaneFrameWnd@@UEAAXPEAVCDockingManager@@@Z" PURGE="-1" COMMENT="" />
    <EXPORT ORDINAL="12903" NAME="?SetDockState@CPane@@UEAAXPEAVCDockingManager@@@Z" PURGE="-1" COMMENT="" />
    <EXPORT ORDINAL="12902" NAME="?SetDockState@CMultiPaneFrameWnd@@UEAAXPEAVCDockingManager@@@Z" PURGE="-1" COMMENT="" />
    <EXPORT ORDINAL="12901" NAME="?SetDockState@CFrameWnd@@QEAAXAEBVCDockState@@@Z" PURGE="-1" COMMENT="" />
    <EXPORT ORDINAL="12900" NAME="?SetDockState@CFrameImpl@@IEAAXAEBVCDockState@@@Z" PURGE="-1" COMMENT="" />
    <EXPORT ORDINAL="12899" NAME="?SetDockState@CDockingManager@@UEAAXXZ" PURGE="-1" COMMENT="" />
    <EXPORT ORDINAL="12905" NAME="?SetDocSite@CDocObjectServer@@QEAAXPEAUIOleDocumentSite@@@Z" PURGE="-1" COMMENT="" />
    <EXPORT ORDINAL="12896" NAME="?SetDlgItemTextA@CWnd@@QEAAXHPEBD@Z" PURGE="-1" COMMENT="" />
    <EXPORT ORDINAL="12895" NAME="?SetDlgItemTextA@COleControlContainer@@UEAAXHPEBD@Z" PURGE="-1" COMMENT="" />
    <EXPORT ORDINAL="12894" NAME="?SetDlgItemInt@CWnd@@QEAAXHIH@Z" PURGE="-1" COMMENT="" />
    <EXPORT ORDINAL="12893" NAME="?SetDlgItemInt@COleControlContainer@@UEAAXHIH@Z" PURGE="-1" COMMENT="" />
    <EXPORT ORDINAL="12892" NAME="?SetDlgCtrlID@CWnd@@QEAAHH@Z" PURGE="-1" COMMENT="" />
    <EXPORT ORDINAL="12891" NAME="?SetDlgCtrlID@COleControlSite@@UEAAHH@Z" PURGE="-1" COMMENT="" />
    <EXPORT ORDINAL="12890" NAME="?SetDirtyFieldStatus@CRecordset@@QEAAXK@Z" PURGE="-1" COMMENT="" />
    <EXPORT ORDINAL="12889" NAME="?SetDialogResource@COlePropertyPage@@QEAAXPEAX@Z" PURGE="-1" COMMENT="" />
    <EXPORT ORDINAL="12888" NAME="?SetDescriptionRows@CMFCPropertyGridCtrl@@QEAAXH@Z" PURGE="-1" COMMENT="" />
    <EXPORT ORDINAL="12887" NAME="?SetDescription@CMFCToolTipCtrl@@UEAAXV?$CStringT@DV?$StrTraitMFC_DLL@DV?$ChTraitsCRT@D@ATL@@@@@ATL@@@Z" PURGE="-1" COMMENT="" />
    <EXPORT ORDINAL="12886" NAME="?SetDescription@CMFCRibbonButton@@UEAAXPEBD@Z" PURGE="-1" COMMENT="" />
    <EXPORT ORDINAL="12885" NAME="?SetDescription@CMFCRibbonBaseElement@@UEAAXPEBD@Z" PURGE="-1" COMMENT="" />
    <EXPORT ORDINAL="12883" NAME="?SetDefaultWinXPColors@CMFCVisualManagerOffice2003@@SAXH@Z" PURGE="-1" COMMENT="" />
    <EXPORT ORDINAL="12882" NAME="?SetDefaultValue@CAnimationVariable@@QEAAXN@Z" PURGE="-1" COMMENT="" />
    <EXPORT ORDINAL="12881" NAME="?SetDefaultValue@CAnimationSize@@QEAAXAEBVCSize@@@Z" PURGE="-1" COMMENT="" />
    <EXPORT ORDINAL="12880" NAME="?SetDefaultValue@CAnimationRect@@QEAAXAEBVCRect@@@Z" PURGE="-1" COMMENT="" />
    <EXPORT ORDINAL="12879" NAME="?SetDefaultValue@CAnimationPoint@@QEAAXAEBUtagPOINT@@@Z" PURGE="-1" COMMENT="" />
    <EXPORT ORDINAL="12878" NAME="?SetDefaultValue@CAnimationColor@@QEAAXK@Z" PURGE="-1" COMMENT="" />
    <EXPORT ORDINAL="12877" NAME="?SetDefaultTitle@CSingleDocTemplate@@UEAAXPEAVCDocument@@@Z" PURGE="-1" COMMENT="" />
    <EXPORT ORDINAL="12876" NAME="?SetDefaultTitle@CMultiDocTemplate@@UEAAXPEAVCDocument@@@Z" PURGE="-1" COMMENT="" />
    <EXPORT ORDINAL="12875" NAME="?SetDefaultState@CMFCOutlookBarPane@@QEAAXXZ" PURGE="-1" COMMENT="" />
    <EXPORT ORDINAL="12874" NAME="?SetDefaultPaneDividerForPanes@CPaneContainerManager@@QEAAXPEAVCPaneDivider@@@Z" PURGE="-1" COMMENT="" />
    <EXPORT ORDINAL="12873" NAME="?SetDefaultPaneDivider@CDockablePane@@QEAAXPEAUHWND__@@@Z" PURGE="-1" COMMENT="" />
    <EXPORT ORDINAL="12872" NAME="?SetDefaultMenuResId@CMFCMenuBar@@QEAAXI@Z" PURGE="-1" COMMENT="" />
    <EXPORT ORDINAL="12871" NAME="?SetDefaultManager@CMFCVisualManager@@SAXPEAUCRuntimeClass@@@Z" PURGE="-1" COMMENT="" />
    <EXPORT ORDINAL="12870" NAME="?SetDefaultCommand@CMFCDropDownToolbarButton@@QEAAXI@Z" PURGE="-1" COMMENT="" />
    <EXPORT ORDINAL="12868" NAME="?SetDefaultCharFormat@CRichEditCtrl@@QEAAHAEAU_charformat@@@Z" PURGE="-1" COMMENT="" />
    <EXPORT ORDINAL="12869" NAME="?SetDefaultCharFormat@CRichEditCtrl@@QEAAHAEAUCHARFORMAT2A@@@Z" PURGE="-1" COMMENT="" />
    <EXPORT ORDINAL="12867" NAME="?SetDefaultButton@COleControlSite@@QEAAXH@Z" PURGE="-1" COMMENT="" />
    <EXPORT ORDINAL="12866" NAME="?SetDefaultButton@COccManager@@SAXPEAVCWnd@@H@Z" PURGE="-1" COMMENT="" />
    <EXPORT ORDINAL="12884" NAME="?SetDefExt@CFileDialog@@QEAAXPEBD@Z" PURGE="-1" COMMENT="" />
    <EXPORT ORDINAL="12865" NAME="?SetDayState@CMonthCalCtrl@@QEAAHHPEAK@Z" PURGE="-1" COMMENT="" />
    <EXPORT ORDINAL="12864" NAME="?SetData@XOleCache@COleControl@@UEAAJPEAUtagFORMATETC@@PEAUtagSTGMEDIUM@@H@Z" PURGE="-1" COMMENT="" />
    <EXPORT ORDINAL="12863" NAME="?SetData@XDataObject@COleServerItem@@UEAAJPEAUtagFORMATETC@@PEAUtagSTGMEDIUM@@H@Z" PURGE="-1" COMMENT="" />
    <EXPORT ORDINAL="12862" NAME="?SetData@XDataObject@COleServerDoc@@UEAAJPEAUtagFORMATETC@@PEAUtagSTGMEDIUM@@H@Z" PURGE="-1" COMMENT="" />
    <EXPORT ORDINAL="12861" NAME="?SetData@XDataObject@COleDataSource@@UEAAJPEAUtagFORMATETC@@PEAUtagSTGMEDIUM@@H@Z" PURGE="-1" COMMENT="" />
    <EXPORT ORDINAL="12860" NAME="?SetData@XDataObject@COleControl@@UEAAJPEAUtagFORMATETC@@PEAUtagSTGMEDIUM@@H@Z" PURGE="-1" COMMENT="" />
    <EXPORT ORDINAL="12918" NAME="?SetDSCSite@CDataBoundProperty@@QEAAXPEAVCOleControlSite@@@Z" PURGE="-1" COMMENT="" />
    <EXPORT ORDINAL="12859" NAME="?SetCustomizeMode@CMFCToolBar@@SAHH@Z" PURGE="-1" COMMENT="" />
    <EXPORT ORDINAL="12858" NAME="?SetCustomColors@CMFCPropertyGridCtrl@@QEAAXKKKKKKK@Z" PURGE="-1" COMMENT="" />
    <EXPORT ORDINAL="12857" NAME="?SetCursor@CRectTracker@@QEBAHPEAVCWnd@@I@Z" PURGE="-1" COMMENT="" />
    <EXPORT ORDINAL="12851" NAME="?SetCurrentPage@CPreviewView@@IEAAXIH@Z" PURGE="-1" COMMENT="" />
    <EXPORT ORDINAL="12850" NAME="?SetCurrentHandles@CWinApp@@QEAAXXZ" PURGE="-1" COMMENT="" />
    <EXPORT ORDINAL="12849" NAME="?SetCurrentDirectoryA@CFtpConnection@@QEAAHPEBD@Z" PURGE="-1" COMMENT="" />
    <EXPORT ORDINAL="12848" NAME="?SetCurrentColor@CMFCColorDialog@@QEAAXK@Z" PURGE="-1" COMMENT="" />
    <EXPORT ORDINAL="12847" NAME="?SetCurrentColor@CColorDialog@@QEAAXK@Z" PURGE="-1" COMMENT="" />
    <EXPORT ORDINAL="12846" NAME="?SetCurrency@COleCurrency@@QEAAXJJ@Z" PURGE="-1" COMMENT="" />
    <EXPORT ORDINAL="12852" NAME="?SetCurrFont@CMFCPropertyGridCtrl@@IEAAPEAUHFONT__@@PEAVCDC@@@Z" PURGE="-1" COMMENT="" />
    <EXPORT ORDINAL="12856" NAME="?SetCurSel@CMonthCalCtrl@@QEAAHAEBVCTime@ATL@@@Z" PURGE="-1" COMMENT="" />
    <EXPORT ORDINAL="12855" NAME="?SetCurSel@CMonthCalCtrl@@QEAAHAEBVCOleDateTime@ATL@@@Z" PURGE="-1" COMMENT="" />
    <EXPORT ORDINAL="12854" NAME="?SetCurSel@CMFCPropertyGridCtrl@@QEAAXPEAVCMFCPropertyGridProperty@@H@Z" PURGE="-1" COMMENT="" />
    <EXPORT ORDINAL="12853" NAME="?SetCurSel@CMFCDropDownListBox@@QEAAHH@Z" PURGE="-1" COMMENT="" />
    <EXPORT ORDINAL="12845" NAME="?SetCookie@CInternetSession@@SAHPEBD00@Z" PURGE="-1" COMMENT="" />
    <EXPORT ORDINAL="12844" NAME="?SetControlText@CFileDialog@@QEAAXHPEBD@Z" PURGE="-1" COMMENT="" />
    <EXPORT ORDINAL="12843" NAME="?SetControlStatus@COlePropertyPage@@QEAAHIH@Z" PURGE="-1" COMMENT="" />
    <EXPORT ORDINAL="12842" NAME="?SetControlState@CFileDialog@@QEAAJKW4CDCONTROLSTATEF@@@Z" PURGE="-1" COMMENT="" />
    <EXPORT ORDINAL="12841" NAME="?SetControlSize@COleControl@@QEAAHHH@Z" PURGE="-1" COMMENT="" />
    <EXPORT ORDINAL="12840" NAME="?SetControlProperty@CDHtmlDialog@@QEAAXPEBDJPEAUtagVARIANT@@@Z" PURGE="-1" COMMENT="" />
    <EXPORT ORDINAL="12839" NAME="?SetControlProperty@CDHtmlDialog@@QEAAXPEBD0PEAUtagVARIANT@@@Z" PURGE="-1" COMMENT="" />
    <EXPORT ORDINAL="12838" NAME="?SetControlProperty@CDHtmlDialog@@QEAAXPEAUIDispatch@@JPEAUtagVARIANT@@@Z" PURGE="-1" COMMENT="" />
    <EXPORT ORDINAL="12837" NAME="?SetControlLabel@CFileDialog@@QEAAJKAEBV?$CStringT@DV?$StrTraitMFC_DLL@DV?$ChTraitsCRT@D@ATL@@@@@ATL@@@Z" PURGE="-1" COMMENT="" />
    <EXPORT ORDINAL="12836" NAME="?SetControlItemText@CFileDialog@@QEAAJKKAEBV?$CStringT@DV?$StrTraitMFC_DLL@DV?$ChTraitsCRT@D@ATL@@@@@ATL@@@Z" PURGE="-1" COMMENT="" />
    <EXPORT ORDINAL="12835" NAME="?SetControlItemState@CFileDialog@@QEAAJKKW4CDCONTROLSTATEF@@@Z" PURGE="-1" COMMENT="" />
    <EXPORT ORDINAL="12834" NAME="?SetControlData@CMFCControlContainer@@QEAAXGKPEAE@Z" PURGE="-1" COMMENT="" />
    <EXPORT ORDINAL="12833" NAME="?SetControl@CReflectorWnd@@QEAAXPEAVCOleControl@@@Z" PURGE="-1" COMMENT="" />
    <EXPORT ORDINAL="12832" NAME="?SetContext@CMFCToolBarFontComboBox@@IEAAXXZ" PURGE="-1" COMMENT="" />
    <EXPORT ORDINAL="12831" NAME="?SetContentsAll@CMFCToolBarEditBoxButton@@SAHIAEBV?$CStringT@DV?$StrTraitMFC_DLL@DV?$ChTraitsCRT@D@ATL@@@@@ATL@@@Z" PURGE="-1" COMMENT="" />
    <EXPORT ORDINAL="12830" NAME="?SetContents@CMFCToolBarEditBoxButton@@UEAAXAEBV?$CStringT@DV?$StrTraitMFC_DLL@DV?$ChTraitsCRT@D@ATL@@@@@ATL@@@Z" PURGE="-1" COMMENT="" />
    <EXPORT ORDINAL="12829" NAME="?SetContentExtent@XQuickActivate@COleControl@@UEAAJPEAUtagSIZE@@@Z" PURGE="-1" COMMENT="" />
    <EXPORT ORDINAL="12828" NAME="?SetContainerInfo@CDocTemplate@@QEAAXI@Z" PURGE="-1" COMMENT="" />
    <EXPORT ORDINAL="12827" NAME="?SetConcurrencyAndCursorType@CRecordset@@IEAAXPEAXK@Z" PURGE="-1" COMMENT="" />
    <EXPORT ORDINAL="12825" NAME="?SetCommands@CMFCRibbonQuickAccessToolBar@@IEAAXPEAVCMFCRibbonBar@@AEBV?$CList@II@@PEBD@Z" PURGE="-1" COMMENT="" />
    <EXPORT ORDINAL="12824" NAME="?SetCommands@CMFCRibbonQuickAccessToolBar@@IEAAXPEAVCMFCRibbonBar@@AEBV?$CList@II@@PEAVCMFCRibbonQuickAccessCustomizeButton@@@Z" PURGE="-1" COMMENT="" />
    <EXPORT ORDINAL="12823" NAME="?SetCommands@CMFCRibbonMiniToolBar@@QEAAXPEAVCMFCRibbonBar@@AEBV?$CList@II@@@Z" PURGE="-1" COMMENT="" />
    <EXPORT ORDINAL="12826" NAME="?SetCommandUsageOptions@CMFCToolBar@@SAHII@Z" PURGE="-1" COMMENT="" />
    <EXPORT ORDINAL="12822" NAME="?SetCommandForDblClk@CMouseManager@@QEAAXHI@Z" PURGE="-1" COMMENT="" />
    <EXPORT ORDINAL="12821" NAME="?SetCommand@CUserTool@@QEAAXPEBD@Z" PURGE="-1" COMMENT="" />
    <EXPORT ORDINAL="12820" NAME="?SetColumnsWidth@CMFCKeyMapDialog@@MEAAXXZ" PURGE="-1" COMMENT="" />
    <EXPORT ORDINAL="12819" NAME="?SetColumnsNumber@CMFCPropertyGridColorProperty@@QEAAXH@Z" PURGE="-1" COMMENT="" />
    <EXPORT ORDINAL="12818" NAME="?SetColumnOrderArray@CListCtrl@@QEAAHHPEAH@Z" PURGE="-1" COMMENT="" />
    <EXPORT ORDINAL="12817" NAME="?SetColumnInfo@CSplitterWnd@@QEAAXHHH@Z" PURGE="-1" COMMENT="" />
    <EXPORT ORDINAL="12816" NAME="?SetColorScheme@XOleObject@COleServerItem@@UEAAJPEAUtagLOGPALETTE@@@Z" PURGE="-1" COMMENT="" />
    <EXPORT ORDINAL="12815" NAME="?SetColorScheme@XOleObject@COleServerDoc@@UEAAJPEAUtagLOGPALETTE@@@Z" PURGE="-1" COMMENT="" />
    <EXPORT ORDINAL="12814" NAME="?SetColorScheme@XOleObject@COleControl@@UEAAJPEAUtagLOGPALETTE@@@Z" PURGE="-1" COMMENT="" />
    <EXPORT ORDINAL="12813" NAME="?SetColorScheme@XOleObject@CDocObjectServer@@UEAAJPEAUtagLOGPALETTE@@@Z" PURGE="-1" COMMENT="" />
    <EXPORT ORDINAL="12812" NAME="?SetColorScheme@CReBarCtrl@@QEAAXPEBUtagCOLORSCHEME@@@Z" PURGE="-1" COMMENT="" />
    <EXPORT ORDINAL="12811" NAME="?SetColorName@CMFCColorMenuButton@@SAXKAEBV?$CStringT@DV?$StrTraitMFC_DLL@DV?$ChTraitsCRT@D@ATL@@@@@ATL@@@Z" PURGE="-1" COMMENT="" />
    <EXPORT ORDINAL="12810" NAME="?SetColorBoxSize@CMFCRibbonColorButton@@QEAAXVCSize@@@Z" PURGE="-1" COMMENT="" />
    <EXPORT ORDINAL="12809" NAME="?SetColorAdjustment@CDC@@QEAAHPEBUtagCOLORADJUSTMENT@@@Z" PURGE="-1" COMMENT="" />
    <EXPORT ORDINAL="12802" NAME="?SetColor@CMenuImages@@SAXW4IMAGE_STATE@1@K@Z" PURGE="-1" COMMENT="" />
    <EXPORT ORDINAL="12808" NAME="?SetColor@CMFCPropertyGridColorProperty@@QEAAXK@Z" PURGE="-1" COMMENT="" />
    <EXPORT ORDINAL="12807" NAME="?SetColor@CMFCImagePaintArea@@QEAAXK@Z" PURGE="-1" COMMENT="" />
    <EXPORT ORDINAL="12806" NAME="?SetColor@CMFCColorPickerCtrl@@QEAAXK@Z" PURGE="-1" COMMENT="" />
    <EXPORT ORDINAL="12805" NAME="?SetColor@CMFCColorMenuButton@@UEAAXKH@Z" PURGE="-1" COMMENT="" />
    <EXPORT ORDINAL="12804" NAME="?SetColor@CMFCColorButton@@QEAAXK@Z" PURGE="-1" COMMENT="" />
    <EXPORT ORDINAL="12803" NAME="?SetColor@CMFCColorBar@@QEAAXK@Z" PURGE="-1" COMMENT="" />
    <EXPORT ORDINAL="12801" NAME="?SetColor@CD2DSolidColorBrush@@QEAAXUD3DCOLORVALUE@@@Z" PURGE="-1" COMMENT="" />
    <EXPORT ORDINAL="12800" NAME="?SetCollapseOrder@CMFCRibbonCategory@@QEAAXAEBV?$CArray@HH@@@Z" PURGE="-1" COMMENT="" />
    <EXPORT ORDINAL="12799" NAME="?SetCmdImage@CCommandManager@@QEAAXIHH@Z" PURGE="-1" COMMENT="" />
    <EXPORT ORDINAL="12798" NAME="?SetClipboardFormatName@CMFCToolBarButton@@SAXPEBD@Z" PURGE="-1" COMMENT="" />
    <EXPORT ORDINAL="12797" NAME="?SetClipboard@COleDataSource@@QEAAXXZ" PURGE="-1" COMMENT="" />
    <EXPORT ORDINAL="12796" NAME="?SetClientSite@XOleObject@COleServerItem@@UEAAJPEAUIOleClientSite@@@Z" PURGE="-1" COMMENT="" />
    <EXPORT ORDINAL="12795" NAME="?SetClientSite@XOleObject@COleServerDoc@@UEAAJPEAUIOleClientSite@@@Z" PURGE="-1" COMMENT="" />
    <EXPORT ORDINAL="12794" NAME="?SetClientSite@XOleObject@COleControl@@UEAAJPEAUIOleClientSite@@@Z" PURGE="-1" COMMENT="" />
    <EXPORT ORDINAL="12793" NAME="?SetClientSite@XOleObject@CDocObjectServer@@UEAAJPEAUIOleClientSite@@@Z" PURGE="-1" COMMENT="" />
    <EXPORT ORDINAL="12792" NAME="?SetClientSite@CDataBoundProperty@@QEAAXPEAVCOleControlSite@@@Z" PURGE="-1" COMMENT="" />
    <EXPORT ORDINAL="12791" NAME="?SetClassID@CPropertySet@@QEAAXU_GUID@@@Z" PURGE="-1" COMMENT="" />
    <EXPORT ORDINAL="12790" NAME="?SetChunkValue@CDocument@@UEAAHPEAUIFilterChunkValue@ATL@@@Z" PURGE="-1" COMMENT="" />
    <EXPORT ORDINAL="12789" NAME="?SetChunk@CMFCFilterChunkValueImpl@@IEAAJAEBU_tagpropertykey@@W4tagCHUNKSTATE@@KKKW4tagCHUNK_BREAKTYPE@@@Z" PURGE="-1" COMMENT="" />
    <EXPORT ORDINAL="12787" NAME="?SetCheckedImage@CMFCButton@@QEAAXPEAUHICON__@@H00H@Z" PURGE="-1" COMMENT="" />
    <EXPORT ORDINAL="12786" NAME="?SetCheckedImage@CMFCButton@@QEAAXPEAUHBITMAP__@@H0H0@Z" PURGE="-1" COMMENT="" />
    <EXPORT ORDINAL="12785" NAME="?SetCheckedImage@CMFCButton@@QEAAXIII@Z" PURGE="-1" COMMENT="" />
    <EXPORT ORDINAL="12788" NAME="?SetCheckStyle@CCheckListBox@@QEAAXI@Z" PURGE="-1" COMMENT="" />
    <EXPORT ORDINAL="12784" NAME="?SetCheckButtonState@CFileDialog@@QEAAJKH@Z" PURGE="-1" COMMENT="" />
    <EXPORT ORDINAL="12783" NAME="?SetCheck@CTreeCtrl@@QEAAHPEAU_TREEITEM@@H@Z" PURGE="-1" COMMENT="" />
    <EXPORT ORDINAL="12782" NAME="?SetCheck@CToolCmdUI@@UEAAXH@Z" PURGE="-1" COMMENT="" />
    <EXPORT ORDINAL="12781" NAME="?SetCheck@CTestCmdUI@@UEAAXH@Z" PURGE="-1" COMMENT="" />
    <EXPORT ORDINAL="12780" NAME="?SetCheck@CStatusCmdUI@@UEAAXH@Z" PURGE="-1" COMMENT="" />
    <EXPORT ORDINAL="12779" NAME="?SetCheck@COleCmdUI@@UEAAXH@Z" PURGE="-1" COMMENT="" />
    <EXPORT ORDINAL="12778" NAME="?SetCheck@CMFCToolBarCmdUI@@UEAAXH@Z" PURGE="-1" COMMENT="" />
    <EXPORT ORDINAL="12777" NAME="?SetCheck@CMFCStatusBarCmdUI@@UEAAXH@Z" PURGE="-1" COMMENT="" />
    <EXPORT ORDINAL="12776" NAME="?SetCheck@CMFCRibbonCmdUI@@UEAAXH@Z" PURGE="-1" COMMENT="" />
    <EXPORT ORDINAL="12775" NAME="?SetCheck@CListCtrl@@QEAAHHH@Z" PURGE="-1" COMMENT="" />
    <EXPORT ORDINAL="12774" NAME="?SetCheck@CCmdUI@@UEAAXH@Z" PURGE="-1" COMMENT="" />
    <EXPORT ORDINAL="12773" NAME="?SetCheck@CCheckListBox@@QEAAXHH@Z" PURGE="-1" COMMENT="" />
    <EXPORT ORDINAL="12772" NAME="?SetCharFormat@CRichEditView@@QEAAXUCHARFORMAT2A@@@Z" PURGE="-1" COMMENT="" />
    <EXPORT ORDINAL="12771" NAME="?SetCenter@CD2DRadialGradientBrush@@QEAAXVCD2DPointF@@@Z" PURGE="-1" COMMENT="" />
    <EXPORT ORDINAL="12770" NAME="?SetCapture@XOleIPSite@COleControlSite@@UEAAJH@Z" PURGE="-1" COMMENT="" />
    <EXPORT ORDINAL="12769" NAME="?SetCapture@COleControl@@QEAAPEAVCWnd@@XZ" PURGE="-1" COMMENT="" />
    <EXPORT ORDINAL="12767" NAME="?SetCaptionButtonsToolTips@CPaneFrameWnd@@IEAAXXZ" PURGE="-1" COMMENT="" />
    <EXPORT ORDINAL="12766" NAME="?SetCaptionButtons@CPaneFrameWnd@@UEAAXK@Z" PURGE="-1" COMMENT="" />
    <EXPORT ORDINAL="12765" NAME="?SetCaptionButtons@CMFCTasksPaneFrameWnd@@UEAAXK@Z" PURGE="-1" COMMENT="" />
    <EXPORT ORDINAL="12764" NAME="?SetCaptionButtons@CMFCTasksPane@@MEAAXXZ" PURGE="-1" COMMENT="" />
    <EXPORT ORDINAL="12763" NAME="?SetCaptionButtons@CDockablePane@@MEAAXXZ" PURGE="-1" COMMENT="" />
    <EXPORT ORDINAL="12762" NAME="?SetCaption@CMFCTasksPane@@QEAAXPEBD@Z" PURGE="-1" COMMENT="" />
    <EXPORT ORDINAL="12755" NAME="?SetButtonsFont@CMFCOutlookBar@@QEAAXPEAVCFont@@H@Z" PURGE="-1" COMMENT="" />
    <EXPORT ORDINAL="12754" NAME="?SetButtons@CToolBar@@QEAAHPEBIH@Z" PURGE="-1" COMMENT="" />
    <EXPORT ORDINAL="12753" NAME="?SetButtons@CMFCToolBar@@UEAAHPEBIHH@Z" PURGE="-1" COMMENT="" />
    <EXPORT ORDINAL="12761" NAME="?SetButtonToolTip@CMFCCaptionBar@@QEAAXPEBD0@Z" PURGE="-1" COMMENT="" />
    <EXPORT ORDINAL="12760" NAME="?SetButtonText@CToolBar@@QEAAHHPEBD@Z" PURGE="-1" COMMENT="" />
    <EXPORT ORDINAL="12759" NAME="?SetButtonText@CMFCToolBar@@QEAAHHPEBD@Z" PURGE="-1" COMMENT="" />
    <EXPORT ORDINAL="12758" NAME="?SetButtonStyle@CToolBar@@QEAAXHI@Z" PURGE="-1" COMMENT="" />
    <EXPORT ORDINAL="12757" NAME="?SetButtonStyle@CMFCToolBar@@UEAAXHI@Z" PURGE="-1" COMMENT="" />
    <EXPORT ORDINAL="12756" NAME="?SetButtonStyle@CMFCPopupMenuBar@@UEAAXHI@Z" PURGE="-1" COMMENT="" />
    <EXPORT ORDINAL="12752" NAME="?SetButtonPressed@CMFCCaptionBar@@QEAAXH@Z" PURGE="-1" COMMENT="" />
    <EXPORT ORDINAL="12751" NAME="?SetButtonInfo@CToolBar@@QEAAXHIIH@Z" PURGE="-1" COMMENT="" />
    <EXPORT ORDINAL="12750" NAME="?SetButtonInfo@CMFCToolBar@@QEAAXHIIH@Z" PURGE="-1" COMMENT="" />
    <EXPORT ORDINAL="12749" NAME="?SetButton@CMFCCaptionBar@@QEAAXPEBDIW4BarElementAlignment@1@H@Z" PURGE="-1" COMMENT="" />
    <EXPORT ORDINAL="12748" NAME="?SetBuffer@CTagManager@@QEAAXPEBD@Z" PURGE="-1" COMMENT="" />
    <EXPORT ORDINAL="12747" NAME="?SetBrowseButtonImage@CMFCEditBrowseCtrl@@QEAAXPEAUHICON__@@H@Z" PURGE="-1" COMMENT="" />
    <EXPORT ORDINAL="12746" NAME="?SetBrowseButtonImage@CMFCEditBrowseCtrl@@QEAAXPEAUHBITMAP__@@H@Z" PURGE="-1" COMMENT="" />
    <EXPORT ORDINAL="12745" NAME="?SetBrowseButtonImage@CMFCEditBrowseCtrl@@QEAAXI@Z" PURGE="-1" COMMENT="" />
    <EXPORT ORDINAL="12740" NAME="?SetBorders@CPane@@QEAAXPEBUtagRECT@@@Z" PURGE="-1" COMMENT="" />
    <EXPORT ORDINAL="12739" NAME="?SetBorders@CPane@@QEAAXHHHH@Z" PURGE="-1" COMMENT="" />
    <EXPORT ORDINAL="12738" NAME="?SetBorders@CControlBar@@QEAAXHHHH@Z" PURGE="-1" COMMENT="" />
    <EXPORT ORDINAL="12744" NAME="?SetBorderStyle@COleControl@@QEAAXF@Z" PURGE="-1" COMMENT="" />
    <EXPORT ORDINAL="12742" NAME="?SetBorderSpace@XOleInPlaceFrame@COleFrameHook@@UEAAJPEBUtagRECT@@@Z" PURGE="-1" COMMENT="" />
    <EXPORT ORDINAL="12743" NAME="?SetBorderSpace@XOleIPFrame@COleControlContainer@@UEAAJPEBUtagRECT@@@Z" PURGE="-1" COMMENT="" />
    <EXPORT ORDINAL="12741" NAME="?SetBorderSize@CMFCOutlookBarTabCtrl@@QEAAXH@Z" PURGE="-1" COMMENT="" />
    <EXPORT ORDINAL="12737" NAME="?SetBoolValue@CMFCFilterChunkValueImpl@@UEAAJAEBU_tagpropertykey@@HW4tagCHUNKSTATE@@KKKW4tagCHUNK_BREAKTYPE@@@Z" PURGE="-1" COMMENT="" />
    <EXPORT ORDINAL="12736" NAME="?SetBoolValue@CMFCFilterChunkValueImpl@@UEAAJAEBU_tagpropertykey@@FW4tagCHUNKSTATE@@KKKW4tagCHUNK_BREAKTYPE@@@Z" PURGE="-1" COMMENT="" />
    <EXPORT ORDINAL="12735" NAME="?SetBoolLabels@CMFCPropertyGridCtrl@@QEAAXPEBD0@Z" PURGE="-1" COMMENT="" />
    <EXPORT ORDINAL="12734" NAME="?SetBookmark@CRecordset@@QEAAXAEBVCDBVariant@@@Z" PURGE="-1" COMMENT="" />
    <EXPORT ORDINAL="12733" NAME="?SetBkMode@CDC@@QEAAHH@Z" PURGE="-1" COMMENT="" />
    <EXPORT ORDINAL="12732" NAME="?SetBkImage@CListCtrl@@QEAAHPEAUHBITMAP__@@HHH@Z" PURGE="-1" COMMENT="" />
    <EXPORT ORDINAL="12731" NAME="?SetBkImage@CListCtrl@@QEAAHPEADHHH@Z" PURGE="-1" COMMENT="" />
    <EXPORT ORDINAL="12730" NAME="?SetBkColor@CPreviewDC@@UEAAKK@Z" PURGE="-1" COMMENT="" />
    <EXPORT ORDINAL="12729" NAME="?SetBkColor@CDC@@UEAAKK@Z" PURGE="-1" COMMENT="" />
    <EXPORT ORDINAL="12728" NAME="?SetBitmap@CToolBar@@QEAAHPEAUHBITMAP__@@@Z" PURGE="-1" COMMENT="" />
    <EXPORT ORDINAL="12727" NAME="?SetBitmap@CMFCImagePaintArea@@QEAAXPEAVCBitmap@@@Z" PURGE="-1" COMMENT="" />
    <EXPORT ORDINAL="12726" NAME="?SetBitmap@CMFCCaptionBar@@QEAAXPEAUHBITMAP__@@KHW4BarElementAlignment@1@@Z" PURGE="-1" COMMENT="" />
    <EXPORT ORDINAL="12725" NAME="?SetBitmap@CMFCCaptionBar@@QEAAXIKHW4BarElementAlignment@1@@Z" PURGE="-1" COMMENT="" />
    <EXPORT ORDINAL="12724" NAME="?SetBitmap@CD2DBitmapBrush@@QEAAXPEAVCD2DBitmap@@@Z" PURGE="-1" COMMENT="" />
    <EXPORT ORDINAL="12723" NAME="?SetBasicCommands@CMFCToolBar@@SAXAEAV?$CList@II@@@Z" PURGE="-1" COMMENT="" />
    <EXPORT ORDINAL="12722" NAME="?SetBarStyle@CControlBar@@QEAAXK@Z" PURGE="-1" COMMENT="" />
    <EXPORT ORDINAL="12721" NAME="?SetBarInfo@CDockBar@@QEAAXPEAVCControlBarInfo@@PEAVCFrameWnd@@@Z" PURGE="-1" COMMENT="" />
    <EXPORT ORDINAL="12720" NAME="?SetBarInfo@CControlBar@@QEAAXPEAVCControlBarInfo@@PEAVCFrameWnd@@@Z" PURGE="-1" COMMENT="" />
    <EXPORT ORDINAL="12718" NAME="?SetBackgroundImage@CDialogEx@@QEAAXPEAUHBITMAP__@@W4BackgroundLocation@1@HH@Z" PURGE="-1" COMMENT="" />
    <EXPORT ORDINAL="12717" NAME="?SetBackgroundImage@CDialogEx@@QEAAHIW4BackgroundLocation@1@H@Z" PURGE="-1" COMMENT="" />
    <EXPORT ORDINAL="12716" NAME="?SetBackgroundColor@XPreviewHandlerVisuals@CDocument@@UEAAJK@Z" PURGE="-1" COMMENT="" />
    <EXPORT ORDINAL="12715" NAME="?SetBackgroundColor@CDialogEx@@QEAAXKH@Z" PURGE="-1" COMMENT="" />
    <EXPORT ORDINAL="12719" NAME="?SetBackImage@CMFCOutlookBarPane@@QEAAXI@Z" PURGE="-1" COMMENT="" />
    <EXPORT ORDINAL="12714" NAME="?SetBackColor@COleControl@@QEAAXK@Z" PURGE="-1" COMMENT="" />
    <EXPORT ORDINAL="12713" NAME="?SetBackColor@CMFCOutlookBarPane@@QEAAXK@Z" PURGE="-1" COMMENT="" />
    <EXPORT ORDINAL="12712" NAME="?SetAutosaveInterval@CDataRecoveryHandler@@UEAAXH@Z" PURGE="-1" COMMENT="" />
    <EXPORT ORDINAL="12711" NAME="?SetAutorepeatMode@CMFCButton@@QEAAXH@Z" PURGE="-1" COMMENT="" />
    <EXPORT ORDINAL="12710" NAME="?SetAutohideZOrder@CDockingManager@@QEAAXPEAVCDockablePane@@@Z" PURGE="-1" COMMENT="" />
    <EXPORT ORDINAL="12706" NAME="?SetAutodestroyTransitions@CAnimationGroup@@QEAAXH@Z" PURGE="-1" COMMENT="" />
    <EXPORT ORDINAL="12709" NAME="?SetAutoHideParents@CDockablePane@@QEAAXPEAVCMFCAutoHideBar@@PEAVCMFCAutoHideButton@@@Z" PURGE="-1" COMMENT="" />
    <EXPORT ORDINAL="12708" NAME="?SetAutoHideMode@CDockablePane@@UEAAPEAVCMFCAutoHideBar@@HKPEAV2@H@Z" PURGE="-1" COMMENT="" />
    <EXPORT ORDINAL="12707" NAME="?SetAutoHideMode@CBaseTabbedPane@@UEAAPEAVCMFCAutoHideBar@@HKPEAV2@H@Z" PURGE="-1" COMMENT="" />
    <EXPORT ORDINAL="12705" NAME="?SetAutoColors@CMFCBaseTabCtrl@@QEAAXAEBV?$CArray@KK@@@Z" PURGE="-1" COMMENT="" />
    <EXPORT ORDINAL="12704" NAME="?SetAttribDC@CPreviewDC@@UEAAXPEAUHDC__@@@Z" PURGE="-1" COMMENT="" />
    <EXPORT ORDINAL="12703" NAME="?SetAttribDC@CMetaFileDC@@UEAAXPEAUHDC__@@@Z" PURGE="-1" COMMENT="" />
    <EXPORT ORDINAL="12702" NAME="?SetAttribDC@CDC@@UEAAXPEAUHDC__@@@Z" PURGE="-1" COMMENT="" />
    <EXPORT ORDINAL="12701" NAME="?SetAtGrow@CWordArray@@QEAAX_JG@Z" PURGE="-1" COMMENT="" />
    <EXPORT ORDINAL="12700" NAME="?SetAtGrow@CUIntArray@@QEAAX_JI@Z" PURGE="-1" COMMENT="" />
    <EXPORT ORDINAL="12699" NAME="?SetAtGrow@CStringArray@@QEAAX_JPEBD@Z" PURGE="-1" COMMENT="" />
    <EXPORT ORDINAL="12698" NAME="?SetAtGrow@CStringArray@@QEAAX_JAEBV?$CStringT@DV?$StrTraitMFC_DLL@DV?$ChTraitsCRT@D@ATL@@@@@ATL@@@Z" PURGE="-1" COMMENT="" />
    <EXPORT ORDINAL="12697" NAME="?SetAtGrow@CPtrArray@@QEAAX_JPEAX@Z" PURGE="-1" COMMENT="" />
    <EXPORT ORDINAL="12696" NAME="?SetAtGrow@CObArray@@QEAAX_JPEAVCObject@@@Z" PURGE="-1" COMMENT="" />
    <EXPORT ORDINAL="12695" NAME="?SetAtGrow@CDWordArray@@QEAAX_JK@Z" PURGE="-1" COMMENT="" />
    <EXPORT ORDINAL="12694" NAME="?SetAtGrow@CByteArray@@QEAAX_JE@Z" PURGE="-1" COMMENT="" />
    <EXPORT ORDINAL="12692" NAME="?SetAt@?$CSimpleStringT@_W$00@ATL@@QEAAXH_W@Z" PURGE="-1" COMMENT="" />
    <EXPORT ORDINAL="12693" NAME="?SetAt@?$CSimpleStringT@D$00@ATL@@QEAAXHD@Z" PURGE="-1" COMMENT="" />
    <EXPORT ORDINAL="12691" NAME="?SetArcDirection@CDC@@QEAAHH@Z" PURGE="-1" COMMENT="" />
    <EXPORT ORDINAL="12690" NAME="?SetApplicationButton@CMFCRibbonBar@@QEAAXPEAVCMFCRibbonApplicationButton@@VCSize@@@Z" PURGE="-1" COMMENT="" />
    <EXPORT ORDINAL="12687" NAME="?SetAppearance@COleControl@@QEAAXF@Z" PURGE="-1" COMMENT="" />
    <EXPORT ORDINAL="12689" NAME="?SetAppID@CWinApp@@IEAAXPEBD@Z" PURGE="-1" COMMENT="" />
    <EXPORT ORDINAL="12688" NAME="?SetAppID@CAppDestinations@@QEAAXPEBD@Z" PURGE="-1" COMMENT="" />
    <EXPORT ORDINAL="12686" NAME="?SetAntialiasMode@CRenderTarget@@QEAAXW4D2D1_ANTIALIAS_MODE@@@Z" PURGE="-1" COMMENT="" />
    <EXPORT ORDINAL="12685" NAME="?SetAnimationSpeed@CMFCPopupMenu@@SAXI@Z" PURGE="-1" COMMENT="" />
    <EXPORT ORDINAL="12684" NAME="?SetAnimationSpeed@CMFCDesktopAlertWnd@@QEAAXI@Z" PURGE="-1" COMMENT="" />
    <EXPORT ORDINAL="12683" NAME="?SetAnimationList@CMFCRibbonStatusBarPane@@QEAAXPEAUHBITMAP__@@HK@Z" PURGE="-1" COMMENT="" />
    <EXPORT ORDINAL="12682" NAME="?SetAnimationList@CMFCRibbonStatusBarPane@@QEAAHIHK@Z" PURGE="-1" COMMENT="" />
    <EXPORT ORDINAL="12681" NAME="?SetAlphabeticMode@CMFCPropertyGridCtrl@@QEAAXH@Z" PURGE="-1" COMMENT="" />
    <EXPORT ORDINAL="12680" NAME="?SetAllCategory@CMFCToolBarsKeyboardPropertyPage@@QEAAXPEBD@Z" PURGE="-1" COMMENT="" />
    <EXPORT ORDINAL="12679" NAME="?SetAllCategory@CMFCToolBarsCommandsPropertyPage@@QEAAXPEBD@Z" PURGE="-1" COMMENT="" />
    <EXPORT ORDINAL="12678" NAME="?SetAdvise@XViewObject@COleControl@@UEAAJKKPEAUIAdviseSink@@@Z" PURGE="-1" COMMENT="" />
    <EXPORT ORDINAL="12677" NAME="?SetActiveView@CTabView@@QEAAHH@Z" PURGE="-1" COMMENT="" />
    <EXPORT ORDINAL="12676" NAME="?SetActiveView@CFrameWnd@@QEAAXPEAVCView@@H@Z" PURGE="-1" COMMENT="" />
    <EXPORT ORDINAL="12675" NAME="?SetActiveTabTextColor@CMFCBaseTabCtrl@@UEAAXK@Z" PURGE="-1" COMMENT="" />
    <EXPORT ORDINAL="12674" NAME="?SetActiveTabColor@CMFCBaseTabCtrl@@UEAAXK@Z" PURGE="-1" COMMENT="" />
    <EXPORT ORDINAL="12673" NAME="?SetActiveTabBoldFont@CMFCTabCtrl@@QEAAXH@Z" PURGE="-1" COMMENT="" />
    <EXPORT ORDINAL="12672" NAME="?SetActiveTab@CMFCTabCtrl@@UEAAHH@Z" PURGE="-1" COMMENT="" />
    <EXPORT ORDINAL="12671" NAME="?SetActiveTab@CMFCPropertySheetTabCtrl@@EEAAHH@Z" PURGE="-1" COMMENT="" />
    <EXPORT ORDINAL="12670" NAME="?SetActiveTab@CMFCOutlookBarTabCtrl@@UEAAHH@Z" PURGE="-1" COMMENT="" />
    <EXPORT ORDINAL="12669" NAME="?SetActiveTab@CMDIClientAreaWnd@@QEAAXPEAUHWND__@@@Z" PURGE="-1" COMMENT="" />
    <EXPORT ORDINAL="12668" NAME="?SetActivePreviewView@CFrameWnd@@QEAAXPEAVCView@@@Z" PURGE="-1" COMMENT="" />
    <EXPORT ORDINAL="12667" NAME="?SetActivePane@CSplitterWnd@@UEAAXHHPEAVCWnd@@@Z" PURGE="-1" COMMENT="" />
    <EXPORT ORDINAL="12666" NAME="?SetActivePage@CPropertySheet@@QEAAHPEAVCPropertyPage@@@Z" PURGE="-1" COMMENT="" />
    <EXPORT ORDINAL="12665" NAME="?SetActivePage@CPropertySheet@@QEAAHH@Z" PURGE="-1" COMMENT="" />
    <EXPORT ORDINAL="12664" NAME="?SetActivePage@CMFCTasksPane@@QEAAXH@Z" PURGE="-1" COMMENT="" />
    <EXPORT ORDINAL="12662" NAME="?SetActiveObject@XOleInPlaceFrame@COleFrameHook@@UEAAJPEAUIOleInPlaceActiveObject@@PEB_W@Z" PURGE="-1" COMMENT="" />
    <EXPORT ORDINAL="12663" NAME="?SetActiveObject@XOleIPFrame@COleControlContainer@@UEAAJPEAUIOleInPlaceActiveObject@@PEB_W@Z" PURGE="-1" COMMENT="" />
    <EXPORT ORDINAL="12661" NAME="?SetActiveMenu@CMFCPropertyPage@@IEAAXPEAVCMFCPopupMenu@@@Z" PURGE="-1" COMMENT="" />
    <EXPORT ORDINAL="12660" NAME="?SetActiveMenu@CDialogImpl@@IEAAXPEAVCMFCPopupMenu@@@Z" PURGE="-1" COMMENT="" />
    <EXPORT ORDINAL="12659" NAME="?SetActiveMenu@CDialogEx@@IEAAXPEAVCMFCPopupMenu@@@Z" PURGE="-1" COMMENT="" />
    <EXPORT ORDINAL="12658" NAME="?SetActiveMDIChild@CMFCRibbonBar@@QEAAXPEAVCWnd@@@Z" PURGE="-1" COMMENT="" />
    <EXPORT ORDINAL="12657" NAME="?SetActiveInGroup@CPane@@UEAAXH@Z" PURGE="-1" COMMENT="" />
    <EXPORT ORDINAL="12656" NAME="?SetActiveInGroup@CMFCAutoHideBar@@UEAAXH@Z" PURGE="-1" COMMENT="" />
    <EXPORT ORDINAL="12655" NAME="?SetActiveCategory@CMFCRibbonBar@@UEAAHPEAVCMFCRibbonCategory@@H@Z" PURGE="-1" COMMENT="" />
    <EXPORT ORDINAL="12654" NAME="?SetActive@CMFCRibbonPanelMenuBar@@QEAAXH@Z" PURGE="-1" COMMENT="" />
    <EXPORT ORDINAL="12653" NAME="?SetActive@CMFCRibbonCategory@@IEAAXH@Z" PURGE="-1" COMMENT="" />
    <EXPORT ORDINAL="12652" NAME="?SetAccelTable@CKeyboardManager@@KAXAEAPEAUtagACCEL@@AEAPEAUHACCEL__@@AEAHQEAU3@@Z" PURGE="-1" COMMENT="" />
    <EXPORT ORDINAL="12651" NAME="?SetAccelFlag@CMFCAcceleratorKeyAssignCtrl@@IEAAXEH@Z" PURGE="-1" COMMENT="" />
    <EXPORT ORDINAL="12650" NAME="?SetACCData@CMFCToolBarSpinEditBoxButton@@UEAAHPEAVCWnd@@AEAVCAccessibilityData@@@Z" PURGE="-1" COMMENT="" />
    <EXPORT ORDINAL="12649" NAME="?SetACCData@CMFCToolBarMenuButton@@UEAAHPEAVCWnd@@AEAVCAccessibilityData@@@Z" PURGE="-1" COMMENT="" />
    <EXPORT ORDINAL="12648" NAME="?SetACCData@CMFCToolBarEditBoxButton@@UEAAHPEAVCWnd@@AEAVCAccessibilityData@@@Z" PURGE="-1" COMMENT="" />
    <EXPORT ORDINAL="12647" NAME="?SetACCData@CMFCToolBarComboBoxButton@@UEAAHPEAVCWnd@@AEAVCAccessibilityData@@@Z" PURGE="-1" COMMENT="" />
    <EXPORT ORDINAL="12646" NAME="?SetACCData@CMFCToolBarButton@@UEAAHPEAVCWnd@@AEAVCAccessibilityData@@@Z" PURGE="-1" COMMENT="" />
    <EXPORT ORDINAL="12645" NAME="?SetACCData@CMFCTasksPaneTaskGroup@@UEAAHPEAVCWnd@@AEAVCAccessibilityData@@@Z" PURGE="-1" COMMENT="" />
    <EXPORT ORDINAL="12644" NAME="?SetACCData@CMFCTasksPaneTask@@UEAAHPEAVCWnd@@AEAVCAccessibilityData@@@Z" PURGE="-1" COMMENT="" />
    <EXPORT ORDINAL="12643" NAME="?SetACCData@CMFCTasksPanePropertyPage@@UEAAHPEAVCWnd@@AEAVCAccessibilityData@@@Z" PURGE="-1" COMMENT="" />
    <EXPORT ORDINAL="12642" NAME="?SetACCData@CMFCRibbonTab@@UEAAHPEAVCWnd@@AEAVCAccessibilityData@@@Z" PURGE="-1" COMMENT="" />
    <EXPORT ORDINAL="14082" NAME="?SetACCData@CMFCRibbonLaunchButton@@UEAAHPEAVCWnd@@AEAVCAccessibilityData@@@Z" PURGE="-1" COMMENT="" />
    <EXPORT ORDINAL="12641" NAME="?SetACCData@CMFCRibbonLabel@@UEAAHPEAVCWnd@@AEAVCAccessibilityData@@@Z" PURGE="-1" COMMENT="" />
    <EXPORT ORDINAL="12640" NAME="?SetACCData@CMFCRibbonGalleryIcon@@UEAAHPEAVCWnd@@AEAVCAccessibilityData@@@Z" PURGE="-1" COMMENT="" />
    <EXPORT ORDINAL="12639" NAME="?SetACCData@CMFCRibbonEdit@@UEAAHPEAVCWnd@@AEAVCAccessibilityData@@@Z" PURGE="-1" COMMENT="" />
    <EXPORT ORDINAL="12638" NAME="?SetACCData@CMFCRibbonDefaultPanelButton@@UEAAHPEAVCWnd@@AEAVCAccessibilityData@@@Z" PURGE="-1" COMMENT="" />
    <EXPORT ORDINAL="12637" NAME="?SetACCData@CMFCRibbonColorButton@@UEAAHPEAVCWnd@@AEAVCAccessibilityData@@@Z" PURGE="-1" COMMENT="" />
    <EXPORT ORDINAL="12636" NAME="?SetACCData@CMFCRibbonButton@@UEAAHPEAVCWnd@@AEAVCAccessibilityData@@@Z" PURGE="-1" COMMENT="" />
    <EXPORT ORDINAL="12635" NAME="?SetACCData@CMFCRibbonBaseElement@@UEAAHPEAVCWnd@@AEAVCAccessibilityData@@@Z" PURGE="-1" COMMENT="" />
    <EXPORT ORDINAL="12634" NAME="?Set@CPropertySet@@QEAAHU_GUID@@KPEAXK@Z" PURGE="-1" COMMENT="" />
    <EXPORT ORDINAL="12633" NAME="?Set@CPropertySet@@QEAAHU_GUID@@KPEAX@Z" PURGE="-1" COMMENT="" />
    <EXPORT ORDINAL="12632" NAME="?Set@CPropertySection@@QEAAHKPEAXK@Z" PURGE="-1" COMMENT="" />
    <EXPORT ORDINAL="12631" NAME="?Set@CPropertySection@@QEAAHKPEAX@Z" PURGE="-1" COMMENT="" />
    <EXPORT ORDINAL="12630" NAME="?Set@CProperty@@QEAAHQEAXK@Z" PURGE="-1" COMMENT="" />
    <EXPORT ORDINAL="12629" NAME="?Set@CProperty@@QEAAHQEAX@Z" PURGE="-1" COMMENT="" />
    <EXPORT ORDINAL="12628" NAME="?Set@CProperty@@QEAAHKQEAXK@Z" PURGE="-1" COMMENT="" />
    <EXPORT ORDINAL="12627" NAME="?SerializeVersion@COleControl@@QEAAKAEAVCArchive@@KH@Z" PURGE="-1" COMMENT="" />
    <EXPORT ORDINAL="12626" NAME="?SerializeTabWindow@CBaseTabbedPane@@UEAAXAEAVCArchive@@@Z" PURGE="-1" COMMENT="" />
    <EXPORT ORDINAL="12625" NAME="?SerializeTabGroup@CMDIClientAreaWnd@@AEAAXAEAVCArchive@@PEAVCMFCTabCtrl@@H@Z" PURGE="-1" COMMENT="" />
    <EXPORT ORDINAL="12624" NAME="?SerializeStockProps@COleControl@@QEAAXAEAVCArchive@@@Z" PURGE="-1" COMMENT="" />
    <EXPORT ORDINAL="12623" NAME="?SerializeRaw@CEditView@@QEAAXAEAVCArchive@@@Z" PURGE="-1" COMMENT="" />
    <EXPORT ORDINAL="12622" NAME="?SerializeOpenChildren@CMDIClientAreaWnd@@AEAAXAEAVCArchive@@@Z" PURGE="-1" COMMENT="" />
    <EXPORT ORDINAL="12621" NAME="?SerializeExtent@COleControl@@QEAAXAEAVCArchive@@@Z" PURGE="-1" COMMENT="" />
    <EXPORT ORDINAL="12620" NAME="?SerializeClass@CArchive@@QEAAXPEBUCRuntimeClass@@@Z" PURGE="-1" COMMENT="" />
    <EXPORT ORDINAL="12617" NAME="?Serialize@CWordArray@@UEAAXAEAVCArchive@@@Z" PURGE="-1" COMMENT="" />
    <EXPORT ORDINAL="12616" NAME="?Serialize@CUserTool@@UEAAXAEAVCArchive@@@Z" PURGE="-1" COMMENT="" />
    <EXPORT ORDINAL="12615" NAME="?Serialize@CStringList@@UEAAXAEAVCArchive@@@Z" PURGE="-1" COMMENT="" />
    <EXPORT ORDINAL="12614" NAME="?Serialize@CStringArray@@UEAAXAEAVCArchive@@@Z" PURGE="-1" COMMENT="" />
    <EXPORT ORDINAL="12613" NAME="?Serialize@CRichEditView@@UEAAXAEAVCArchive@@@Z" PURGE="-1" COMMENT="" />
    <EXPORT ORDINAL="12612" NAME="?Serialize@CRichEditDoc@@UEAAXAEAVCArchive@@@Z" PURGE="-1" COMMENT="" />
    <EXPORT ORDINAL="12611" NAME="?Serialize@CPaneFrameWnd@@UEAAXAEAVCArchive@@@Z" PURGE="-1" COMMENT="" />
    <EXPORT ORDINAL="12610" NAME="?Serialize@CPaneDivider@@UEAAXAEAVCArchive@@@Z" PURGE="-1" COMMENT="" />
    <EXPORT ORDINAL="12609" NAME="?Serialize@CPaneContainerManager@@UEAAXAEAVCArchive@@@Z" PURGE="-1" COMMENT="" />
    <EXPORT ORDINAL="12608" NAME="?Serialize@CPaneContainer@@UEAAXAEAVCArchive@@@Z" PURGE="-1" COMMENT="" />
    <EXPORT ORDINAL="12607" NAME="?Serialize@COleServerDocEx@@UEAAXAEAVCArchive@@@Z" PURGE="-1" COMMENT="" />
    <EXPORT ORDINAL="12606" NAME="?Serialize@COleDocument@@UEAAXAEAVCArchive@@@Z" PURGE="-1" COMMENT="" />
    <EXPORT ORDINAL="12605" NAME="?Serialize@COleControl@@MEAAXAEAVCArchive@@@Z" PURGE="-1" COMMENT="" />
    <EXPORT ORDINAL="12604" NAME="?Serialize@COleClientItem@@UEAAXAEAVCArchive@@@Z" PURGE="-1" COMMENT="" />
    <EXPORT ORDINAL="12603" NAME="?Serialize@CObList@@UEAAXAEAVCArchive@@@Z" PURGE="-1" COMMENT="" />
    <EXPORT ORDINAL="12602" NAME="?Serialize@CObArray@@UEAAXAEAVCArchive@@@Z" PURGE="-1" COMMENT="" />
    <EXPORT ORDINAL="12601" NAME="?Serialize@CMultiPaneFrameWnd@@UEAAXAEAVCArchive@@@Z" PURGE="-1" COMMENT="" />
    <EXPORT ORDINAL="12600" NAME="?Serialize@CMouseManager@@MEAAXAEAVCArchive@@@Z" PURGE="-1" COMMENT="" />
    <EXPORT ORDINAL="12583" NAME="?Serialize@CMapWordToOb@@UEAAXAEAVCArchive@@@Z" PURGE="-1" COMMENT="" />
    <EXPORT ORDINAL="12582" NAME="?Serialize@CMapStringToString@@UEAAXAEAVCArchive@@@Z" PURGE="-1" COMMENT="" />
    <EXPORT ORDINAL="12581" NAME="?Serialize@CMapStringToOb@@UEAAXAEAVCArchive@@@Z" PURGE="-1" COMMENT="" />
    <EXPORT ORDINAL="12599" NAME="?Serialize@CMFCToolBarSpinEditBoxButton@@MEAAXAEAVCArchive@@@Z" PURGE="-1" COMMENT="" />
    <EXPORT ORDINAL="12598" NAME="?Serialize@CMFCToolBarMenuButton@@UEAAXAEAVCArchive@@@Z" PURGE="-1" COMMENT="" />
    <EXPORT ORDINAL="12597" NAME="?Serialize@CMFCToolBarFontComboBox@@MEAAXAEAVCArchive@@@Z" PURGE="-1" COMMENT="" />
    <EXPORT ORDINAL="12596" NAME="?Serialize@CMFCToolBarEditBoxButton@@UEAAXAEAVCArchive@@@Z" PURGE="-1" COMMENT="" />
    <EXPORT ORDINAL="12595" NAME="?Serialize@CMFCToolBarDateTimeCtrl@@UEAAXAEAVCArchive@@@Z" PURGE="-1" COMMENT="" />
    <EXPORT ORDINAL="12594" NAME="?Serialize@CMFCToolBarComboBoxButton@@UEAAXAEAVCArchive@@@Z" PURGE="-1" COMMENT="" />
    <EXPORT ORDINAL="12593" NAME="?Serialize@CMFCToolBarButton@@UEAAXAEAVCArchive@@@Z" PURGE="-1" COMMENT="" />
    <EXPORT ORDINAL="12592" NAME="?Serialize@CMFCToolBar@@UEAAXAEAVCArchive@@@Z" PURGE="-1" COMMENT="" />
    <EXPORT ORDINAL="12591" NAME="?Serialize@CMFCTasksPane@@UEAAXAEAVCArchive@@@Z" PURGE="-1" COMMENT="" />
    <EXPORT ORDINAL="12590" NAME="?Serialize@CMFCDropDownToolbarButton@@UEAAXAEAVCArchive@@@Z" PURGE="-1" COMMENT="" />
    <EXPORT ORDINAL="12589" NAME="?Serialize@CMFCColorMenuButton@@MEAAXAEAVCArchive@@@Z" PURGE="-1" COMMENT="" />
    <EXPORT ORDINAL="12588" NAME="?Serialize@CMFCColorBar@@MEAAXAEAVCArchive@@@Z" PURGE="-1" COMMENT="" />
    <EXPORT ORDINAL="12587" NAME="?Serialize@CMFCCmdUsageCount@@UEAAXAEAVCArchive@@@Z" PURGE="-1" COMMENT="" />
    <EXPORT ORDINAL="12586" NAME="?Serialize@CMFCBaseTabCtrl@@UEAAXAEAVCArchive@@@Z" PURGE="-1" COMMENT="" />
    <EXPORT ORDINAL="12585" NAME="?Serialize@CMDITabInfo@@QEAAXAEAVCArchive@@@Z" PURGE="-1" COMMENT="" />
    <EXPORT ORDINAL="12584" NAME="?Serialize@CMDIClientAreaWnd@@UEAAXAEAVCArchive@@@Z" PURGE="-1" COMMENT="" />
    <EXPORT ORDINAL="12580" NAME="?Serialize@CEditView@@UEAAXAEAVCArchive@@@Z" PURGE="-1" COMMENT="" />
    <EXPORT ORDINAL="12577" NAME="?Serialize@CDockingManager@@UEAAXAEAVCArchive@@@Z" PURGE="-1" COMMENT="" />
    <EXPORT ORDINAL="12576" NAME="?Serialize@CDockablePane@@UEAAXAEAVCArchive@@@Z" PURGE="-1" COMMENT="" />
    <EXPORT ORDINAL="12578" NAME="?Serialize@CDockState@@UEAAXAEAVCArchive@@@Z" PURGE="-1" COMMENT="" />
    <EXPORT ORDINAL="12575" NAME="?Serialize@CDocItem@@UEAAXAEAVCArchive@@@Z" PURGE="-1" COMMENT="" />
    <EXPORT ORDINAL="12579" NAME="?Serialize@CDWordArray@@UEAAXAEAVCArchive@@@Z" PURGE="-1" COMMENT="" />
    <EXPORT ORDINAL="12574" NAME="?Serialize@CControlBarInfo@@QEAAXAEAVCArchive@@PEAVCDockState@@@Z" PURGE="-1" COMMENT="" />
    <EXPORT ORDINAL="12573" NAME="?Serialize@CByteArray@@UEAAXAEAVCArchive@@@Z" PURGE="-1" COMMENT="" />
    <EXPORT ORDINAL="12572" NAME="?Serialize@CBaseTabbedPane@@UEAAXAEAVCArchive@@@Z" PURGE="-1" COMMENT="" />
    <EXPORT ORDINAL="12571" NAME="?Serialize@CBasePane@@UEAAXAEAVCArchive@@@Z" PURGE="-1" COMMENT="" />
    <EXPORT ORDINAL="12570" NAME="?Serialize@AFX_AUTOHIDE_DOCKSITE_SAVE_INFO@@QEAAXAEAVCArchive@@@Z" PURGE="-1" COMMENT="" />
    <EXPORT ORDINAL="12619" NAME="?Serialize64@CTimeSpan@ATL@@QEAAAEAVCArchive@@AEAV3@@Z" PURGE="-1" COMMENT="" />
    <EXPORT ORDINAL="12618" NAME="?Serialize64@CTime@ATL@@QEAAAEAVCArchive@@AEAV3@@Z" PURGE="-1" COMMENT="" />
    <EXPORT ORDINAL="12569" NAME="?SendToHelper@CSocket@@MEAAHPEBXHPEBUsockaddr@@HH@Z" PURGE="-1" COMMENT="" />
    <EXPORT ORDINAL="12568" NAME="?SendToHelper@CAsyncSocket@@MEAAHPEBXHPEBUsockaddr@@HH@Z" PURGE="-1" COMMENT="" />
    <EXPORT ORDINAL="12567" NAME="?SendTo@CAsyncSocket@@QEAAHPEBXHIPEBDH@Z" PURGE="-1" COMMENT="" />
    <EXPORT ORDINAL="12566" NAME="?SendRequestEx@CHttpFile@@QEAAHPEAU_INTERNET_BUFFERSA@@0K_K@Z" PURGE="-1" COMMENT="" />
    <EXPORT ORDINAL="12565" NAME="?SendRequestEx@CHttpFile@@QEAAHKK_K@Z" PURGE="-1" COMMENT="" />
    <EXPORT ORDINAL="12564" NAME="?SendRequest@CHttpFile@@QEAAHPEBDKPEAXK@Z" PURGE="-1" COMMENT="" />
    <EXPORT ORDINAL="12563" NAME="?SendRequest@CHttpFile@@QEAAHAEAV?$CStringT@DV?$StrTraitMFC_DLL@DV?$ChTraitsCRT@D@ATL@@@@@ATL@@PEAXK@Z" PURGE="-1" COMMENT="" />
    <EXPORT ORDINAL="12562" NAME="?SendMnemonic@COleControlSite@@QEAAXPEAUtagMSG@@@Z" PURGE="-1" COMMENT="" />
    <EXPORT ORDINAL="12561" NAME="?SendMessageToMiniFrames@CDockingManager@@QEAAHI_K_J@Z" PURGE="-1" COMMENT="" />
    <EXPORT ORDINAL="12560" NAME="?SendMessageToDescendants@CWnd@@SAXPEAUHWND__@@I_K_JHH@Z" PURGE="-1" COMMENT="" />
    <EXPORT ORDINAL="12559" NAME="?SendLongBinaryData@CRecordset@@IEAAXPEAX@Z" PURGE="-1" COMMENT="" />
    <EXPORT ORDINAL="12558" NAME="?SendInitialUpdate@CDocument@@QEAAXXZ" PURGE="-1" COMMENT="" />
    <EXPORT ORDINAL="12557" NAME="?SendDlgItemMessageA@CWnd@@QEAA_JHI_K_J@Z" PURGE="-1" COMMENT="" />
    <EXPORT ORDINAL="12556" NAME="?SendDlgItemMessageA@COleControlContainer@@UEAA_JHI_K_J@Z" PURGE="-1" COMMENT="" />
    <EXPORT ORDINAL="12555" NAME="?SendChunk@CSocket@@QEAAHPEBXHH@Z" PURGE="-1" COMMENT="" />
    <EXPORT ORDINAL="12554" NAME="?SendChildNotifyLastMsg@CWnd@@QEAAHPEA_J@Z" PURGE="-1" COMMENT="" />
    <EXPORT ORDINAL="12553" NAME="?SendAdvise@COleControl@@IEAAXI@Z" PURGE="-1" COMMENT="" />
    <EXPORT ORDINAL="12552" NAME="?Send@CSocket@@UEAAHPEBXHH@Z" PURGE="-1" COMMENT="" />
    <EXPORT ORDINAL="12551" NAME="?Send@CAsyncSocket@@UEAAHPEBXHH@Z" PURGE="-1" COMMENT="" />
    <EXPORT ORDINAL="12525" NAME="?SelectionChange@CPrintDialogEx@@UEAAJXZ" PURGE="-1" COMMENT="" />
    <EXPORT ORDINAL="12510" NAME="?Select_FindString@CDHtmlDialog@@IEAAJPEAUIHTMLSelectElement@@PEA_WH@Z" PURGE="-1" COMMENT="" />
    <EXPORT ORDINAL="12550" NAME="?SelectStockObject@CPreviewDC@@UEAAPEAVCGdiObject@@H@Z" PURGE="-1" COMMENT="" />
    <EXPORT ORDINAL="12549" NAME="?SelectStockObject@CDC@@UEAAPEAVCGdiObject@@H@Z" PURGE="-1" COMMENT="" />
    <EXPORT ORDINAL="12548" NAME="?SelectStockFont@COleControl@@QEAAPEAVCFont@@PEAVCDC@@@Z" PURGE="-1" COMMENT="" />
    <EXPORT ORDINAL="12547" NAME="?SelectPrinter@CWinApp@@QEAAXPEAX0H@Z" PURGE="-1" COMMENT="" />
    <EXPORT ORDINAL="12546" NAME="?SelectPath@CMFCShellTreeCtrl@@QEAAHPEFBU_ITEMIDLIST@@H@Z" PURGE="-1" COMMENT="" />
    <EXPORT ORDINAL="12545" NAME="?SelectPath@CMFCShellTreeCtrl@@QEAAHPEBDH@Z" PURGE="-1" COMMENT="" />
    <EXPORT ORDINAL="12544" NAME="?SelectPalette@CMFCColorBar@@IEAAPEAVCPalette@@PEAVCDC@@@Z" PURGE="-1" COMMENT="" />
    <EXPORT ORDINAL="12543" NAME="?SelectPalette@CDC@@QEAAPEAVCPalette@@PEAV2@H@Z" PURGE="-1" COMMENT="" />
    <EXPORT ORDINAL="12542" NAME="?SelectObject@CPreviewDC@@UEAAPEAVCFont@@PEAV2@@Z" PURGE="-1" COMMENT="" />
    <EXPORT ORDINAL="12541" NAME="?SelectObject@CDC@@UEAAPEAVCFont@@PEAV2@@Z" PURGE="-1" COMMENT="" />
    <EXPORT ORDINAL="12540" NAME="?SelectObject@CDC@@QEAAPEAVCPen@@PEAV2@@Z" PURGE="-1" COMMENT="" />
    <EXPORT ORDINAL="12539" NAME="?SelectObject@CDC@@QEAAPEAVCBrush@@PEAV2@@Z" PURGE="-1" COMMENT="" />
    <EXPORT ORDINAL="12538" NAME="?SelectObject@CDC@@QEAAHPEAVCRgn@@@Z" PURGE="-1" COMMENT="" />
    <EXPORT ORDINAL="12537" NAME="?SelectMenu@CMFCToolBarsMenuPropertyPage@@QEAAHPEAVCDocTemplate@@H@Z" PURGE="-1" COMMENT="" />
    <EXPORT ORDINAL="12534" NAME="?SelectItemAll@CMFCToolBarComboBoxButton@@SAHI_K@Z" PURGE="-1" COMMENT="" />
    <EXPORT ORDINAL="12536" NAME="?SelectItemAll@CMFCToolBarComboBoxButton@@SAHIPEBD@Z" PURGE="-1" COMMENT="" />
    <EXPORT ORDINAL="12535" NAME="?SelectItemAll@CMFCToolBarComboBoxButton@@SAHIH@Z" PURGE="-1" COMMENT="" />
    <EXPORT ORDINAL="12533" NAME="?SelectItem@CVSListBox@@UEAAHH@Z" PURGE="-1" COMMENT="" />
    <EXPORT ORDINAL="12530" NAME="?SelectItem@CMFCToolBarComboBoxButton@@QEAAH_K@Z" PURGE="-1" COMMENT="" />
    <EXPORT ORDINAL="12532" NAME="?SelectItem@CMFCToolBarComboBoxButton@@QEAAHPEBD@Z" PURGE="-1" COMMENT="" />
    <EXPORT ORDINAL="12531" NAME="?SelectItem@CMFCToolBarComboBoxButton@@QEAAHHH@Z" PURGE="-1" COMMENT="" />
    <EXPORT ORDINAL="12529" NAME="?SelectItem@CMFCRibbonGallery@@QEAAXH@Z" PURGE="-1" COMMENT="" />
    <EXPORT ORDINAL="12526" NAME="?SelectItem@CMFCRibbonComboBox@@QEAAH_K@Z" PURGE="-1" COMMENT="" />
    <EXPORT ORDINAL="12528" NAME="?SelectItem@CMFCRibbonComboBox@@QEAAHPEBD@Z" PURGE="-1" COMMENT="" />
    <EXPORT ORDINAL="12527" NAME="?SelectItem@CMFCRibbonComboBox@@QEAAHH@Z" PURGE="-1" COMMENT="" />
    <EXPORT ORDINAL="12524" NAME="?SelectGdiObject@CDC@@KAPEAVCGdiObject@@PEAUHDC__@@PEAX@Z" PURGE="-1" COMMENT="" />
    <EXPORT ORDINAL="12523" NAME="?SelectFontObject@COleControl@@QEAAPEAVCFont@@PEAVCDC@@AEAVCFontHolder@@@Z" PURGE="-1" COMMENT="" />
    <EXPORT ORDINAL="12522" NAME="?SelectFont@CMFCHeaderCtrl@@IEAAPEAVCFont@@PEAVCDC@@@Z" PURGE="-1" COMMENT="" />
    <EXPORT ORDINAL="12521" NAME="?SelectFont@CMFCFontComboBox@@QEAAHPEBDE@Z" PURGE="-1" COMMENT="" />
    <EXPORT ORDINAL="12520" NAME="?SelectFont@CMFCFontComboBox@@QEAAHPEAVCMFCFontInfo@@@Z" PURGE="-1" COMMENT="" />
    <EXPORT ORDINAL="12519" NAME="?SelectFont@CMFCButton@@MEAAPEAVCFont@@PEAVCDC@@@Z" PURGE="-1" COMMENT="" />
    <EXPORT ORDINAL="12518" NAME="?SelectCommand@CMFCMousePropertyPage@@IEAAHI@Z" PURGE="-1" COMMENT="" />
    <EXPORT ORDINAL="12517" NAME="?SelectClipRgn@CDC@@QEAAHPEAVCRgn@@H@Z" PURGE="-1" COMMENT="" />
    <EXPORT ORDINAL="12516" NAME="?SelectClipRgn@CDC@@QEAAHPEAVCRgn@@@Z" PURGE="-1" COMMENT="" />
    <EXPORT ORDINAL="12515" NAME="?SelectClipPath@CDC@@QEAAHH@Z" PURGE="-1" COMMENT="" />
    <EXPORT ORDINAL="12514" NAME="?SelectCellHexagon@CMFCColorPickerCtrl@@QEAAXEEE@Z" PURGE="-1" COMMENT="" />
    <EXPORT ORDINAL="12513" NAME="?SelectCellHexagon@CMFCColorPickerCtrl@@IEAAHHH@Z" PURGE="-1" COMMENT="" />
    <EXPORT ORDINAL="12512" NAME="?SelectButton@CMFCToolBarButtonsListButton@@QEAAHH@Z" PURGE="-1" COMMENT="" />
    <EXPORT ORDINAL="12511" NAME="?SelectButton@CMFCToolBarButtonsListButton@@IEAAXPEAVCMFCToolBarButton@@@Z" PURGE="-1" COMMENT="" />
    <EXPORT ORDINAL="12509" NAME="?Select@CFontHolder@@QEAAPEAVCFont@@PEAVCDC@@JJ@Z" PURGE="-1" COMMENT="" />
    <EXPORT ORDINAL="12508" NAME="?SelActive@CMFCWindowsManagerDialog@@IEAAXXZ" PURGE="-1" COMMENT="" />
    <EXPORT ORDINAL="12507" NAME="?Seek@CStdioFile@@UEAA_K_JI@Z" PURGE="-1" COMMENT="" />
    <EXPORT ORDINAL="12506" NAME="?Seek@CSocketFile@@UEAA_K_JI@Z" PURGE="-1" COMMENT="" />
    <EXPORT ORDINAL="12505" NAME="?Seek@COleStreamFile@@UEAA_K_JI@Z" PURGE="-1" COMMENT="" />
    <EXPORT ORDINAL="12504" NAME="?Seek@CMemFile@@UEAA_K_JI@Z" PURGE="-1" COMMENT="" />
    <EXPORT ORDINAL="12503" NAME="?Seek@CInternetFile@@UEAA_K_JI@Z" PURGE="-1" COMMENT="" />
    <EXPORT ORDINAL="12502" NAME="?Seek@CFile@@UEAA_K_JI@Z" PURGE="-1" COMMENT="" />
    <EXPORT ORDINAL="12501" NAME="?Seek@CArchiveStream@@UEAAJT_LARGE_INTEGER@@KPEAT_ULARGE_INTEGER@@@Z" PURGE="-1" COMMENT="" />
    <EXPORT ORDINAL="12500" NAME="?SearchCommandText@CMFCCustomizeMenuButton@@IEAA?AV?$CStringT@DV?$StrTraitMFC_DLL@DV?$ChTraitsCRT@D@ATL@@@@@ATL@@PEAVCMenu@@I@Z" PURGE="-1" COMMENT="" />
    <EXPORT ORDINAL="12499" NAME="?ScrollWindowEx@CWnd@@QEAAHHHPEBUtagRECT@@0PEAVCRgn@@PEAU2@I@Z" PURGE="-1" COMMENT="" />
    <EXPORT ORDINAL="12498" NAME="?ScrollWindow@CWnd@@QEAAXHHPEBUtagRECT@@0@Z" PURGE="-1" COMMENT="" />
    <EXPORT ORDINAL="12497" NAME="?ScrollWindow@COleControl@@QEAAXHHPEBUtagRECT@@0@Z" PURGE="-1" COMMENT="" />
    <EXPORT ORDINAL="12496" NAME="?ScrollUp@CMFCOutlookBarPane@@IEAAXXZ" PURGE="-1" COMMENT="" />
    <EXPORT ORDINAL="12495" NAME="?ScrollToPosition@CScrollView@@QEAAXUtagPOINT@@@Z" PURGE="-1" COMMENT="" />
    <EXPORT ORDINAL="12494" NAME="?ScrollToDevicePosition@CScrollView@@IEAAXUtagPOINT@@@Z" PURGE="-1" COMMENT="" />
    <EXPORT ORDINAL="12493" NAME="?ScrollRect@XOleIPSite@COleControlSite@@UEAAJHHPEBUtagRECT@@0@Z" PURGE="-1" COMMENT="" />
    <EXPORT ORDINAL="12492" NAME="?ScrollPalette@CMFCRibbonPanel@@IEAAXHH@Z" PURGE="-1" COMMENT="" />
    <EXPORT ORDINAL="12491" NAME="?ScrollPageUp@CMFCOutlookBarPane@@IEAAXXZ" PURGE="-1" COMMENT="" />
    <EXPORT ORDINAL="12490" NAME="?ScrollPageDown@CMFCOutlookBarPane@@IEAAXXZ" PURGE="-1" COMMENT="" />
    <EXPORT ORDINAL="12489" NAME="?ScrollDown@CMFCOutlookBarPane@@IEAAXXZ" PURGE="-1" COMMENT="" />
    <EXPORT ORDINAL="12488" NAME="?ScrollContainerBy@COleServerDoc@@QEAAHVCSize@@@Z" PURGE="-1" COMMENT="" />
    <EXPORT ORDINAL="12487" NAME="?ScrollChildren@COleControlContainer@@UEAAXHH@Z" PURGE="-1" COMMENT="" />
    <EXPORT ORDINAL="12486" NAME="?Scroll@XOleIPSite@COleControlSite@@UEAAJUtagSIZE@@@Z" PURGE="-1" COMMENT="" />
    <EXPORT ORDINAL="12485" NAME="?Scroll@XOleIPSite@COleClientItem@@UEAAJUtagSIZE@@@Z" PURGE="-1" COMMENT="" />
    <EXPORT ORDINAL="12484" NAME="?ScreenToClient@CWnd@@QEBAXPEAUtagRECT@@@Z" PURGE="-1" COMMENT="" />
    <EXPORT ORDINAL="12483" NAME="?ScreenToClient@CDockingPanesRow@@QEBAXAEAVCRect@@@Z" PURGE="-1" COMMENT="" />
    <EXPORT ORDINAL="12482" NAME="?ScreenToBitmap@CMFCImagePaintArea@@IEAAXAEAVCPoint@@@Z" PURGE="-1" COMMENT="" />
    <EXPORT ORDINAL="12481" NAME="?ScheduleGroup@CAnimationController@@QEAAHIN@Z" PURGE="-1" COMMENT="" />
    <EXPORT ORDINAL="12480" NAME="?Schedule@CAnimationGroup@@QEAAHPEAUIUIAnimationTimer@@N@Z" PURGE="-1" COMMENT="" />
    <EXPORT ORDINAL="12479" NAME="?ScaleWindowExt@CPreviewDC@@UEAA?AVCSize@@HHHH@Z" PURGE="-1" COMMENT="" />
    <EXPORT ORDINAL="12478" NAME="?ScaleWindowExt@CDC@@UEAA?AVCSize@@HHHH@Z" PURGE="-1" COMMENT="" />
    <EXPORT ORDINAL="12477" NAME="?ScaleViewportExt@CPreviewDC@@UEAA?AVCSize@@HHHH@Z" PURGE="-1" COMMENT="" />
    <EXPORT ORDINAL="12476" NAME="?ScaleViewportExt@CMetaFileDC@@UEAA?AVCSize@@HHHH@Z" PURGE="-1" COMMENT="" />
    <EXPORT ORDINAL="12475" NAME="?ScaleViewportExt@CDC@@UEAA?AVCSize@@HHHH@Z" PURGE="-1" COMMENT="" />
    <EXPORT ORDINAL="12474" NAME="?ScaleRectPos@CDockState@@QEAAXAEAVCRect@@@Z" PURGE="-1" COMMENT="" />
    <EXPORT ORDINAL="12473" NAME="?ScalePoint@CDockState@@QEAAXAEAVCPoint@@@Z" PURGE="-1" COMMENT="" />
    <EXPORT ORDINAL="12472" NAME="?SaveViewState@XOleDocumentView@CDocObjectServer@@UEAAJPEAUIStream@@@Z" PURGE="-1" COMMENT="" />
    <EXPORT ORDINAL="12471" NAME="?SaveUserToolbars@CFrameImpl@@IEAAXH@Z" PURGE="-1" COMMENT="" />
    <EXPORT ORDINAL="12470" NAME="?SaveToXMLFile@CMFCRibbonBar@@QEBAHPEBD@Z" PURGE="-1" COMMENT="" />
    <EXPORT ORDINAL="12469" NAME="?SaveToXMLBuffer@CMFCRibbonBar@@QEBAIPEAPEAE@Z" PURGE="-1" COMMENT="" />
    <EXPORT ORDINAL="12468" NAME="?SaveToStorage@COleLinkingDoc@@MEAAXPEAVCObject@@@Z" PURGE="-1" COMMENT="" />
    <EXPORT ORDINAL="12467" NAME="?SaveToStorage@COleDocument@@MEAAXPEAVCObject@@@Z" PURGE="-1" COMMENT="" />
    <EXPORT ORDINAL="12466" NAME="?SaveTearOffMenus@CFrameImpl@@IEAAXH@Z" PURGE="-1" COMMENT="" />
    <EXPORT ORDINAL="12465" NAME="?SaveTabbedPane@CPaneContainer@@IEAAXAEAVCArchive@@PEAVCDockablePane@@@Z" PURGE="-1" COMMENT="" />
    <EXPORT ORDINAL="12464" NAME="?SaveStdProfileSettings@CWinApp@@IEAAXXZ" PURGE="-1" COMMENT="" />
    <EXPORT ORDINAL="12463" NAME="?SaveState@CWinAppEx@@UEAAHPEBDPEAVCFrameImpl@@@Z" PURGE="-1" COMMENT="" />
    <EXPORT ORDINAL="12462" NAME="?SaveState@CWinAppEx@@QEAAHPEAVCOleIPFrameWndEx@@PEBD@Z" PURGE="-1" COMMENT="" />
    <EXPORT ORDINAL="12461" NAME="?SaveState@CWinAppEx@@QEAAHPEAVCMDIFrameWndEx@@PEBD@Z" PURGE="-1" COMMENT="" />
    <EXPORT ORDINAL="12460" NAME="?SaveState@CWinAppEx@@QEAAHPEAVCFrameWndEx@@PEBD@Z" PURGE="-1" COMMENT="" />
    <EXPORT ORDINAL="12459" NAME="?SaveState@CUserToolsManager@@QEAAHPEBD@Z" PURGE="-1" COMMENT="" />
    <EXPORT ORDINAL="12458" NAME="?SaveState@CToolBarCtrl@@QEAAXPEAUHKEY__@@PEBD1@Z" PURGE="-1" COMMENT="" />
    <EXPORT ORDINAL="12457" NAME="?SaveState@CPaneFrameWnd@@UEAAHPEBDI@Z" PURGE="-1" COMMENT="" />
    <EXPORT ORDINAL="12456" NAME="?SaveState@CPane@@UEAAHPEBDHI@Z" PURGE="-1" COMMENT="" />
    <EXPORT ORDINAL="12455" NAME="?SaveState@COleControl@@IEAAJPEAUIStream@@@Z" PURGE="-1" COMMENT="" />
    <EXPORT ORDINAL="12454" NAME="?SaveState@CMultiPaneFrameWnd@@UEAAHPEBDI@Z" PURGE="-1" COMMENT="" />
    <EXPORT ORDINAL="12453" NAME="?SaveState@CMouseManager@@QEAAHPEBD@Z" PURGE="-1" COMMENT="" />
    <EXPORT ORDINAL="12452" NAME="?SaveState@CMFCToolBar@@UEAAHPEBDHI@Z" PURGE="-1" COMMENT="" />
    <EXPORT ORDINAL="12451" NAME="?SaveState@CMFCTasksPane@@UEAAHPEBDHI@Z" PURGE="-1" COMMENT="" />
    <EXPORT ORDINAL="12450" NAME="?SaveState@CMFCRibbonStatusBar@@MEAAHPEBDHI@Z" PURGE="-1" COMMENT="" />
    <EXPORT ORDINAL="12449" NAME="?SaveState@CMFCRibbonBar@@MEAAHPEBDHI@Z" PURGE="-1" COMMENT="" />
    <EXPORT ORDINAL="12448" NAME="?SaveState@CMFCReBarState@@SAXAEAV?$CStringT@DV?$StrTraitMFC_DLL@DV?$ChTraitsCRT@D@ATL@@@@@ATL@@PEAVCFrameWnd@@@Z" PURGE="-1" COMMENT="" />
    <EXPORT ORDINAL="12447" NAME="?SaveState@CMFCPopupMenu@@UEAAXXZ" PURGE="-1" COMMENT="" />
    <EXPORT ORDINAL="12446" NAME="?SaveState@CMFCOutlookBar@@UEAAHPEBDHI@Z" PURGE="-1" COMMENT="" />
    <EXPORT ORDINAL="12445" NAME="?SaveState@CMFCMenuBar@@UEAAHPEBDHI@Z" PURGE="-1" COMMENT="" />
    <EXPORT ORDINAL="12444" NAME="?SaveState@CMDIClientAreaWnd@@QEAAHPEBDI@Z" PURGE="-1" COMMENT="" />
    <EXPORT ORDINAL="12443" NAME="?SaveState@CKeyboardManager@@QEAAHPEBDPEAVCFrameWnd@@@Z" PURGE="-1" COMMENT="" />
    <EXPORT ORDINAL="12441" NAME="?SaveState@CDockingManager@@UEAAHPEBDI@Z" PURGE="-1" COMMENT="" />
    <EXPORT ORDINAL="12440" NAME="?SaveState@CDockablePaneAdapter@@UEAAHPEBDHI@Z" PURGE="-1" COMMENT="" />
    <EXPORT ORDINAL="12439" NAME="?SaveState@CDockablePane@@UEAAHPEBDHI@Z" PURGE="-1" COMMENT="" />
    <EXPORT ORDINAL="12442" NAME="?SaveState@CDockState@@QEAAXPEBD@Z" PURGE="-1" COMMENT="" />
    <EXPORT ORDINAL="12438" NAME="?SaveState@CControlBarInfo@@QEAAHPEBDH@Z" PURGE="-1" COMMENT="" />
    <EXPORT ORDINAL="12437" NAME="?SaveState@CContextMenuManager@@UEAAHPEBD@Z" PURGE="-1" COMMENT="" />
    <EXPORT ORDINAL="12436" NAME="?SaveState@CCommandManager@@QEAAHPEBD@Z" PURGE="-1" COMMENT="" />
    <EXPORT ORDINAL="12435" NAME="?SaveState@CBaseTabbedPane@@MEAAHPEBDHI@Z" PURGE="-1" COMMENT="" />
    <EXPORT ORDINAL="12434" NAME="?SaveState@CBasePane@@UEAAHPEBDHI@Z" PURGE="-1" COMMENT="" />
    <EXPORT ORDINAL="12433" NAME="?SaveSiblingBarIDs@CBaseTabbedPane@@UEAAXAEAVCArchive@@@Z" PURGE="-1" COMMENT="" />
    <EXPORT ORDINAL="12432" NAME="?SaveResetOriginalState@CMFCToolBar@@IEAAXAEAVCSettingsStore@@@Z" PURGE="-1" COMMENT="" />
    <EXPORT ORDINAL="12431" NAME="?SaveRecentFloatingState@CPaneFrameWnd@@MEAAXXZ" PURGE="-1" COMMENT="" />
    <EXPORT ORDINAL="12430" NAME="?SaveRecentFloatingState@CMultiPaneFrameWnd@@MEAAXXZ" PURGE="-1" COMMENT="" />
    <EXPORT ORDINAL="12429" NAME="?SaveRebarStateProc@CMFCReBarState@@CAHPEAUHWND__@@_J@Z" PURGE="-1" COMMENT="" />
    <EXPORT ORDINAL="12428" NAME="?SaveParameters@CMFCToolBar@@SAHPEBD@Z" PURGE="-1" COMMENT="" />
    <EXPORT ORDINAL="12427" NAME="?SaveOriginalState@CMFCToolBar@@MEAAXAEAVCSettingsStore@@@Z" PURGE="-1" COMMENT="" />
    <EXPORT ORDINAL="12426" NAME="?SaveOpenDocumentList@CDataRecoveryHandler@@UEAAHXZ" PURGE="-1" COMMENT="" />
    <EXPORT ORDINAL="12425" NAME="?SaveObject@XOleClientSite@COleControlSite@@UEAAJXZ" PURGE="-1" COMMENT="" />
    <EXPORT ORDINAL="12424" NAME="?SaveObject@XOleClientSite@COleClientItem@@UEAAJXZ" PURGE="-1" COMMENT="" />
    <EXPORT ORDINAL="12423" NAME="?SaveModifiedPrompt@COleServerDoc@@IEAAHXZ" PURGE="-1" COMMENT="" />
    <EXPORT ORDINAL="12422" NAME="?SaveModified@COleServerDoc@@MEAAHXZ" PURGE="-1" COMMENT="" />
    <EXPORT ORDINAL="12421" NAME="?SaveModified@COleDocument@@UEAAHXZ" PURGE="-1" COMMENT="" />
    <EXPORT ORDINAL="12420" NAME="?SaveModified@CDocument@@UEAAHXZ" PURGE="-1" COMMENT="" />
    <EXPORT ORDINAL="12419" NAME="?SaveMenuBar@CMenuHash@@QEAAHPEAUHMENU__@@PEAVCMFCToolBar@@@Z" PURGE="-1" COMMENT="" />
    <EXPORT ORDINAL="12418" NAME="?SaveMenu@CMFCToolBarsMenuPropertyPage@@IEAAXXZ" PURGE="-1" COMMENT="" />
    <EXPORT ORDINAL="12417" NAME="?SaveMDIState@CMDIFrameWndEx@@UEAAHPEBD@Z" PURGE="-1" COMMENT="" />
    <EXPORT ORDINAL="12416" NAME="?SaveListOfRecentPanes@CRecentDockSiteInfo@@QEAAXAEAV?$CList@PEAUHWND__@@PEAU1@@@H@Z" PURGE="-1" COMMENT="" />
    <EXPORT ORDINAL="12415" NAME="?SaveHistory@CMFCTasksPane@@IEAAXH@Z" PURGE="-1" COMMENT="" />
    <EXPORT ORDINAL="12414" NAME="?SaveFocusControl@CFormView@@IEAAHXZ" PURGE="-1" COMMENT="" />
    <EXPORT ORDINAL="12413" NAME="?SaveEmbedding@COleServerDoc@@QEAAXXZ" PURGE="-1" COMMENT="" />
    <EXPORT ORDINAL="12412" NAME="?SaveDrawingState@CRenderTarget@@QEBAXAEAUID2D1DrawingStateBlock@@@Z" PURGE="-1" COMMENT="" />
    <EXPORT ORDINAL="12411" NAME="?SaveDockState@CFrameImpl@@IEAAXPEBD@Z" PURGE="-1" COMMENT="" />
    <EXPORT ORDINAL="12410" NAME="?SaveDC@CPreviewDC@@UEAAHXZ" PURGE="-1" COMMENT="" />
    <EXPORT ORDINAL="12409" NAME="?SaveDC@CDC@@UEAAHXZ" PURGE="-1" COMMENT="" />
    <EXPORT ORDINAL="12408" NAME="?SaveCompleted@XPersistStorage@COleServerDoc@@UEAAJPEAUIStorage@@@Z" PURGE="-1" COMMENT="" />
    <EXPORT ORDINAL="12407" NAME="?SaveCompleted@XPersistStorage@COleControl@@UEAAJPEAUIStorage@@@Z" PURGE="-1" COMMENT="" />
    <EXPORT ORDINAL="12406" NAME="?SaveCompleted@XPersistFile@COleLinkingDoc@@UEAAJPEB_W@Z" PURGE="-1" COMMENT="" />
    <EXPORT ORDINAL="12405" NAME="?SaveBarState@CMFCToolBarMenuButton@@UEAAXXZ" PURGE="-1" COMMENT="" />
    <EXPORT ORDINAL="12404" NAME="?SaveBarState@CFrameWnd@@QEBAXPEBD@Z" PURGE="-1" COMMENT="" />
    <EXPORT ORDINAL="12403" NAME="?SaveAllModified@CWinApp@@UEAAHXZ" PURGE="-1" COMMENT="" />
    <EXPORT ORDINAL="12402" NAME="?SaveAllModified@CDocTemplate@@UEAAHXZ" PURGE="-1" COMMENT="" />
    <EXPORT ORDINAL="12401" NAME="?SaveAllModified@CDocManager@@UEAAHXZ" PURGE="-1" COMMENT="" />
    <EXPORT ORDINAL="12400" NAME="?SaveAcceleratorState@CKeyboardManager@@IEAAHPEBDIPEAUHACCEL__@@@Z" PURGE="-1" COMMENT="" />
    <EXPORT ORDINAL="12399" NAME="?Save@XPersistStreamInit@COleControl@@UEAAJPEAUIStream@@H@Z" PURGE="-1" COMMENT="" />
    <EXPORT ORDINAL="12398" NAME="?Save@XPersistStorage@COleServerDoc@@UEAAJPEAUIStorage@@H@Z" PURGE="-1" COMMENT="" />
    <EXPORT ORDINAL="12397" NAME="?Save@XPersistStorage@COleControl@@UEAAJPEAUIStorage@@H@Z" PURGE="-1" COMMENT="" />
    <EXPORT ORDINAL="12396" NAME="?Save@XPersistPropertyBag@COleControl@@UEAAJPEAUIPropertyBag@@HH@Z" PURGE="-1" COMMENT="" />
    <EXPORT ORDINAL="12395" NAME="?Save@XPersistMemory@COleControl@@UEAAJPEAXHK@Z" PURGE="-1" COMMENT="" />
    <EXPORT ORDINAL="12394" NAME="?Save@XPersistFile@COleLinkingDoc@@UEAAJPEB_WH@Z" PURGE="-1" COMMENT="" />
    <EXPORT ORDINAL="12393" NAME="?Save@CMFCToolBarImages@@QEAAHPEBD@Z" PURGE="-1" COMMENT="" />
    <EXPORT ORDINAL="12392" NAME="?Save@CBlobProperty@@UEAAJPEAUIStream@@H@Z" PURGE="-1" COMMENT="" />
    <EXPORT ORDINAL="12391" NAME="?SameAsSelected@CRichEditView@@IEAAHPEBDHH@Z" PURGE="-1" COMMENT="" />
    <EXPORT ORDINAL="12390" NAME="?SameAsSelected@CEditView@@IEAAHPEBDH@Z" PURGE="-1" COMMENT="" />
    <EXPORT ORDINAL="12389" NAME="?SafeSetProperty@COleControlSite@@UEAAHJGZZ" PURGE="-1" COMMENT="" />
    <EXPORT ORDINAL="12388" NAME="?RunModalLoop@CWnd@@QEAAHK@Z" PURGE="-1" COMMENT="" />
    <EXPORT ORDINAL="12387" NAME="?RunEmbedded@CWinApp@@QEAAHXZ" PURGE="-1" COMMENT="" />
    <EXPORT ORDINAL="12386" NAME="?RunAutomated@CWinApp@@QEAAHXZ" PURGE="-1" COMMENT="" />
    <EXPORT ORDINAL="12385" NAME="?Run@CWinThread@@UEAAHXZ" PURGE="-1" COMMENT="" />
    <EXPORT ORDINAL="12384" NAME="?Run@CWinApp@@UEAAHXZ" PURGE="-1" COMMENT="" />
    <EXPORT ORDINAL="12383" NAME="?Run@COleClientItem@@QEAAXXZ" PURGE="-1" COMMENT="" />
    <EXPORT ORDINAL="12382" NAME="?RowFromPoint@CDockSite@@IEBAPEAVCDockingPanesRow@@VCPoint@@AEA_N@Z" PURGE="-1" COMMENT="" />
    <EXPORT ORDINAL="12381" NAME="?RowFromPane@CDockSite@@IEBAPEAVCDockingPanesRow@@PEAVCBasePane@@@Z" PURGE="-1" COMMENT="" />
    <EXPORT ORDINAL="12380" NAME="?Rollback@CDatabase@@QEAAHXZ" PURGE="-1" COMMENT="" />
    <EXPORT ORDINAL="12378" NAME="?Right@?$CStringT@_WV?$StrTraitMFC_DLL@_WV?$ChTraitsCRT@_W@ATL@@@@@ATL@@QEBA?AV12@H@Z" PURGE="-1" COMMENT="" />
    <EXPORT ORDINAL="12379" NAME="?Right@?$CStringT@DV?$StrTraitMFC_DLL@DV?$ChTraitsCRT@D@ATL@@@@@ATL@@QEBA?AV12@H@Z" PURGE="-1" COMMENT="" />
    <EXPORT ORDINAL="12377" NAME="?RibbonCategoryColorToRGB@CMFCVisualManager@@UEAAKW4AFX_RibbonCategoryColor@@@Z" PURGE="-1" COMMENT="" />
    <EXPORT ORDINAL="12348" NAME="?RevokeAll@COleObjectFactory@@SAXXZ" PURGE="-1" COMMENT="" />
    <EXPORT ORDINAL="12347" NAME="?Revoke@COleObjectFactory@@QEAAXXZ" PURGE="-1" COMMENT="" />
    <EXPORT ORDINAL="12346" NAME="?Revoke@COleMessageFilter@@QEAAXXZ" PURGE="-1" COMMENT="" />
    <EXPORT ORDINAL="12345" NAME="?Revoke@COleLinkingDoc@@QEAAXXZ" PURGE="-1" COMMENT="" />
    <EXPORT ORDINAL="12344" NAME="?Revoke@COleDropTarget@@UEAAXXZ" PURGE="-1" COMMENT="" />
    <EXPORT ORDINAL="12343" NAME="?Revert@CArchiveStream@@UEAAJXZ" PURGE="-1" COMMENT="" />
    <EXPORT ORDINAL="12341" NAME="?ReverseFind@?$CStringT@_WV?$StrTraitMFC_DLL@_WV?$ChTraitsCRT@_W@ATL@@@@@ATL@@QEBAH_W@Z" PURGE="-1" COMMENT="" />
    <EXPORT ORDINAL="12342" NAME="?ReverseFind@?$CStringT@DV?$StrTraitMFC_DLL@DV?$ChTraitsCRT@D@ATL@@@@@ATL@@QEBAHD@Z" PURGE="-1" COMMENT="" />
    <EXPORT ORDINAL="12340" NAME="?RetryRejectedCall@XMessageFilter@COleMessageFilter@@UEAAKPEAUHTASK__@@KK@Z" PURGE="-1" COMMENT="" />
    <EXPORT ORDINAL="12339" NAME="?Resume@AFX_GLOBAL_DATA@@QEAAHXZ" PURGE="-1" COMMENT="" />
    <EXPORT ORDINAL="12337" NAME="?RestoreWaitCursor@CCmdTarget@@QEAAXXZ" PURGE="-1" COMMENT="" />
    <EXPORT ORDINAL="12336" NAME="?RestoreState@CToolBarCtrl@@QEAAXPEAUHKEY__@@PEBD1@Z" PURGE="-1" COMMENT="" />
    <EXPORT ORDINAL="12335" NAME="?RestoreState@CFullScreenImpl@@QEAAXPEAVCFrameWnd@@@Z" PURGE="-1" COMMENT="" />
    <EXPORT ORDINAL="12334" NAME="?RestorePosition@CFrameImpl@@IEAAXAEAUtagCREATESTRUCTA@@@Z" PURGE="-1" COMMENT="" />
    <EXPORT ORDINAL="12333" NAME="?RestoreOriginalState@CMFCToolBar@@UEAAHXZ" PURGE="-1" COMMENT="" />
    <EXPORT ORDINAL="12332" NAME="?RestoreOriginalState@CMFCOutlookBarPane@@UEAAHXZ" PURGE="-1" COMMENT="" />
    <EXPORT ORDINAL="12331" NAME="?RestoreOriginalState@CMFCMenuBar@@UEAAHXZ" PURGE="-1" COMMENT="" />
    <EXPORT ORDINAL="12330" NAME="?RestoreMaximizeMode@CMFCMenuBar@@IEAAXH@Z" PURGE="-1" COMMENT="" />
    <EXPORT ORDINAL="12329" NAME="?RestoreFocus@CMFCToolBar@@UEAAXXZ" PURGE="-1" COMMENT="" />
    <EXPORT ORDINAL="12328" NAME="?RestoreDrawingState@CRenderTarget@@QEAAXAEAUID2D1DrawingStateBlock@@@Z" PURGE="-1" COMMENT="" />
    <EXPORT ORDINAL="12327" NAME="?RestoreDelayedSubMenu@CMFCRibbonPanelMenuBar@@UEAAXXZ" PURGE="-1" COMMENT="" />
    <EXPORT ORDINAL="12326" NAME="?RestoreDelayedSubMenu@CMFCPopupMenuBar@@UEAAXXZ" PURGE="-1" COMMENT="" />
    <EXPORT ORDINAL="12325" NAME="?RestoreDC@CPreviewDC@@UEAAHH@Z" PURGE="-1" COMMENT="" />
    <EXPORT ORDINAL="12324" NAME="?RestoreDC@CDC@@UEAAHH@Z" PURGE="-1" COMMENT="" />
    <EXPORT ORDINAL="12323" NAME="?RestoreAutosavedDocuments@CDataRecoveryHandler@@UEAAHXZ" PURGE="-1" COMMENT="" />
    <EXPORT ORDINAL="12322" NAME="?RestartInstance@CWinApp@@UEAAHXZ" PURGE="-1" COMMENT="" />
    <EXPORT ORDINAL="12321" NAME="?ResortMiniFramesForZOrder@CDockingManager@@QEAAXXZ" PURGE="-1" COMMENT="" />
    <EXPORT ORDINAL="12320" NAME="?ResolveIntersectionRect@CDockingPanesRow@@IEAAXPEAVCPane@@_N@Z" PURGE="-1" COMMENT="" />
    <EXPORT ORDINAL="12319" NAME="?ResolveIntersection@CDockingPanesRow@@AEAAXPEAVCPane@@_NAEAPEAX@Z" PURGE="-1" COMMENT="" />
    <EXPORT ORDINAL="12318" NAME="?ResizeRow@CDockSite@@QEAAHPEAVCDockingPanesRow@@HH@Z" PURGE="-1" COMMENT="" />
    <EXPORT ORDINAL="12317" NAME="?ResizePartOfPaneContainer@CPaneContainer@@UEAAXHHAEAPEAX@Z" PURGE="-1" COMMENT="" />
    <EXPORT ORDINAL="12316" NAME="?ResizeParentToFit@CScrollView@@QEAAXH@Z" PURGE="-1" COMMENT="" />
    <EXPORT ORDINAL="12315" NAME="?ResizePaneContainers@CPaneContainerManager@@UEAAXVCRect@@AEAPEAX@Z" PURGE="-1" COMMENT="" />
    <EXPORT ORDINAL="12314" NAME="?ResizePaneContainers@CPaneContainerManager@@UEAAXIHHAEAPEAX@Z" PURGE="-1" COMMENT="" />
    <EXPORT ORDINAL="12313" NAME="?ResizePane@CPaneContainer@@UEAAXHPEAVCPane@@PEAV1@HHAEAPEAX@Z" PURGE="-1" COMMENT="" />
    <EXPORT ORDINAL="12312" NAME="?ResizeOpenControl@COleControl@@IEAAXHH@Z" PURGE="-1" COMMENT="" />
    <EXPORT ORDINAL="12311" NAME="?ResizeOneDim@COleSafeArray@@QEAAXK@Z" PURGE="-1" COMMENT="" />
    <EXPORT ORDINAL="12310" NAME="?ResizeFrameWindow@COleControl@@MEAAXHH@Z" PURGE="-1" COMMENT="" />
    <EXPORT ORDINAL="12309" NAME="?ResizeDockSiteByOffset@CDockSite@@IEAAXHH@Z" PURGE="-1" COMMENT="" />
    <EXPORT ORDINAL="12308" NAME="?ResizeDockSite@CDockSite@@QEAAXHH@Z" PURGE="-1" COMMENT="" />
    <EXPORT ORDINAL="12307" NAME="?ResizeControl@CMFCColorPropertySheet@@IEAAXXZ" PURGE="-1" COMMENT="" />
    <EXPORT ORDINAL="12306" NAME="?ResizeBorder@XOleInPlaceActiveObject@COleServerDoc@@UEAAJPEBUtagRECT@@PEAUIOleInPlaceUIWindow@@H@Z" PURGE="-1" COMMENT="" />
    <EXPORT ORDINAL="12305" NAME="?ResizeBorder@XOleInPlaceActiveObject@COleControl@@UEAAJPEBUtagRECT@@PEAUIOleInPlaceUIWindow@@H@Z" PURGE="-1" COMMENT="" />
    <EXPORT ORDINAL="12304" NAME="?ResizeBorder@XDocHostUIHandler@CHtmlControlSite@@UEAAJPEBUtagRECT@@PEAUIOleInPlaceUIWindow@@H@Z" PURGE="-1" COMMENT="" />
    <EXPORT ORDINAL="12303" NAME="?ResizeBorder@CDHtmlDialog@@UEAAJPEBUtagRECT@@PEAUIOleInPlaceUIWindow@@H@Z" PURGE="-1" COMMENT="" />
    <EXPORT ORDINAL="12302" NAME="?ResizeBorder@CBrowserControlSite@@MEAAJPEBUtagRECT@@PEAUIOleInPlaceUIWindow@@H@Z" PURGE="-1" COMMENT="" />
    <EXPORT ORDINAL="12301" NAME="?Resize@CPaneContainer@@UEAAXVCRect@@AEAPEAXH@Z" PURGE="-1" COMMENT="" />
    <EXPORT ORDINAL="12300" NAME="?Resize@CHwndRenderTarget@@QEAAHAEBVCD2DSizeU@@@Z" PURGE="-1" COMMENT="" />
    <EXPORT ORDINAL="12299" NAME="?Resize@CDockingPanesRow@@UEAAHH@Z" PURGE="-1" COMMENT="" />
    <EXPORT ORDINAL="12298" NAME="?ResetVersion@COleControl@@QEAAXK@Z" PURGE="-1" COMMENT="" />
    <EXPORT ORDINAL="12297" NAME="?ResetTimer@CControlBar@@QEAAX_KI@Z" PURGE="-1" COMMENT="" />
    <EXPORT ORDINAL="12296" NAME="?ResetTabs@CTabbedPane@@SAXXZ" PURGE="-1" COMMENT="" />
    <EXPORT ORDINAL="12295" NAME="?ResetStockProps@COleControl@@QEAAXXZ" PURGE="-1" COMMENT="" />
    <EXPORT ORDINAL="12294" NAME="?ResetState@CMFCDragFrameImpl@@QEAAXXZ" PURGE="-1" COMMENT="" />
    <EXPORT ORDINAL="12293" NAME="?ResetState@CContextMenuManager@@UEAAHXZ" PURGE="-1" COMMENT="" />
    <EXPORT ORDINAL="12292" NAME="?ResetPanelsLayout@CMFCRibbonCategory@@IEAAXXZ" PURGE="-1" COMMENT="" />
    <EXPORT ORDINAL="12291" NAME="?ResetOriginalValues@CMFCPropertyGridCtrl@@QEAAXH@Z" PURGE="-1" COMMENT="" />
    <EXPORT ORDINAL="12290" NAME="?ResetOriginalValue@CMFCPropertyGridProperty@@UEAAXXZ" PURGE="-1" COMMENT="" />
    <EXPORT ORDINAL="12289" NAME="?ResetOriginalValue@CMFCPropertyGridFontProperty@@MEAAXXZ" PURGE="-1" COMMENT="" />
    <EXPORT ORDINAL="12288" NAME="?ResetOriginalValue@CMFCPropertyGridColorProperty@@MEAAXXZ" PURGE="-1" COMMENT="" />
    <EXPORT ORDINAL="12287" NAME="?ResetKey@CMFCAcceleratorKeyAssignCtrl@@QEAAXXZ" PURGE="-1" COMMENT="" />
    <EXPORT ORDINAL="12284" NAME="?ResetImages@CMFCToolBar@@UEAAXXZ" PURGE="-1" COMMENT="" />
    <EXPORT ORDINAL="12283" NAME="?ResetImages@CMFCMenuBar@@MEAAXXZ" PURGE="-1" COMMENT="" />
    <EXPORT ORDINAL="12286" NAME="?ResetImageToDefault@CMFCToolBarMenuButton@@UEAAXXZ" PURGE="-1" COMMENT="" />
    <EXPORT ORDINAL="12285" NAME="?ResetImageToDefault@CMFCToolBarButton@@UEAAXXZ" PURGE="-1" COMMENT="" />
    <EXPORT ORDINAL="12282" NAME="?ResetImageList@CMFCBaseTabCtrl@@QEAAXXZ" PURGE="-1" COMMENT="" />
    <EXPORT ORDINAL="12281" NAME="?ResetData@CDataPathProperty@@UEAAXXZ" PURGE="-1" COMMENT="" />
    <EXPORT ORDINAL="12280" NAME="?ResetData@CCachedDataPathProperty@@UEAAXXZ" PURGE="-1" COMMENT="" />
    <EXPORT ORDINAL="12279" NAME="?ResetCursor@CRecordset@@QEAAXXZ" PURGE="-1" COMMENT="" />
    <EXPORT ORDINAL="12278" NAME="?ResetContent@CMFCDropDownListBox@@QEAAXXZ" PURGE="-1" COMMENT="" />
    <EXPORT ORDINAL="12277" NAME="?ResetCommands@CMFCRibbonQuickAccessToolBar@@IEAAXXZ" PURGE="-1" COMMENT="" />
    <EXPORT ORDINAL="12276" NAME="?ResetAllImages@CMFCToolBar@@SAXXZ" PURGE="-1" COMMENT="" />
    <EXPORT ORDINAL="12275" NAME="?ResetAll@CMFCToolBar@@SAXXZ" PURGE="-1" COMMENT="" />
    <EXPORT ORDINAL="12274" NAME="?ResetAll@CKeyboardManager@@QEAAXXZ" PURGE="-1" COMMENT="" />
    <EXPORT ORDINAL="12273" NAME="?Reset@XEnumVOID@CEnumArray@@UEAAJXZ" PURGE="-1" COMMENT="" />
    <EXPORT ORDINAL="12271" NAME="?Reset@CMenuTearOffManager@@QEAAXPEAUHMENU__@@@Z" PURGE="-1" COMMENT="" />
    <EXPORT ORDINAL="12272" NAME="?Reset@CMFCCmdUsageCount@@QEAAXXZ" PURGE="-1" COMMENT="" />
    <EXPORT ORDINAL="12270" NAME="?RequestUIActivate@XOleIPSite@COleControlSite@@UEAAJXZ" PURGE="-1" COMMENT="" />
    <EXPORT ORDINAL="12269" NAME="?RequestPositionChange@COleServerDoc@@QEAAXPEBUtagRECT@@@Z" PURGE="-1" COMMENT="" />
    <EXPORT ORDINAL="12268" NAME="?RequestNewObjectLayout@XOleClientSite@COleControlSite@@UEAAJXZ" PURGE="-1" COMMENT="" />
    <EXPORT ORDINAL="12267" NAME="?RequestNewObjectLayout@XOleClientSite@COleClientItem@@UEAAJXZ" PURGE="-1" COMMENT="" />
    <EXPORT ORDINAL="12266" NAME="?RequestLicKey@XClassFactory@COleObjectFactory@@UEAAJKPEAPEA_W@Z" PURGE="-1" COMMENT="" />
    <EXPORT ORDINAL="12264" NAME="?RequestBorderSpace@XOleInPlaceFrame@COleFrameHook@@UEAAJPEBUtagRECT@@@Z" PURGE="-1" COMMENT="" />
    <EXPORT ORDINAL="12265" NAME="?RequestBorderSpace@XOleIPFrame@COleControlContainer@@UEAAJPEBUtagRECT@@@Z" PURGE="-1" COMMENT="" />
    <EXPORT ORDINAL="12263" NAME="?Requery@CRecordset@@UEAAHXZ" PURGE="-1" COMMENT="" />
    <EXPORT ORDINAL="12258" NAME="?RepositionRibbonEditCtrl@CMFCRibbonEdit@@IEAAXXZ" PURGE="-1" COMMENT="" />
    <EXPORT ORDINAL="12257" NAME="?RepositionPanes@CPaneDivider@@UEAAXAEAVCRect@@AEAPEAX@Z" PURGE="-1" COMMENT="" />
    <EXPORT ORDINAL="12255" NAME="?RepositionPanes@CDockingPanesRow@@UEAAXAEAVCRect@@IHH@Z" PURGE="-1" COMMENT="" />
    <EXPORT ORDINAL="12256" NAME="?RepositionPanes@CDockSite@@UEAAXAEAVCRect@@@Z" PURGE="-1" COMMENT="" />
    <EXPORT ORDINAL="12254" NAME="?RepositionPanes@CAutoHideDockSite@@UEAAXAEAVCRect@@@Z" PURGE="-1" COMMENT="" />
    <EXPORT ORDINAL="12253" NAME="?RepositionMenu@CMFCRibbonPanel@@MEAAXPEAVCDC@@AEBVCRect@@@Z" PURGE="-1" COMMENT="" />
    <EXPORT ORDINAL="12252" NAME="?RepositionFrame@COleIPFrameWnd@@UEAAXPEBUtagRECT@@0@Z" PURGE="-1" COMMENT="" />
    <EXPORT ORDINAL="12251" NAME="?RepositionBars@CWnd@@QEAAXIIIIPEAUtagRECT@@PEBU2@H@Z" PURGE="-1" COMMENT="" />
    <EXPORT ORDINAL="12250" NAME="?Reposition@CMFCRibbonPanel@@MEAAXPEAVCDC@@AEBVCRect@@@Z" PURGE="-1" COMMENT="" />
    <EXPORT ORDINAL="12249" NAME="?Reposition@CMFCRibbonMainPanel@@MEAAXPEAVCDC@@AEBVCRect@@@Z" PURGE="-1" COMMENT="" />
    <EXPORT ORDINAL="12248" NAME="?Reposition@CMFCPropertyGridProperty@@IEAAXAEAH@Z" PURGE="-1" COMMENT="" />
    <EXPORT ORDINAL="12262" NAME="?ReposTasks@CMFCTasksPane@@MEAAHH@Z" PURGE="-1" COMMENT="" />
    <EXPORT ORDINAL="12261" NAME="?ReposProperties@CMFCPropertyGridCtrl@@IEAAXXZ" PURGE="-1" COMMENT="" />
    <EXPORT ORDINAL="12260" NAME="?ReposPanels@CMFCRibbonCategory@@UEAAXPEAVCDC@@@Z" PURGE="-1" COMMENT="" />
    <EXPORT ORDINAL="12259" NAME="?ReposPalette@CMFCRibbonPanel@@MEAAXPEAVCDC@@AEBVCRect@@@Z" PURGE="-1" COMMENT="" />
    <EXPORT ORDINAL="12247" NAME="?ReposButtons@CMFCTabCtrl@@IEAAXVCPoint@@VCSize@@HH@Z" PURGE="-1" COMMENT="" />
    <EXPORT ORDINAL="12246" NAME="?Repos@CMFCShadowWnd@@AEAAXXZ" PURGE="-1" COMMENT="" />
    <EXPORT ORDINAL="12245" NAME="?ReportSaveLoadException@COleLinkingDoc@@UEAAXPEBDPEAVCException@@HI@Z" PURGE="-1" COMMENT="" />
    <EXPORT ORDINAL="12244" NAME="?ReportSaveLoadException@CDocument@@UEAAXPEBDPEAVCException@@HI@Z" PURGE="-1" COMMENT="" />
    <EXPORT ORDINAL="12243" NAME="?ReportError@COleClientItem@@UEBAHJ@Z" PURGE="-1" COMMENT="" />
    <EXPORT ORDINAL="12242" NAME="?ReportError@CException@@UEAAHII@Z" PURGE="-1" COMMENT="" />
    <EXPORT ORDINAL="12241" NAME="?ReplacePane@CPaneFrameWnd@@UEAAXPEAVCBasePane@@0@Z" PURGE="-1" COMMENT="" />
    <EXPORT ORDINAL="12240" NAME="?ReplacePane@CPaneDivider@@UEAAHPEAVCDockablePane@@0@Z" PURGE="-1" COMMENT="" />
    <EXPORT ORDINAL="12239" NAME="?ReplacePane@CPaneContainerManager@@UEAAHPEAVCDockablePane@@0@Z" PURGE="-1" COMMENT="" />
    <EXPORT ORDINAL="12238" NAME="?ReplacePane@CMultiPaneFrameWnd@@UEAAXPEAVCBasePane@@0@Z" PURGE="-1" COMMENT="" />
    <EXPORT ORDINAL="12237" NAME="?ReplacePane@CMFCAutoHideButton@@QEAAXPEAVCDockablePane@@@Z" PURGE="-1" COMMENT="" />
    <EXPORT ORDINAL="12235" NAME="?ReplacePane@CDockingPanesRow@@UEAAHPEAVCPane@@0@Z" PURGE="-1" COMMENT="" />
    <EXPORT ORDINAL="12234" NAME="?ReplacePane@CDockingManager@@QEAAHPEAVCDockablePane@@0@Z" PURGE="-1" COMMENT="" />
    <EXPORT ORDINAL="12233" NAME="?ReplacePane@CDockablePane@@QEAAHPEAV1@W4AFX_DOCK_METHOD@@H@Z" PURGE="-1" COMMENT="" />
    <EXPORT ORDINAL="12236" NAME="?ReplacePane@CDockSite@@QEAAHPEAVCPane@@0@Z" PURGE="-1" COMMENT="" />
    <EXPORT ORDINAL="12232" NAME="?ReplaceCommands@CMFCRibbonQuickAccessToolBar@@IEAAXAEBV?$CList@II@@@Z" PURGE="-1" COMMENT="" />
    <EXPORT ORDINAL="12231" NAME="?ReplaceByID@CMFCRibbonPanel@@QEAAHIPEAVCMFCRibbonBaseElement@@@Z" PURGE="-1" COMMENT="" />
    <EXPORT ORDINAL="12230" NAME="?ReplaceByID@CMFCRibbonButtonsGroup@@MEAAHIPEAVCMFCRibbonBaseElement@@@Z" PURGE="-1" COMMENT="" />
    <EXPORT ORDINAL="12229" NAME="?ReplaceByID@CMFCRibbonBaseElement@@MEAAHIPEAV1@@Z" PURGE="-1" COMMENT="" />
    <EXPORT ORDINAL="12228" NAME="?ReplaceButton@CPaneFrameWnd@@IEAAXII@Z" PURGE="-1" COMMENT="" />
    <EXPORT ORDINAL="12227" NAME="?ReplaceButton@CMFCToolBarsCustomizeDialog@@QEAAXIAEBVCMFCToolBarButton@@@Z" PURGE="-1" COMMENT="" />
    <EXPORT ORDINAL="12226" NAME="?ReplaceButton@CMFCToolBar@@QEAAHIAEBVCMFCToolBarButton@@H@Z" PURGE="-1" COMMENT="" />
    <EXPORT ORDINAL="12225" NAME="?ReplaceBrackets@CDatabase@@QEAAXPEAD@Z" PURGE="-1" COMMENT="" />
    <EXPORT ORDINAL="12224" NAME="?Replace@CMFCRibbonPanel@@QEAAHHPEAVCMFCRibbonBaseElement@@@Z" PURGE="-1" COMMENT="" />
    <EXPORT ORDINAL="12220" NAME="?Replace@?$CStringT@_WV?$StrTraitMFC_DLL@_WV?$ChTraitsCRT@_W@ATL@@@@@ATL@@QEAAH_W0@Z" PURGE="-1" COMMENT="" />
    <EXPORT ORDINAL="12221" NAME="?Replace@?$CStringT@_WV?$StrTraitMFC_DLL@_WV?$ChTraitsCRT@_W@ATL@@@@@ATL@@QEAAHPEB_W0@Z" PURGE="-1" COMMENT="" />
    <EXPORT ORDINAL="12223" NAME="?Replace@?$CStringT@DV?$StrTraitMFC_DLL@DV?$ChTraitsCRT@D@ATL@@@@@ATL@@QEAAHPEBD0@Z" PURGE="-1" COMMENT="" />
    <EXPORT ORDINAL="12222" NAME="?Replace@?$CStringT@DV?$StrTraitMFC_DLL@DV?$ChTraitsCRT@D@ATL@@@@@ATL@@QEAAHDD@Z" PURGE="-1" COMMENT="" />
    <EXPORT ORDINAL="12219" NAME="?ReparentControlWindow@COleControl@@UEAAXPEAUHWND__@@0@Z" PURGE="-1" COMMENT="" />
    <EXPORT ORDINAL="12218" NAME="?ReopenPreviousDocuments@CDataRecoveryHandler@@UEAAHXZ" PURGE="-1" COMMENT="" />
    <EXPORT ORDINAL="12217" NAME="?Render@CPictureHolder@@QEAAXPEAVCDC@@AEBVCRect@@1@Z" PURGE="-1" COMMENT="" />
    <EXPORT ORDINAL="12216" NAME="?RenameTab@CMFCBaseTabCtrl@@UEAAHXZ" PURGE="-1" COMMENT="" />
    <EXPORT ORDINAL="12215" NAME="?RenameCategory@CMFCToolBarsCustomizeDialog@@QEAAHPEBD0@Z" PURGE="-1" COMMENT="" />
    <EXPORT ORDINAL="12214" NAME="?Rename@CFtpConnection@@QEAAHPEBD0@Z" PURGE="-1" COMMENT="" />
    <EXPORT ORDINAL="12213" NAME="?Rename@CFile@@SAXPEBD0PEAVCAtlTransactionManager@ATL@@@Z" PURGE="-1" COMMENT="" />
    <EXPORT ORDINAL="12212" NAME="?RemoveView@CTabView@@QEAAHH@Z" PURGE="-1" COMMENT="" />
    <EXPORT ORDINAL="12211" NAME="?RemoveView@CDocument@@QEAAXPEAVCView@@@Z" PURGE="-1" COMMENT="" />
    <EXPORT ORDINAL="12210" NAME="?RemoveTransitions@CAnimationGroup@@QEAAXXZ" PURGE="-1" COMMENT="" />
    <EXPORT ORDINAL="12209" NAME="?RemoveTransitions@CAnimationController@@QEAAXI@Z" PURGE="-1" COMMENT="" />
    <EXPORT ORDINAL="12208" NAME="?RemoveTool@CUserToolsManager@@QEAAHPEAVCUserTool@@@Z" PURGE="-1" COMMENT="" />
    <EXPORT ORDINAL="12207" NAME="?RemoveText@CMFCCaptionBar@@QEAAXXZ" PURGE="-1" COMMENT="" />
    <EXPORT ORDINAL="12206" NAME="?RemoveTearOffToolbar@CFrameImpl@@IEAAXPEAVCBasePane@@@Z" PURGE="-1" COMMENT="" />
    <EXPORT ORDINAL="12205" NAME="?RemoveTask@CMFCTasksPane@@QEAAHHHH@Z" PURGE="-1" COMMENT="" />
    <EXPORT ORDINAL="12204" NAME="?RemoveTail@CStringList@@QEAA?AV?$CStringT@DV?$StrTraitMFC_DLL@DV?$ChTraitsCRT@D@ATL@@@@@ATL@@XZ" PURGE="-1" COMMENT="" />
    <EXPORT ORDINAL="12203" NAME="?RemoveTail@CPtrList@@QEAAPEAXXZ" PURGE="-1" COMMENT="" />
    <EXPORT ORDINAL="12202" NAME="?RemoveTail@CObList@@QEAAPEAVCObject@@XZ" PURGE="-1" COMMENT="" />
    <EXPORT ORDINAL="12201" NAME="?RemoveTabPreDocking@CMFCDragFrameImpl@@QEAAXPEAVCDockablePane@@@Z" PURGE="-1" COMMENT="" />
    <EXPORT ORDINAL="12200" NAME="?RemoveTabGroup@CMDIClientAreaWnd@@QEAAXPEAVCMFCTabCtrl@@H@Z" PURGE="-1" COMMENT="" />
    <EXPORT ORDINAL="12199" NAME="?RemoveTab@CMFCBaseTabCtrl@@UEAAHHH@Z" PURGE="-1" COMMENT="" />
    <EXPORT ORDINAL="12198" NAME="?RemoveSubItem@CMFCRibbonButton@@QEAAHH@Z" PURGE="-1" COMMENT="" />
    <EXPORT ORDINAL="12197" NAME="?RemoveSubItem@CMFCPropertyGridProperty@@QEAAHAEAPEAV1@H@Z" PURGE="-1" COMMENT="" />
    <EXPORT ORDINAL="12196" NAME="?RemoveStateFromRegistry@CMFCToolBar@@UEAAHPEBDHI@Z" PURGE="-1" COMMENT="" />
    <EXPORT ORDINAL="12195" NAME="?RemoveSource@CDataBoundProperty@@QEAAXXZ" PURGE="-1" COMMENT="" />
    <EXPORT ORDINAL="12194" NAME="?RemoveSortColumn@CMFCListCtrl@@QEAAXH@Z" PURGE="-1" COMMENT="" />
    <EXPORT ORDINAL="12193" NAME="?RemoveSortColumn@CMFCHeaderCtrl@@QEAAXH@Z" PURGE="-1" COMMENT="" />
    <EXPORT ORDINAL="12192" NAME="?RemoveRow@CDockSite@@QEAAXPEAVCDockingPanesRow@@@Z" PURGE="-1" COMMENT="" />
    <EXPORT ORDINAL="12191" NAME="?RemoveResetStateButton@CMFCToolBar@@IEAAHI@Z" PURGE="-1" COMMENT="" />
    <EXPORT ORDINAL="12190" NAME="?RemoveRadioCheckFromGroup@CWnd@@QEBAXPEBUCOleControlSiteOrWnd@@@Z" PURGE="-1" COMMENT="" />
    <EXPORT ORDINAL="12189" NAME="?RemovePlaceHolder@CDockBar@@QEAAXPEAVCControlBar@@@Z" PURGE="-1" COMMENT="" />
    <EXPORT ORDINAL="12188" NAME="?RemovePanel@CMFCRibbonCategory@@QEAAHHH@Z" PURGE="-1" COMMENT="" />
    <EXPORT ORDINAL="12187" NAME="?RemovePaneFromPaneContainer@CPaneContainerManager@@UEAAHPEAVCDockablePane@@@Z" PURGE="-1" COMMENT="" />
    <EXPORT ORDINAL="12186" NAME="?RemovePaneFromDockManager@COleIPFrameWndEx@@QEAAXPEAVCBasePane@@HHH0@Z" PURGE="-1" COMMENT="" />
    <EXPORT ORDINAL="12185" NAME="?RemovePaneFromDockManager@COleDocIPFrameWndEx@@QEAAXPEAVCBasePane@@HHH0@Z" PURGE="-1" COMMENT="" />
    <EXPORT ORDINAL="12184" NAME="?RemovePaneFromDockManager@COleCntrFrameWndEx@@QEAAXPEAVCBasePane@@HHH0@Z" PURGE="-1" COMMENT="" />
    <EXPORT ORDINAL="12183" NAME="?RemovePaneFromDockManager@CMDIFrameWndEx@@QEAAXPEAVCBasePane@@HHH0@Z" PURGE="-1" COMMENT="" />
    <EXPORT ORDINAL="12182" NAME="?RemovePaneFromDockManager@CMDIChildWndEx@@QEAAXPEAVCBasePane@@HHH0@Z" PURGE="-1" COMMENT="" />
    <EXPORT ORDINAL="12181" NAME="?RemovePaneFromDockManager@CFrameWndEx@@QEAAXPEAVCBasePane@@HHH0@Z" PURGE="-1" COMMENT="" />
    <EXPORT ORDINAL="12180" NAME="?RemovePaneFromDockManager@CDockingManager@@QEAAXPEAVCBasePane@@HHH0@Z" PURGE="-1" COMMENT="" />
    <EXPORT ORDINAL="12179" NAME="?RemovePaneFromDockManager@CBasePane@@QEAAXPEAV1@HHH0@Z" PURGE="-1" COMMENT="" />
    <EXPORT ORDINAL="12178" NAME="?RemovePaneDivider@CPaneContainerManager@@UEAAXPEAVCPaneDivider@@@Z" PURGE="-1" COMMENT="" />
    <EXPORT ORDINAL="12177" NAME="?RemovePane@CPaneFrameWnd@@UEAAXPEAVCBasePane@@HH@Z" PURGE="-1" COMMENT="" />
    <EXPORT ORDINAL="12176" NAME="?RemovePane@CPaneDivider@@UEAAXPEAVCDockablePane@@@Z" PURGE="-1" COMMENT="" />
    <EXPORT ORDINAL="12175" NAME="?RemovePane@CPaneContainer@@UEAAXPEAVCDockablePane@@@Z" PURGE="-1" COMMENT="" />
    <EXPORT ORDINAL="12174" NAME="?RemovePane@CMultiPaneFrameWnd@@UEAAXPEAVCBasePane@@HH@Z" PURGE="-1" COMMENT="" />
    <EXPORT ORDINAL="12172" NAME="?RemovePane@CDockingPanesRow@@UEAAXPEAVCPane@@@Z" PURGE="-1" COMMENT="" />
    <EXPORT ORDINAL="12173" NAME="?RemovePane@CDockSite@@UEAAXPEAVCPane@@W4AFX_DOCK_METHOD@@@Z" PURGE="-1" COMMENT="" />
    <EXPORT ORDINAL="12171" NAME="?RemovePane@CBaseTabbedPane@@UEAAHPEAVCWnd@@@Z" PURGE="-1" COMMENT="" />
    <EXPORT ORDINAL="12170" NAME="?RemovePage@CPropertySheet@@QEAAXPEAVCPropertyPage@@@Z" PURGE="-1" COMMENT="" />
    <EXPORT ORDINAL="12169" NAME="?RemovePage@CPropertySheet@@QEAAXH@Z" PURGE="-1" COMMENT="" />
    <EXPORT ORDINAL="12168" NAME="?RemovePage@CMFCTasksPane@@QEAAXH@Z" PURGE="-1" COMMENT="" />
    <EXPORT ORDINAL="12167" NAME="?RemovePage@CMFCPropertySheet@@QEAAXPEAVCPropertyPage@@@Z" PURGE="-1" COMMENT="" />
    <EXPORT ORDINAL="12166" NAME="?RemovePage@CMFCPropertySheet@@QEAAXH@Z" PURGE="-1" COMMENT="" />
    <EXPORT ORDINAL="12165" NAME="?RemoveNonValidPanes@CPaneFrameWnd@@UEAAXXZ" PURGE="-1" COMMENT="" />
    <EXPORT ORDINAL="12164" NAME="?RemoveNonValidPanes@CPaneContainerManager@@QEAAXXZ" PURGE="-1" COMMENT="" />
    <EXPORT ORDINAL="12163" NAME="?RemoveNonValidPanes@CPaneContainer@@QEAAXXZ" PURGE="-1" COMMENT="" />
    <EXPORT ORDINAL="12162" NAME="?RemoveNonValidPanes@CMultiPaneFrameWnd@@UEAAXXZ" PURGE="-1" COMMENT="" />
    <EXPORT ORDINAL="12161" NAME="?RemoveMiniFrame@CDockingManager@@UEAAHPEAVCPaneFrameWnd@@@Z" PURGE="-1" COMMENT="" />
    <EXPORT ORDINAL="12159" NAME="?RemoveMenus@XOleInPlaceFrame@COleFrameHook@@UEAAJPEAUHMENU__@@@Z" PURGE="-1" COMMENT="" />
    <EXPORT ORDINAL="12160" NAME="?RemoveMenus@XOleIPFrame@COleControlContainer@@UEAAJPEAUHMENU__@@@Z" PURGE="-1" COMMENT="" />
    <EXPORT ORDINAL="12158" NAME="?RemoveMenu@CMenuHash@@QEAAHPEAUHMENU__@@@Z" PURGE="-1" COMMENT="" />
    <EXPORT ORDINAL="12157" NAME="?RemoveKeyframes@CAnimationGroup@@QEAAXXZ" PURGE="-1" COMMENT="" />
    <EXPORT ORDINAL="12156" NAME="?RemoveKey@CMapWordToPtr@@QEAAHG@Z" PURGE="-1" COMMENT="" />
    <EXPORT ORDINAL="12155" NAME="?RemoveKey@CMapWordToOb@@QEAAHG@Z" PURGE="-1" COMMENT="" />
    <EXPORT ORDINAL="12154" NAME="?RemoveKey@CMapStringToString@@QEAAHPEBD@Z" PURGE="-1" COMMENT="" />
    <EXPORT ORDINAL="12153" NAME="?RemoveKey@CMapStringToPtr@@QEAAHPEBD@Z" PURGE="-1" COMMENT="" />
    <EXPORT ORDINAL="12152" NAME="?RemoveKey@CMapStringToOb@@QEAAHPEBD@Z" PURGE="-1" COMMENT="" />
    <EXPORT ORDINAL="12151" NAME="?RemoveKey@CMapPtrToWord@@QEAAHPEAX@Z" PURGE="-1" COMMENT="" />
    <EXPORT ORDINAL="12150" NAME="?RemoveKey@CMapPtrToPtr@@QEAAHPEAX@Z" PURGE="-1" COMMENT="" />
    <EXPORT ORDINAL="12149" NAME="?RemoveItemToolTips@CMFCRibbonGallery@@QEAAXXZ" PURGE="-1" COMMENT="" />
    <EXPORT ORDINAL="12148" NAME="?RemoveItem@CVSListBox@@UEAAHH@Z" PURGE="-1" COMMENT="" />
    <EXPORT ORDINAL="12147" NAME="?RemoveItem@COleDocument@@UEAAXPEAVCDocItem@@@Z" PURGE="-1" COMMENT="" />
    <EXPORT ORDINAL="12146" NAME="?RemoveItem@CMFCPopupMenu@@QEAAHH@Z" PURGE="-1" COMMENT="" />
    <EXPORT ORDINAL="12145" NAME="?RemoveImageList@CTreeView@@IEAAXH@Z" PURGE="-1" COMMENT="" />
    <EXPORT ORDINAL="12144" NAME="?RemoveImageList@CTreeCtrl@@IEAAXH@Z" PURGE="-1" COMMENT="" />
    <EXPORT ORDINAL="12143" NAME="?RemoveImageList@CListView@@IEAAXH@Z" PURGE="-1" COMMENT="" />
    <EXPORT ORDINAL="12142" NAME="?RemoveImageList@CListCtrl@@IEAAXH@Z" PURGE="-1" COMMENT="" />
    <EXPORT ORDINAL="12141" NAME="?RemoveIcon@CMFCCaptionBar@@QEAAXXZ" PURGE="-1" COMMENT="" />
    <EXPORT ORDINAL="12140" NAME="?RemoveHiddenMDITabbedBar@CDockingManager@@QEAAXPEAVCDockablePane@@@Z" PURGE="-1" COMMENT="" />
    <EXPORT ORDINAL="12139" NAME="?RemoveHead@CStringList@@QEAA?AV?$CStringT@DV?$StrTraitMFC_DLL@DV?$ChTraitsCRT@D@ATL@@@@@ATL@@XZ" PURGE="-1" COMMENT="" />
    <EXPORT ORDINAL="12138" NAME="?RemoveHead@CPtrList@@QEAAPEAXXZ" PURGE="-1" COMMENT="" />
    <EXPORT ORDINAL="12137" NAME="?RemoveHead@CObList@@QEAAPEAVCObject@@XZ" PURGE="-1" COMMENT="" />
    <EXPORT ORDINAL="12136" NAME="?RemoveGroup@CMFCTasksPane@@QEAAXH@Z" PURGE="-1" COMMENT="" />
    <EXPORT ORDINAL="12135" NAME="?RemoveFromMiniframe@CPane@@MEAAXPEAVCWnd@@W4AFX_DOCK_METHOD@@@Z" PURGE="-1" COMMENT="" />
    <EXPORT ORDINAL="12134" NAME="?RemoveFromDefaultPaneDivider@CDockablePane@@QEAAXXZ" PURGE="-1" COMMENT="" />
    <EXPORT ORDINAL="12133" NAME="?RemoveFrameWnd@CFrameWnd@@IEAAXXZ" PURGE="-1" COMMENT="" />
    <EXPORT ORDINAL="12132" NAME="?RemoveFrameLevelUI@COleControl@@MEAAXXZ" PURGE="-1" COMMENT="" />
    <EXPORT ORDINAL="12131" NAME="?RemoveFrame@CFrameImpl@@SAXPEAVCFrameWnd@@@Z" PURGE="-1" COMMENT="" />
    <EXPORT ORDINAL="12130" NAME="?RemoveElement@CMFCRibbonStatusBar@@QEAAHI@Z" PURGE="-1" COMMENT="" />
    <EXPORT ORDINAL="12129" NAME="?RemoveDocumentInfo@CDataRecoveryHandler@@UEAAHPEAVCDocument@@@Z" PURGE="-1" COMMENT="" />
    <EXPORT ORDINAL="12128" NAME="?RemoveDocument@CSingleDocTemplate@@UEAAXPEAVCDocument@@@Z" PURGE="-1" COMMENT="" />
    <EXPORT ORDINAL="12127" NAME="?RemoveDocument@CMultiDocTemplate@@UEAAXPEAVCDocument@@@Z" PURGE="-1" COMMENT="" />
    <EXPORT ORDINAL="12126" NAME="?RemoveDocument@CDocTemplate@@UEAAXPEAVCDocument@@@Z" PURGE="-1" COMMENT="" />
    <EXPORT ORDINAL="12125" NAME="?RemoveDirectoryA@CFtpConnection@@QEAAHPEBD@Z" PURGE="-1" COMMENT="" />
    <EXPORT ORDINAL="12124" NAME="?RemoveDestination@CAppDestinations@@QEAAHPEAUIUnknown@@@Z" PURGE="-1" COMMENT="" />
    <EXPORT ORDINAL="12123" NAME="?RemoveCustomPage@CMFCOutlookBar@@QEAAHIPEAVCMFCOutlookBarTabCtrl@@@Z" PURGE="-1" COMMENT="" />
    <EXPORT ORDINAL="12122" NAME="?RemoveControlItem@CFileDialog@@QEAAJKK@Z" PURGE="-1" COMMENT="" />
    <EXPORT ORDINAL="12121" NAME="?RemoveControlBar@CFrameWnd@@QEAAXPEAVCControlBar@@@Z" PURGE="-1" COMMENT="" />
    <EXPORT ORDINAL="12120" NAME="?RemoveControlBar@CDockBar@@QEAAHPEAVCControlBar@@HH@Z" PURGE="-1" COMMENT="" />
    <EXPORT ORDINAL="12119" NAME="?RemoveChunk@CDocument@@UEAAXAEBU_GUID@@K@Z" PURGE="-1" COMMENT="" />
    <EXPORT ORDINAL="12118" NAME="?RemoveCategory@CMFCRibbonBar@@QEAAHH@Z" PURGE="-1" COMMENT="" />
    <EXPORT ORDINAL="12117" NAME="?RemoveCategory@CMFCPropertySheet@@QEAAXPEAVCMFCPropertySheetCategoryInfo@@@Z" PURGE="-1" COMMENT="" />
    <EXPORT ORDINAL="12116" NAME="?RemoveCaptionButtons@CDockablePane@@IEAAXXZ" PURGE="-1" COMMENT="" />
    <EXPORT ORDINAL="12115" NAME="?RemoveButtons@CMFCToolBarButtonsListButton@@QEAAXXZ" PURGE="-1" COMMENT="" />
    <EXPORT ORDINAL="14069" NAME="?RemoveButtonByIndex@CMFCOutlookBarPane@@QEAAHH@Z" PURGE="-1" COMMENT="" />
    <EXPORT ORDINAL="12114" NAME="?RemoveButton@CPaneFrameWnd@@IEAAXI@Z" PURGE="-1" COMMENT="" />
    <EXPORT ORDINAL="12113" NAME="?RemoveButton@CMFCToolBarsCustomizeDialog@@QEAAHPEBDI@Z" PURGE="-1" COMMENT="" />
    <EXPORT ORDINAL="12112" NAME="?RemoveButton@CMFCToolBarsCustomizeDialog@@QEAAHII@Z" PURGE="-1" COMMENT="" />
    <EXPORT ORDINAL="12111" NAME="?RemoveButton@CMFCToolBar@@UEAAHH@Z" PURGE="-1" COMMENT="" />
    <EXPORT ORDINAL="12110" NAME="?RemoveButton@CMFCOutlookBarPane@@QEAAHI@Z" PURGE="-1" COMMENT="" />
    <EXPORT ORDINAL="12109" NAME="?RemoveButton@CMFCCaptionBar@@QEAAXXZ" PURGE="-1" COMMENT="" />
    <EXPORT ORDINAL="12108" NAME="?RemoveBitmap@CMFCCaptionBar@@QEAAXXZ" PURGE="-1" COMMENT="" />
    <EXPORT ORDINAL="12107" NAME="?RemoveAutoHideWindow@CMFCAutoHideBar@@QEAAHPEAVCDockablePane@@@Z" PURGE="-1" COMMENT="" />
    <EXPORT ORDINAL="12106" NAME="?RemoveAt@CWordArray@@QEAAX_J0@Z" PURGE="-1" COMMENT="" />
    <EXPORT ORDINAL="12105" NAME="?RemoveAt@CUIntArray@@QEAAX_J0@Z" PURGE="-1" COMMENT="" />
    <EXPORT ORDINAL="12104" NAME="?RemoveAt@CStringList@@QEAAXPEAU__POSITION@@@Z" PURGE="-1" COMMENT="" />
    <EXPORT ORDINAL="12103" NAME="?RemoveAt@CStringArray@@QEAAX_J0@Z" PURGE="-1" COMMENT="" />
    <EXPORT ORDINAL="12102" NAME="?RemoveAt@CPtrList@@QEAAXPEAU__POSITION@@@Z" PURGE="-1" COMMENT="" />
    <EXPORT ORDINAL="12101" NAME="?RemoveAt@CPtrArray@@QEAAX_J0@Z" PURGE="-1" COMMENT="" />
    <EXPORT ORDINAL="12100" NAME="?RemoveAt@CObList@@QEAAXPEAU__POSITION@@@Z" PURGE="-1" COMMENT="" />
    <EXPORT ORDINAL="12099" NAME="?RemoveAt@CObArray@@QEAAX_J0@Z" PURGE="-1" COMMENT="" />
    <EXPORT ORDINAL="12098" NAME="?RemoveAt@CDWordArray@@QEAAX_J0@Z" PURGE="-1" COMMENT="" />
    <EXPORT ORDINAL="12097" NAME="?RemoveAt@CByteArray@@QEAAX_J0@Z" PURGE="-1" COMMENT="" />
    <EXPORT ORDINAL="12096" NAME="?RemoveAnimationObject@CAnimationController@@QEAAXPEAVCAnimationBaseObject@@H@Z" PURGE="-1" COMMENT="" />
    <EXPORT ORDINAL="12095" NAME="?RemoveAnimationGroup@CAnimationController@@QEAAXI@Z" PURGE="-1" COMMENT="" />
    <EXPORT ORDINAL="12094" NAME="?RemoveAllTasks@CMFCTasksPane@@QEAAXH@Z" PURGE="-1" COMMENT="" />
    <EXPORT ORDINAL="12093" NAME="?RemoveAllTabs@CMFCBaseTabCtrl@@UEAAXXZ" PURGE="-1" COMMENT="" />
    <EXPORT ORDINAL="12092" NAME="?RemoveAllSubItems@CMFCRibbonButton@@QEAAXXZ" PURGE="-1" COMMENT="" />
    <EXPORT ORDINAL="12091" NAME="?RemoveAllPanesAndPaneDividers@CPaneContainerManager@@QEAAXXZ" PURGE="-1" COMMENT="" />
    <EXPORT ORDINAL="12090" NAME="?RemoveAllPages@CMFCTasksPane@@QEAAXXZ" PURGE="-1" COMMENT="" />
    <EXPORT ORDINAL="12089" NAME="?RemoveAllOptions@CMFCPropertyGridProperty@@QEAAXXZ" PURGE="-1" COMMENT="" />
    <EXPORT ORDINAL="12088" NAME="?RemoveAllKeys@CMFCRibbonBar@@IEAAXXZ" PURGE="-1" COMMENT="" />
    <EXPORT ORDINAL="12087" NAME="?RemoveAllItems@CMFCToolBarComboBoxButton@@QEAAXXZ" PURGE="-1" COMMENT="" />
    <EXPORT ORDINAL="12086" NAME="?RemoveAllItems@CMFCRibbonComboBox@@QEAAXXZ" PURGE="-1" COMMENT="" />
    <EXPORT ORDINAL="12085" NAME="?RemoveAllItems@CMFCPopupMenu@@QEAAXXZ" PURGE="-1" COMMENT="" />
    <EXPORT ORDINAL="12084" NAME="?RemoveAllGroups@CMFCTasksPane@@QEAAXH@Z" PURGE="-1" COMMENT="" />
    <EXPORT ORDINAL="12083" NAME="?RemoveAllFromTabs@CMFCRibbonBar@@QEAAXXZ" PURGE="-1" COMMENT="" />
    <EXPORT ORDINAL="12082" NAME="?RemoveAllDestinations@CAppDestinations@@QEAAHXZ" PURGE="-1" COMMENT="" />
    <EXPORT ORDINAL="12081" NAME="?RemoveAllColorGroups@CMFCRibbonColorButton@@QEAAXXZ" PURGE="-1" COMMENT="" />
    <EXPORT ORDINAL="12080" NAME="?RemoveAllCategories@CMFCRibbonBar@@QEAAXXZ" PURGE="-1" COMMENT="" />
    <EXPORT ORDINAL="12079" NAME="?RemoveAllCaptionButtons@CPaneFrameWnd@@IEAAXXZ" PURGE="-1" COMMENT="" />
    <EXPORT ORDINAL="12078" NAME="?RemoveAllButtons@CMFCToolBar@@UEAAXXZ" PURGE="-1" COMMENT="" />
    <EXPORT ORDINAL="12077" NAME="?RemoveAllButtons@CMFCOutlookBarPane@@UEAAXXZ" PURGE="-1" COMMENT="" />
    <EXPORT ORDINAL="12076" NAME="?RemoveAllAnimationGroups@CAnimationController@@QEAAXXZ" PURGE="-1" COMMENT="" />
    <EXPORT ORDINAL="12075" NAME="?RemoveAll@CTypeLibCacheMap@@UEAAXPEAX@Z" PURGE="-1" COMMENT="" />
    <EXPORT ORDINAL="12074" NAME="?RemoveAll@CStringList@@QEAAXXZ" PURGE="-1" COMMENT="" />
    <EXPORT ORDINAL="12073" NAME="?RemoveAll@CPtrList@@QEAAXXZ" PURGE="-1" COMMENT="" />
    <EXPORT ORDINAL="12072" NAME="?RemoveAll@CPropertySet@@QEAAXXZ" PURGE="-1" COMMENT="" />
    <EXPORT ORDINAL="12071" NAME="?RemoveAll@CPropertySection@@QEAAXXZ" PURGE="-1" COMMENT="" />
    <EXPORT ORDINAL="12070" NAME="?RemoveAll@CObList@@QEAAXXZ" PURGE="-1" COMMENT="" />
    <EXPORT ORDINAL="12063" NAME="?RemoveAll@CMapWordToPtr@@QEAAXXZ" PURGE="-1" COMMENT="" />
    <EXPORT ORDINAL="12062" NAME="?RemoveAll@CMapWordToOb@@QEAAXXZ" PURGE="-1" COMMENT="" />
    <EXPORT ORDINAL="12061" NAME="?RemoveAll@CMapStringToString@@QEAAXXZ" PURGE="-1" COMMENT="" />
    <EXPORT ORDINAL="12060" NAME="?RemoveAll@CMapStringToPtr@@QEAAXXZ" PURGE="-1" COMMENT="" />
    <EXPORT ORDINAL="12059" NAME="?RemoveAll@CMapStringToOb@@QEAAXXZ" PURGE="-1" COMMENT="" />
    <EXPORT ORDINAL="12058" NAME="?RemoveAll@CMapPtrToWord@@QEAAXXZ" PURGE="-1" COMMENT="" />
    <EXPORT ORDINAL="12057" NAME="?RemoveAll@CMapPtrToPtr@@QEAAXXZ" PURGE="-1" COMMENT="" />
    <EXPORT ORDINAL="12069" NAME="?RemoveAll@CMFCRibbonStatusBar@@QEAAXXZ" PURGE="-1" COMMENT="" />
    <EXPORT ORDINAL="12068" NAME="?RemoveAll@CMFCRibbonQuickAccessToolBarDefaultState@@QEAAXXZ" PURGE="-1" COMMENT="" />
    <EXPORT ORDINAL="12067" NAME="?RemoveAll@CMFCRibbonPanel@@QEAAXXZ" PURGE="-1" COMMENT="" />
    <EXPORT ORDINAL="12066" NAME="?RemoveAll@CMFCRibbonGallery@@IEAAXXZ" PURGE="-1" COMMENT="" />
    <EXPORT ORDINAL="12065" NAME="?RemoveAll@CMFCRibbonButtonsGroup@@QEAAXXZ" PURGE="-1" COMMENT="" />
    <EXPORT ORDINAL="12064" NAME="?RemoveAll@CMFCPropertyGridCtrl@@QEAAXXZ" PURGE="-1" COMMENT="" />
    <EXPORT ORDINAL="12056" NAME="?Remove@CSimpleList@@QEAAHPEAX@Z" PURGE="-1" COMMENT="" />
    <EXPORT ORDINAL="12055" NAME="?Remove@CRecentFileList@@UEAAXH@Z" PURGE="-1" COMMENT="" />
    <EXPORT ORDINAL="12054" NAME="?Remove@CPropertySet@@QEAAXU_GUID@@K@Z" PURGE="-1" COMMENT="" />
    <EXPORT ORDINAL="12053" NAME="?Remove@CPropertySet@@QEAAXU_GUID@@@Z" PURGE="-1" COMMENT="" />
    <EXPORT ORDINAL="12052" NAME="?Remove@CPropertySection@@QEAAXK@Z" PURGE="-1" COMMENT="" />
    <EXPORT ORDINAL="12051" NAME="?Remove@CMFCRibbonQuickAccessToolBar@@IEAAXPEAVCMFCRibbonBaseElement@@@Z" PURGE="-1" COMMENT="" />
    <EXPORT ORDINAL="12050" NAME="?Remove@CMFCRibbonPanel@@QEAAHHH@Z" PURGE="-1" COMMENT="" />
    <EXPORT ORDINAL="12049" NAME="?Remove@CFtpConnection@@QEAAHPEBD@Z" PURGE="-1" COMMENT="" />
    <EXPORT ORDINAL="12048" NAME="?Remove@CFile@@SAXPEBDPEAVCAtlTransactionManager@ATL@@@Z" PURGE="-1" COMMENT="" />
    <EXPORT ORDINAL="12046" NAME="?Remove@?$CStringT@_WV?$StrTraitMFC_DLL@_WV?$ChTraitsCRT@_W@ATL@@@@@ATL@@QEAAH_W@Z" PURGE="-1" COMMENT="" />
    <EXPORT ORDINAL="12047" NAME="?Remove@?$CStringT@DV?$StrTraitMFC_DLL@DV?$ChTraitsCRT@D@ATL@@@@@ATL@@QEAAHD@Z" PURGE="-1" COMMENT="" />
    <EXPORT ORDINAL="12045" NAME="?ReloadWindowPlacement@CWinAppEx@@MEAAHPEAVCFrameWnd@@@Z" PURGE="-1" COMMENT="" />
    <EXPORT ORDINAL="12044" NAME="?Reload@COleClientItem@@QEAAHXZ" PURGE="-1" COMMENT="" />
    <EXPORT ORDINAL="14059" NAME="?ReleaseTaskBarRefs@CWinApp@@QEAAXXZ" PURGE="-1" COMMENT="" />
    <EXPORT ORDINAL="12042" NAME="?ReleaseOutputDC@CPreviewDC@@UEAAXXZ" PURGE="-1" COMMENT="" />
    <EXPORT ORDINAL="12041" NAME="?ReleaseOutputDC@CMetaFileDC@@MEAAXXZ" PURGE="-1" COMMENT="" />
    <EXPORT ORDINAL="12040" NAME="?ReleaseOutputDC@CDC@@UEAAXXZ" PURGE="-1" COMMENT="" />
    <EXPORT ORDINAL="12039" NAME="?ReleaseObjectArray@CJumpList@@IEAAXPEAUIObjectArray@@H@Z" PURGE="-1" COMMENT="" />
    <EXPORT ORDINAL="12038" NAME="?ReleaseFont@CFontHolder@@QEAAXXZ" PURGE="-1" COMMENT="" />
    <EXPORT ORDINAL="12037" NAME="?ReleaseFile@CDocument@@UEAAXPEAVCFile@@H@Z" PURGE="-1" COMMENT="" />
    <EXPORT ORDINAL="12036" NAME="?ReleaseEmptyPaneContainers@CPaneDivider@@QEAAXXZ" PURGE="-1" COMMENT="" />
    <EXPORT ORDINAL="12035" NAME="?ReleaseEmptyPaneContainers@CPaneContainerManager@@QEAAXXZ" PURGE="-1" COMMENT="" />
    <EXPORT ORDINAL="12034" NAME="?ReleaseEmptyPaneContainers@CDockingManager@@QEAAXXZ" PURGE="-1" COMMENT="" />
    <EXPORT ORDINAL="12033" NAME="?ReleaseEmptyPaneContainer@CPaneContainer@@QEAAXXZ" PURGE="-1" COMMENT="" />
    <EXPORT ORDINAL="12032" NAME="?ReleaseDocSite@CDocObjectServer@@QEAAXXZ" PURGE="-1" COMMENT="" />
    <EXPORT ORDINAL="12031" NAME="?ReleaseDispatch@COleDispatchDriver@@QEAAXXZ" PURGE="-1" COMMENT="" />
    <EXPORT ORDINAL="12030" NAME="?ReleaseDC@XOleIPSite@COleControlSite@@UEAAJPEAUHDC__@@@Z" PURGE="-1" COMMENT="" />
    <EXPORT ORDINAL="12029" NAME="?ReleaseDC@COleControl@@QEAAHPEAVCDC@@@Z" PURGE="-1" COMMENT="" />
    <EXPORT ORDINAL="14058" NAME="?ReleaseD2DRefs@_AFX_D2D_STATE@@QEAAXXZ" PURGE="-1" COMMENT="" />
    <EXPORT ORDINAL="12027" NAME="?ReleaseCurrFolder@CMFCShellListCtrl@@IEAAXXZ" PURGE="-1" COMMENT="" />
    <EXPORT ORDINAL="12026" NAME="?ReleaseCapture@COleControl@@QEAAHXZ" PURGE="-1" COMMENT="" />
    <EXPORT ORDINAL="12025" NAME="?ReleaseCaches@COleControl@@IEAAXXZ" PURGE="-1" COMMENT="" />
    <EXPORT ORDINAL="12023" NAME="?ReleaseBufferSetLength@?$CSimpleStringT@_W$00@ATL@@QEAAXH@Z" PURGE="-1" COMMENT="" />
    <EXPORT ORDINAL="12024" NAME="?ReleaseBufferSetLength@?$CSimpleStringT@D$00@ATL@@QEAAXH@Z" PURGE="-1" COMMENT="" />
    <EXPORT ORDINAL="12021" NAME="?ReleaseBuffer@?$CSimpleStringT@_W$00@ATL@@QEAAXH@Z" PURGE="-1" COMMENT="" />
    <EXPORT ORDINAL="12022" NAME="?ReleaseBuffer@?$CSimpleStringT@D$00@ATL@@QEAAXH@Z" PURGE="-1" COMMENT="" />
    <EXPORT ORDINAL="12020" NAME="?ReleaseAttribDC@CDC@@UEAAXXZ" PURGE="-1" COMMENT="" />
    <EXPORT ORDINAL="12019" NAME="?Release@CPrintDialogEx@@UEAAKXZ" PURGE="-1" COMMENT="" />
    <EXPORT ORDINAL="12018" NAME="?Release@CPaneContainer@@QEAAKXZ" PURGE="-1" COMMENT="" />
    <EXPORT ORDINAL="12017" NAME="?Release@COleUILinkInfo@@UEAAKXZ" PURGE="-1" COMMENT="" />
    <EXPORT ORDINAL="12016" NAME="?Release@COleDocObjectItem@@UEAAXW4tagOLECLOSE@@@Z" PURGE="-1" COMMENT="" />
    <EXPORT ORDINAL="12015" NAME="?Release@COleDispatchImpl@@UEAAKXZ" PURGE="-1" COMMENT="" />
    <EXPORT ORDINAL="12014" NAME="?Release@COleDataObject@@QEAAXXZ" PURGE="-1" COMMENT="" />
    <EXPORT ORDINAL="12013" NAME="?Release@COleConnPtContainer@@UEAAKXZ" PURGE="-1" COMMENT="" />
    <EXPORT ORDINAL="12012" NAME="?Release@COleClientItem@@UEAAXW4tagOLECLOSE@@@Z" PURGE="-1" COMMENT="" />
    <EXPORT ORDINAL="12011" NAME="?Release@CInnerUnknown@@UEAAKXZ" PURGE="-1" COMMENT="" />
    <EXPORT ORDINAL="12010" NAME="?Release@CDHtmlEventSink@@UEAAKXZ" PURGE="-1" COMMENT="" />
    <EXPORT ORDINAL="12009" NAME="?Release@CDHtmlElementEventSink@@UEAAKXZ" PURGE="-1" COMMENT="" />
    <EXPORT ORDINAL="12008" NAME="?Release@CDHtmlControlSink@@UEAAKXZ" PURGE="-1" COMMENT="" />
    <EXPORT ORDINAL="12007" NAME="?Release@CBrowserControlSite@@MEAAKXZ" PURGE="-1" COMMENT="" />
    <EXPORT ORDINAL="12006" NAME="?Release@CBlobProperty@@UEAAKXZ" PURGE="-1" COMMENT="" />
    <EXPORT ORDINAL="12005" NAME="?Release@CArchiveStream@@UEAAKXZ" PURGE="-1" COMMENT="" />
    <EXPORT ORDINAL="12004" NAME="?RegisterWithRestartManager@CWinApp@@UEAAJPEB_WKP6AKPEAX@Z1KK@Z" PURGE="-1" COMMENT="" />
    <EXPORT ORDINAL="12003" NAME="?RegisterWithRestartManager@CWinApp@@UEAAJHAEBV?$CStringT@DV?$StrTraitMFC_DLL@DV?$ChTraitsCRT@D@ATL@@@@@ATL@@@Z" PURGE="-1" COMMENT="" />
    <EXPORT ORDINAL="12002" NAME="?RegisterWindowClass@AFX_GLOBAL_DATA@@QEAA?AV?$CStringT@DV?$StrTraitMFC_DLL@DV?$ChTraitsCRT@D@ATL@@@@@ATL@@PEBD@Z" PURGE="-1" COMMENT="" />
    <EXPORT ORDINAL="12001" NAME="?RegisterTouchWindow@CWnd@@QEAAHHK@Z" PURGE="-1" COMMENT="" />
    <EXPORT ORDINAL="12000" NAME="?RegisterTaskbarTab@CMDIChildWndEx@@UEAAXPEAV1@@Z" PURGE="-1" COMMENT="" />
    <EXPORT ORDINAL="11999" NAME="?RegisterSiteFactory@CControlSiteFactoryMgr@@QEAAHPEAVIControlSiteFactory@@@Z" PURGE="-1" COMMENT="" />
    <EXPORT ORDINAL="11998" NAME="?RegisterShellFileTypes@CWinApp@@IEAAXH@Z" PURGE="-1" COMMENT="" />
    <EXPORT ORDINAL="11997" NAME="?RegisterShellFileTypes@CDocManager@@UEAAXH@Z" PURGE="-1" COMMENT="" />
    <EXPORT ORDINAL="11996" NAME="?RegisterIfServerAttached@COleLinkingDoc@@MEAAHPEBDH@Z" PURGE="-1" COMMENT="" />
    <EXPORT ORDINAL="11995" NAME="?RegisterAllMDIChildrenWithTaskbar@CMDIFrameWndEx@@QEAAXH@Z" PURGE="-1" COMMENT="" />
    <EXPORT ORDINAL="11994" NAME="?RegisterAll@COleObjectFactory@@SAHXZ" PURGE="-1" COMMENT="" />
    <EXPORT ORDINAL="11993" NAME="?Register@CWinApp@@UEAAHXZ" PURGE="-1" COMMENT="" />
    <EXPORT ORDINAL="11992" NAME="?Register@COleTemplateServer@@UEAAHXZ" PURGE="-1" COMMENT="" />
    <EXPORT ORDINAL="11991" NAME="?Register@COleObjectFactory@@UEAAHXZ" PURGE="-1" COMMENT="" />
    <EXPORT ORDINAL="11990" NAME="?Register@COleMessageFilter@@QEAAHXZ" PURGE="-1" COMMENT="" />
    <EXPORT ORDINAL="11989" NAME="?Register@COleLinkingDoc@@QEAAHPEAVCOleObjectFactory@@PEBD@Z" PURGE="-1" COMMENT="" />
    <EXPORT ORDINAL="11988" NAME="?Register@COleDropTarget@@QEAAHPEAVCWnd@@@Z" PURGE="-1" COMMENT="" />
    <EXPORT ORDINAL="11987" NAME="?Register@CMFCToolBarDropTarget@@QEAAHPEAVCMFCToolBar@@@Z" PURGE="-1" COMMENT="" />
    <EXPORT ORDINAL="11986" NAME="?Register@CMFCTabDropTarget@@QEAAHPEAVCMFCBaseTabCtrl@@@Z" PURGE="-1" COMMENT="" />
    <EXPORT ORDINAL="11985" NAME="?RefreshRowset@CRecordset@@QEAAXGG@Z" PURGE="-1" COMMENT="" />
    <EXPORT ORDINAL="11984" NAME="?Refresh@COleControl@@QEAAXXZ" PURGE="-1" COMMENT="" />
    <EXPORT ORDINAL="11983" NAME="?Refresh@CMFCShellTreeCtrl@@QEAAXXZ" PURGE="-1" COMMENT="" />
    <EXPORT ORDINAL="11982" NAME="?Refresh@CMFCShellListCtrl@@UEAAJXZ" PURGE="-1" COMMENT="" />
    <EXPORT ORDINAL="11981" NAME="?ReflectLastMsg@CWnd@@KAHPEAUHWND__@@PEA_J@Z" PURGE="-1" COMMENT="" />
    <EXPORT ORDINAL="11980" NAME="?ReflectChildNotify@CWnd@@IEAAHI_K_JPEA_J@Z" PURGE="-1" COMMENT="" />
    <EXPORT ORDINAL="11979" NAME="?RedrawUnderlines@CMFCToolBar@@SAXXZ" PURGE="-1" COMMENT="" />
    <EXPORT ORDINAL="11978" NAME="?RedrawSelection@CMFCToolBarButtonsListButton@@IEAAXXZ" PURGE="-1" COMMENT="" />
    <EXPORT ORDINAL="11977" NAME="?RedrawIcons@CMFCRibbonGallery@@QEAAXXZ" PURGE="-1" COMMENT="" />
    <EXPORT ORDINAL="11976" NAME="?RedrawElement@CMFCRibbonPanel@@MEAAXPEAVCMFCRibbonBaseElement@@@Z" PURGE="-1" COMMENT="" />
    <EXPORT ORDINAL="11975" NAME="?RedrawCustomizeButton@CMFCToolBar@@IEAAXXZ" PURGE="-1" COMMENT="" />
    <EXPORT ORDINAL="11974" NAME="?RedrawCaptionButton@CPaneFrameWnd@@IEAAXPEAVCMFCCaptionButton@@@Z" PURGE="-1" COMMENT="" />
    <EXPORT ORDINAL="11973" NAME="?RedrawCaptionButton@CFrameImpl@@IEAAXPEAVCMFCCaptionButtonEx@@@Z" PURGE="-1" COMMENT="" />
    <EXPORT ORDINAL="11972" NAME="?RedrawButton@CDockablePane@@IEAAXPEBVCMFCCaptionButton@@@Z" PURGE="-1" COMMENT="" />
    <EXPORT ORDINAL="14047" NAME="?RedrawAllMiniFrames@CDockingManager@@QEAAXXZ" PURGE="-1" COMMENT="" />
    <EXPORT ORDINAL="11971" NAME="?RedrawAll@CPaneFrameWnd@@SAXXZ" PURGE="-1" COMMENT="" />
    <EXPORT ORDINAL="11970" NAME="?RedrawAll@CMFCVisualManager@@SAXXZ" PURGE="-1" COMMENT="" />
    <EXPORT ORDINAL="11969" NAME="?RedrawAll@CDockingPanesRow@@QEAAXXZ" PURGE="-1" COMMENT="" />
    <EXPORT ORDINAL="11968" NAME="?Redraw@CMFCRibbonTab@@UEAAXXZ" PURGE="-1" COMMENT="" />
    <EXPORT ORDINAL="11967" NAME="?Redraw@CMFCRibbonEdit@@UEAAXXZ" PURGE="-1" COMMENT="" />
    <EXPORT ORDINAL="11966" NAME="?Redraw@CMFCRibbonBaseElement@@UEAAXXZ" PURGE="-1" COMMENT="" />
    <EXPORT ORDINAL="11965" NAME="?Redraw@CMFCPropertyGridProperty@@QEAAXXZ" PURGE="-1" COMMENT="" />
    <EXPORT ORDINAL="11964" NAME="?Redraw@CMFCPreviewCtrlImpl@@UEAAXXZ" PURGE="-1" COMMENT="" />
    <EXPORT ORDINAL="11961" NAME="?Redim@COleSafeArray@@QEAAXPEAUtagSAFEARRAYBOUND@@@Z" PURGE="-1" COMMENT="" />
    <EXPORT ORDINAL="11960" NAME="?RectVisible@CMetaFileDC@@UEBAHPEBUtagRECT@@@Z" PURGE="-1" COMMENT="" />
    <EXPORT ORDINAL="11959" NAME="?RectSideFromPoint@CDockSite@@SAHAEBVCRect@@AEBVCPoint@@@Z" PURGE="-1" COMMENT="" />
    <EXPORT ORDINAL="11957" NAME="?RecreateControlWindow@COleControl@@QEAAXXZ" PURGE="-1" COMMENT="" />
    <EXPORT ORDINAL="11954" NAME="?ReceiveFromHelper@CSocket@@MEAAHPEAXHPEAUsockaddr@@PEAHH@Z" PURGE="-1" COMMENT="" />
    <EXPORT ORDINAL="11953" NAME="?ReceiveFromHelper@CAsyncSocket@@MEAAHPEAXHPEAUsockaddr@@PEAHH@Z" PURGE="-1" COMMENT="" />
    <EXPORT ORDINAL="11952" NAME="?ReceiveFrom@CAsyncSocket@@QEAAHPEAXHAEAV?$CStringT@DV?$StrTraitMFC_DLL@DV?$ChTraitsCRT@D@ATL@@@@@ATL@@AEAIH@Z" PURGE="-1" COMMENT="" />
    <EXPORT ORDINAL="11951" NAME="?Receive@CSocket@@UEAAHPEAXHH@Z" PURGE="-1" COMMENT="" />
    <EXPORT ORDINAL="11950" NAME="?Receive@CAsyncSocket@@UEAAHPEAXHH@Z" PURGE="-1" COMMENT="" />
    <EXPORT ORDINAL="11949" NAME="?RecalcWidths@CMFCRibbonPanel@@UEAAXPEAVCDC@@H@Z" PURGE="-1" COMMENT="" />
    <EXPORT ORDINAL="11948" NAME="?RecalcWidths@CMFCRibbonMainPanel@@MEAAXPEAVCDC@@H@Z" PURGE="-1" COMMENT="" />
    <EXPORT ORDINAL="11947" NAME="?RecalcPanelWidths@CMFCRibbonCategory@@IEAAXPEAVCDC@@@Z" PURGE="-1" COMMENT="" />
    <EXPORT ORDINAL="11946" NAME="?RecalcLayout@CSplitterWnd@@UEAAXXZ" PURGE="-1" COMMENT="" />
    <EXPORT ORDINAL="11945" NAME="?RecalcLayout@CPane@@UEAAXXZ" PURGE="-1" COMMENT="" />
    <EXPORT ORDINAL="11944" NAME="?RecalcLayout@COleIPFrameWndEx@@UEAAXH@Z" PURGE="-1" COMMENT="" />
    <EXPORT ORDINAL="11943" NAME="?RecalcLayout@COleIPFrameWnd@@UEAAXH@Z" PURGE="-1" COMMENT="" />
    <EXPORT ORDINAL="11942" NAME="?RecalcLayout@COleDocIPFrameWndEx@@UEAAXH@Z" PURGE="-1" COMMENT="" />
    <EXPORT ORDINAL="11941" NAME="?RecalcLayout@COleDocIPFrameWnd@@MEAAXH@Z" PURGE="-1" COMMENT="" />
    <EXPORT ORDINAL="11940" NAME="?RecalcLayout@COleCntrFrameWndEx@@UEAAXH@Z" PURGE="-1" COMMENT="" />
    <EXPORT ORDINAL="11939" NAME="?RecalcLayout@COleCntrFrameWnd@@UEAAXH@Z" PURGE="-1" COMMENT="" />
    <EXPORT ORDINAL="11938" NAME="?RecalcLayout@CMiniDockFrameWnd@@UEAAXH@Z" PURGE="-1" COMMENT="" />
    <EXPORT ORDINAL="11937" NAME="?RecalcLayout@CMFCTasksPane@@QEAAXH@Z" PURGE="-1" COMMENT="" />
    <EXPORT ORDINAL="11936" NAME="?RecalcLayout@CMFCTabCtrl@@UEAAXXZ" PURGE="-1" COMMENT="" />
    <EXPORT ORDINAL="11935" NAME="?RecalcLayout@CMFCStatusBar@@MEAAXXZ" PURGE="-1" COMMENT="" />
    <EXPORT ORDINAL="11934" NAME="?RecalcLayout@CMFCRibbonStatusBar@@UEAAXXZ" PURGE="-1" COMMENT="" />
    <EXPORT ORDINAL="11933" NAME="?RecalcLayout@CMFCRibbonCategory@@UEAAXPEAVCDC@@@Z" PURGE="-1" COMMENT="" />
    <EXPORT ORDINAL="11932" NAME="?RecalcLayout@CMFCRibbonBar@@UEAAXXZ" PURGE="-1" COMMENT="" />
    <EXPORT ORDINAL="11931" NAME="?RecalcLayout@CMFCPopupMenu@@UEAAXH@Z" PURGE="-1" COMMENT="" />
    <EXPORT ORDINAL="11930" NAME="?RecalcLayout@CMFCOutlookBarTabCtrl@@UEAAXXZ" PURGE="-1" COMMENT="" />
    <EXPORT ORDINAL="11929" NAME="?RecalcLayout@CMFCDropDownFrame@@UEAAXH@Z" PURGE="-1" COMMENT="" />
    <EXPORT ORDINAL="11928" NAME="?RecalcLayout@CMFCCaptionBar@@MEAAXXZ" PURGE="-1" COMMENT="" />
    <EXPORT ORDINAL="11927" NAME="?RecalcLayout@CMDIFrameWndEx@@UEAAXH@Z" PURGE="-1" COMMENT="" />
    <EXPORT ORDINAL="11926" NAME="?RecalcLayout@CMDIChildWndEx@@UEAAXH@Z" PURGE="-1" COMMENT="" />
    <EXPORT ORDINAL="11925" NAME="?RecalcLayout@CFrameWndEx@@UEAAXH@Z" PURGE="-1" COMMENT="" />
    <EXPORT ORDINAL="11924" NAME="?RecalcLayout@CFrameWnd@@UEAAXH@Z" PURGE="-1" COMMENT="" />
    <EXPORT ORDINAL="11923" NAME="?RecalcLayout@CDockingManager@@UEAAXH@Z" PURGE="-1" COMMENT="" />
    <EXPORT ORDINAL="11922" NAME="?RecalcLayout@CBaseTabbedPane@@UEAAXXZ" PURGE="-1" COMMENT="" />
    <EXPORT ORDINAL="11921" NAME="?RecalcDelayShow@CControlBar@@UEAAKPEAUAFX_SIZEPARENTPARAMS@@@Z" PURGE="-1" COMMENT="" />
    <EXPORT ORDINAL="11920" NAME="?RecalcCaptionHeight@CPaneFrameWnd@@MEAAXXZ" PURGE="-1" COMMENT="" />
    <EXPORT ORDINAL="11919" NAME="?RebuildToolBar@CMFCOutlookBarTabCtrl@@IEAAXXZ" PURGE="-1" COMMENT="" />
    <EXPORT ORDINAL="11918" NAME="?RebuildPalette@CMFCColorDialog@@IEAAXXZ" PURGE="-1" COMMENT="" />
    <EXPORT ORDINAL="11917" NAME="?RebuildPalette@CMFCColorButton@@IEAAXPEAVCPalette@@@Z" PURGE="-1" COMMENT="" />
    <EXPORT ORDINAL="11916" NAME="?RebuildMenu@CMFCTasksPane@@IEAAXXZ" PURGE="-1" COMMENT="" />
    <EXPORT ORDINAL="11915" NAME="?RebuildLocations@CMFCToolBarButtonsListButton@@IEAAXXZ" PURGE="-1" COMMENT="" />
    <EXPORT ORDINAL="11914" NAME="?RebuildKeys@CMFCRibbonQuickAccessToolBar@@IEAAXXZ" PURGE="-1" COMMENT="" />
    <EXPORT ORDINAL="11913" NAME="?RebuildImageList@CMFCToolBarButtonCustomizeDialog@@IEAAXXZ" PURGE="-1" COMMENT="" />
    <EXPORT ORDINAL="11912" NAME="?RebuildIconLocations@CMFCRibbonGallery@@IEAAXXZ" PURGE="-1" COMMENT="" />
    <EXPORT ORDINAL="11911" NAME="?RebuildHiddenItems@CMFCRibbonQuickAccessToolBar@@IEAAXXZ" PURGE="-1" COMMENT="" />
    <EXPORT ORDINAL="11909" NAME="?RebuildFonts@CMFCToolBarFontComboBox@@IEAAXXZ" PURGE="-1" COMMENT="" />
    <EXPORT ORDINAL="11908" NAME="?RebuildFonts@CMFCRibbonFontComboBox@@QEAAXXZ" PURGE="-1" COMMENT="" />
    <EXPORT ORDINAL="11910" NAME="?RebuildFontSizes@CMFCToolBarFontSizeComboBox@@QEAAXAEBV?$CStringT@DV?$StrTraitMFC_DLL@DV?$ChTraitsCRT@D@ATL@@@@@ATL@@@Z" PURGE="-1" COMMENT="" />
    <EXPORT ORDINAL="11907" NAME="?RebuildAccelerationKeys@CMFCToolBar@@IEAAXXZ" PURGE="-1" COMMENT="" />
    <EXPORT ORDINAL="11906" NAME="?Rebuild@CMFCColorBar@@MEAAXXZ" PURGE="-1" COMMENT="" />
    <EXPORT ORDINAL="11905" NAME="?RebindParams@CRecordset@@QEAAXPEAX@Z" PURGE="-1" COMMENT="" />
    <EXPORT ORDINAL="11903" NAME="?Reallocate@CAfxStringMgr@@UEAAPEAUCStringData@ATL@@PEAU23@HH@Z" PURGE="-1" COMMENT="" />
    <EXPORT ORDINAL="11901" NAME="?Reallocate@?$CSimpleStringT@_W$00@ATL@@AEAAXH@Z" PURGE="-1" COMMENT="" />
    <EXPORT ORDINAL="11902" NAME="?Reallocate@?$CSimpleStringT@D$00@ATL@@AEAAXH@Z" PURGE="-1" COMMENT="" />
    <EXPORT ORDINAL="11904" NAME="?ReallocLongBinary@CFieldExchange@@QEAAPEAEAEAVCLongBinary@@_J1@Z" PURGE="-1" COMMENT="" />
    <EXPORT ORDINAL="11900" NAME="?Realloc@CSharedFile@@MEAAPEAEPEAE_K@Z" PURGE="-1" COMMENT="" />
    <EXPORT ORDINAL="11899" NAME="?Realloc@CMemFile@@MEAAPEAEPEAE_K@Z" PURGE="-1" COMMENT="" />
    <EXPORT ORDINAL="11898" NAME="?ReadUInt@XRibbonInfoParser@CMFCRibbonInfo@@UEAAHAEBV?$CStringT@DV?$StrTraitMFC_DLL@DV?$ChTraitsCRT@D@ATL@@@@@ATL@@AEAI@Z" PURGE="-1" COMMENT="" />
    <EXPORT ORDINAL="11897" NAME="?ReadToolTipInfo@CTagManager@@QEAAHAEBV?$CStringT@DV?$StrTraitMFC_DLL@DV?$ChTraitsCRT@D@ATL@@@@@ATL@@AEAVCMFCToolTipInfo@@@Z" PURGE="-1" COMMENT="" />
    <EXPORT ORDINAL="11896" NAME="?ReadToolBarImages@CTagManager@@QEAAHAEBV?$CStringT@DV?$StrTraitMFC_DLL@DV?$ChTraitsCRT@D@ATL@@@@@ATL@@AEAVCMFCToolBarImages@@PEBD@Z" PURGE="-1" COMMENT="" />
    <EXPORT ORDINAL="11895" NAME="?ReadToolBarImages@CTagManager@@QEAAHAEBV?$CStringT@DV?$StrTraitMFC_DLL@DV?$ChTraitsCRT@D@ATL@@@@@ATL@@AEAVCMFCToolBarImages@@I@Z" PURGE="-1" COMMENT="" />
    <EXPORT ORDINAL="11894" NAME="?ReadString@CStdioFile@@UEAAPEADPEADI@Z" PURGE="-1" COMMENT="" />
    <EXPORT ORDINAL="11893" NAME="?ReadString@CStdioFile@@UEAAHAEAV?$CStringT@DV?$StrTraitMFC_DLL@DV?$ChTraitsCRT@D@ATL@@@@@ATL@@@Z" PURGE="-1" COMMENT="" />
    <EXPORT ORDINAL="11892" NAME="?ReadString@CInternetFile@@UEAAPEADPEADI@Z" PURGE="-1" COMMENT="" />
    <EXPORT ORDINAL="11891" NAME="?ReadString@CInternetFile@@UEAAHAEAV?$CStringT@DV?$StrTraitMFC_DLL@DV?$ChTraitsCRT@D@ATL@@@@@ATL@@@Z" PURGE="-1" COMMENT="" />
    <EXPORT ORDINAL="11890" NAME="?ReadString@CArchive@@QEAAPEADPEADI@Z" PURGE="-1" COMMENT="" />
    <EXPORT ORDINAL="11889" NAME="?ReadString@CArchive@@QEAAHAEAV?$CStringT@DV?$StrTraitMFC_DLL@DV?$ChTraitsCRT@D@ATL@@@@@ATL@@@Z" PURGE="-1" COMMENT="" />
    <EXPORT ORDINAL="11888" NAME="?ReadSize@XRibbonInfoParser@CMFCRibbonInfo@@UEAAHAEBV?$CStringT@DV?$StrTraitMFC_DLL@DV?$ChTraitsCRT@D@ATL@@@@@ATL@@AEAVCSize@@@Z" PURGE="-1" COMMENT="" />
    <EXPORT ORDINAL="11887" NAME="?ReadSize@CTagManager@@QEAAHAEBV?$CStringT@DV?$StrTraitMFC_DLL@DV?$ChTraitsCRT@D@ATL@@@@@ATL@@AEAVCSize@@@Z" PURGE="-1" COMMENT="" />
    <EXPORT ORDINAL="11886" NAME="?ReadRect@CTagManager@@QEAAHAEBV?$CStringT@DV?$StrTraitMFC_DLL@DV?$ChTraitsCRT@D@ATL@@@@@ATL@@AEAVCRect@@@Z" PURGE="-1" COMMENT="" />
    <EXPORT ORDINAL="11885" NAME="?ReadPoint@CTagManager@@QEAAHAEBV?$CStringT@DV?$StrTraitMFC_DLL@DV?$ChTraitsCRT@D@ATL@@@@@ATL@@AEAVCPoint@@@Z" PURGE="-1" COMMENT="" />
    <EXPORT ORDINAL="11884" NAME="?ReadOpenDocumentList@CDataRecoveryHandler@@UEAAHXZ" PURGE="-1" COMMENT="" />
    <EXPORT ORDINAL="11883" NAME="?ReadObject@CArchive@@QEAAPEAVCObject@@PEBUCRuntimeClass@@@Z" PURGE="-1" COMMENT="" />
    <EXPORT ORDINAL="11882" NAME="?ReadNextChunkValue@CDocument@@UEAAHPEAPEAUIFilterChunkValue@ATL@@@Z" PURGE="-1" COMMENT="" />
    <EXPORT ORDINAL="11881" NAME="?ReadNameDictFromStream@CPropertySection@@QEAAHPEAUIStream@@@Z" PURGE="-1" COMMENT="" />
    <EXPORT ORDINAL="11880" NAME="?ReadList@CRecentFileList@@UEAAXXZ" PURGE="-1" COMMENT="" />
    <EXPORT ORDINAL="11879" NAME="?ReadItemFlat@COleClientItem@@QEAAXAEAVCArchive@@@Z" PURGE="-1" COMMENT="" />
    <EXPORT ORDINAL="11878" NAME="?ReadItemCompound@COleClientItem@@QEAAXAEAVCArchive@@@Z" PURGE="-1" COMMENT="" />
    <EXPORT ORDINAL="11877" NAME="?ReadItem@COleClientItem@@UEAAXAEAVCArchive@@@Z" PURGE="-1" COMMENT="" />
    <EXPORT ORDINAL="11876" NAME="?ReadInt@XRibbonInfoParser@CMFCRibbonInfo@@UEAAHAEBV?$CStringT@DV?$StrTraitMFC_DLL@DV?$ChTraitsCRT@D@ATL@@@@@ATL@@AEAH@Z" PURGE="-1" COMMENT="" />
    <EXPORT ORDINAL="11875" NAME="?ReadInt@CTagManager@@QEAAHAEBV?$CStringT@DV?$StrTraitMFC_DLL@DV?$ChTraitsCRT@D@ATL@@@@@ATL@@AEAH@Z" PURGE="-1" COMMENT="" />
    <EXPORT ORDINAL="11874" NAME="?ReadFromStream@CPropertySet@@QEAAHPEAUIStream@@@Z" PURGE="-1" COMMENT="" />
    <EXPORT ORDINAL="11873" NAME="?ReadFromStream@CPropertySection@@QEAAHPEAUIStream@@T_LARGE_INTEGER@@@Z" PURGE="-1" COMMENT="" />
    <EXPORT ORDINAL="11872" NAME="?ReadFromStream@CProperty@@QEAAHPEAUIStream@@@Z" PURGE="-1" COMMENT="" />
    <EXPORT ORDINAL="11871" NAME="?ReadFromArchive@CEditView@@QEAAXAEAVCArchive@@I@Z" PURGE="-1" COMMENT="" />
    <EXPORT ORDINAL="11870" NAME="?ReadFont@CTagManager@@QEAAHAEBV?$CStringT@DV?$StrTraitMFC_DLL@DV?$ChTraitsCRT@D@ATL@@@@@ATL@@AEAUtagLOGFONTA@@@Z" PURGE="-1" COMMENT="" />
    <EXPORT ORDINAL="11869" NAME="?ReadCount@CArchive@@QEAA_KXZ" PURGE="-1" COMMENT="" />
    <EXPORT ORDINAL="11868" NAME="?ReadControlRendererInfo@CTagManager@@QEAAHAEBV?$CStringT@DV?$StrTraitMFC_DLL@DV?$ChTraitsCRT@D@ATL@@@@@ATL@@AEAVCMFCControlRendererInfo@@@Z" PURGE="-1" COMMENT="" />
    <EXPORT ORDINAL="11867" NAME="?ReadControlRenderer@CTagManager@@QEAAHAEBV?$CStringT@DV?$StrTraitMFC_DLL@DV?$ChTraitsCRT@D@ATL@@@@@ATL@@AEAVCMFCControlRenderer@@PEBD@Z" PURGE="-1" COMMENT="" />
    <EXPORT ORDINAL="11866" NAME="?ReadControlRenderer@CTagManager@@QEAAHAEBV?$CStringT@DV?$StrTraitMFC_DLL@DV?$ChTraitsCRT@D@ATL@@@@@ATL@@AEAVCMFCControlRenderer@@I@Z" PURGE="-1" COMMENT="" />
    <EXPORT ORDINAL="11865" NAME="?ReadColor@XRibbonInfoParser@CMFCRibbonInfo@@UEAAHAEBV?$CStringT@DV?$StrTraitMFC_DLL@DV?$ChTraitsCRT@D@ATL@@@@@ATL@@AEAK@Z" PURGE="-1" COMMENT="" />
    <EXPORT ORDINAL="11864" NAME="?ReadColor@CTagManager@@QEAAHAEBV?$CStringT@DV?$StrTraitMFC_DLL@DV?$ChTraitsCRT@D@ATL@@@@@ATL@@AEAK@Z" PURGE="-1" COMMENT="" />
    <EXPORT ORDINAL="11863" NAME="?ReadClass@CArchive@@QEAAPEAUCRuntimeClass@@PEBU2@PEAIPEAK@Z" PURGE="-1" COMMENT="" />
    <EXPORT ORDINAL="14057" NAME="?ReadBoolProp@@YAHAEAVCTagManager@@PEBDAEAH@Z" PURGE="-1" COMMENT="" />
    <EXPORT ORDINAL="11861" NAME="?ReadBool@XRibbonInfoParser@CMFCRibbonInfo@@UEAAHAEBV?$CStringT@DV?$StrTraitMFC_DLL@DV?$ChTraitsCRT@D@ATL@@@@@ATL@@AEAH@Z" PURGE="-1" COMMENT="" />
    <EXPORT ORDINAL="11860" NAME="?ReadBool@CTagManager@@QEAAHAEBV?$CStringT@DV?$StrTraitMFC_DLL@DV?$ChTraitsCRT@D@ATL@@@@@ATL@@AEAH@Z" PURGE="-1" COMMENT="" />
    <EXPORT ORDINAL="11859" NAME="?Read@XRibbonBar@CMFCRibbonInfo@@UEAAHAEAVXRibbonInfoParser@2@@Z" PURGE="-1" COMMENT="" />
    <EXPORT ORDINAL="11858" NAME="?Read@XQATItem@XQAT@CMFCRibbonInfo@@QEAAHAEAVXRibbonInfoParser@3@@Z" PURGE="-1" COMMENT="" />
    <EXPORT ORDINAL="11857" NAME="?Read@XQAT@CMFCRibbonInfo@@UEAAHAEAVXRibbonInfoParser@2@@Z" PURGE="-1" COMMENT="" />
    <EXPORT ORDINAL="11856" NAME="?Read@XPanel@CMFCRibbonInfo@@UEAAHAEAVXRibbonInfoParser@2@@Z" PURGE="-1" COMMENT="" />
    <EXPORT ORDINAL="11855" NAME="?Read@XImage@CMFCRibbonInfo@@QEAAHAEAVXRibbonInfoParser@2@@Z" PURGE="-1" COMMENT="" />
    <EXPORT ORDINAL="11854" NAME="?Read@XID@CMFCRibbonInfo@@QEAAHAEAVXRibbonInfoParser@2@@Z" PURGE="-1" COMMENT="" />
    <EXPORT ORDINAL="11853" NAME="?Read@XGalleryGroup@XElementButtonGallery@CMFCRibbonInfo@@QEAAHAEAVXRibbonInfoParser@3@@Z" PURGE="-1" COMMENT="" />
    <EXPORT ORDINAL="11852" NAME="?Read@XElementSlider@CMFCRibbonInfo@@UEAAHAEAVXRibbonInfoParser@2@@Z" PURGE="-1" COMMENT="" />
    <EXPORT ORDINAL="11851" NAME="?Read@XElementSeparator@CMFCRibbonInfo@@UEAAHAEAVXRibbonInfoParser@2@@Z" PURGE="-1" COMMENT="" />
    <EXPORT ORDINAL="11850" NAME="?Read@XElementProgressBar@CMFCRibbonInfo@@UEAAHAEAVXRibbonInfoParser@2@@Z" PURGE="-1" COMMENT="" />
    <EXPORT ORDINAL="11849" NAME="?Read@XElementLabel@CMFCRibbonInfo@@UEAAHAEAVXRibbonInfoParser@2@@Z" PURGE="-1" COMMENT="" />
    <EXPORT ORDINAL="11848" NAME="?Read@XElementGroup@CMFCRibbonInfo@@UEAAHAEAVXRibbonInfoParser@2@@Z" PURGE="-1" COMMENT="" />
    <EXPORT ORDINAL="11847" NAME="?Read@XElementFontComboBox@CMFCRibbonInfo@@UEAAHAEAVXRibbonInfoParser@2@@Z" PURGE="-1" COMMENT="" />
    <EXPORT ORDINAL="11846" NAME="?Read@XElementEdit@CMFCRibbonInfo@@UEAAHAEAVXRibbonInfoParser@2@@Z" PURGE="-1" COMMENT="" />
    <EXPORT ORDINAL="11845" NAME="?Read@XElementComboBox@CMFCRibbonInfo@@UEAAHAEAVXRibbonInfoParser@2@@Z" PURGE="-1" COMMENT="" />
    <EXPORT ORDINAL="11844" NAME="?Read@XElementButtonUndo@CMFCRibbonInfo@@UEAAHAEAVXRibbonInfoParser@2@@Z" PURGE="-1" COMMENT="" />
    <EXPORT ORDINAL="11843" NAME="?Read@XElementButtonMainPanel@CMFCRibbonInfo@@UEAAHAEAVXRibbonInfoParser@2@@Z" PURGE="-1" COMMENT="" />
    <EXPORT ORDINAL="11842" NAME="?Read@XElementButtonLinkCtrl@CMFCRibbonInfo@@UEAAHAEAVXRibbonInfoParser@2@@Z" PURGE="-1" COMMENT="" />
    <EXPORT ORDINAL="11841" NAME="?Read@XElementButtonLaunch@CMFCRibbonInfo@@UEAAHAEAVXRibbonInfoParser@2@@Z" PURGE="-1" COMMENT="" />
    <EXPORT ORDINAL="11840" NAME="?Read@XElementButtonGallery@CMFCRibbonInfo@@UEAAHAEAVXRibbonInfoParser@2@@Z" PURGE="-1" COMMENT="" />
    <EXPORT ORDINAL="11839" NAME="?Read@XElementButtonColor@CMFCRibbonInfo@@UEAAHAEAVXRibbonInfoParser@2@@Z" PURGE="-1" COMMENT="" />
    <EXPORT ORDINAL="11838" NAME="?Read@XElementButtonCheck@CMFCRibbonInfo@@UEAAHAEAVXRibbonInfoParser@2@@Z" PURGE="-1" COMMENT="" />
    <EXPORT ORDINAL="11837" NAME="?Read@XElementButtonApplication@CMFCRibbonInfo@@UEAAHAEAVXRibbonInfoParser@2@@Z" PURGE="-1" COMMENT="" />
    <EXPORT ORDINAL="11836" NAME="?Read@XElementButton@CMFCRibbonInfo@@UEAAHAEAVXRibbonInfoParser@2@@Z" PURGE="-1" COMMENT="" />
    <EXPORT ORDINAL="11835" NAME="?Read@XElement@CMFCRibbonInfo@@UEAAHAEAVXRibbonInfoParser@2@@Z" PURGE="-1" COMMENT="" />
    <EXPORT ORDINAL="11834" NAME="?Read@XContext@CMFCRibbonInfo@@UEAAHAEAVXRibbonInfoParser@2@@Z" PURGE="-1" COMMENT="" />
    <EXPORT ORDINAL="11833" NAME="?Read@XCategoryMain@CMFCRibbonInfo@@UEAAHAEAVXRibbonInfoParser@2@@Z" PURGE="-1" COMMENT="" />
    <EXPORT ORDINAL="11832" NAME="?Read@XCategory@CMFCRibbonInfo@@UEAAHAEAVXRibbonInfoParser@2@@Z" PURGE="-1" COMMENT="" />
    <EXPORT ORDINAL="11831" NAME="?Read@CStdioFile@@UEAAIPEAXI@Z" PURGE="-1" COMMENT="" />
    <EXPORT ORDINAL="11830" NAME="?Read@CSocketFile@@UEAAIPEAXI@Z" PURGE="-1" COMMENT="" />
    <EXPORT ORDINAL="11829" NAME="?Read@CSettingsStore@@UEAAHPEBDPEAPEAEPEAI@Z" PURGE="-1" COMMENT="" />
    <EXPORT ORDINAL="11828" NAME="?Read@CSettingsStore@@UEAAHPEBDAEAVCRect@@@Z" PURGE="-1" COMMENT="" />
    <EXPORT ORDINAL="11827" NAME="?Read@CSettingsStore@@UEAAHPEBDAEAVCObject@@@Z" PURGE="-1" COMMENT="" />
    <EXPORT ORDINAL="11826" NAME="?Read@CSettingsStore@@UEAAHPEBDAEAV?$CStringT@DV?$StrTraitMFC_DLL@DV?$ChTraitsCRT@D@ATL@@@@@ATL@@@Z" PURGE="-1" COMMENT="" />
    <EXPORT ORDINAL="11825" NAME="?Read@CSettingsStore@@UEAAHPEBDAEAPEAVCObject@@@Z" PURGE="-1" COMMENT="" />
    <EXPORT ORDINAL="11824" NAME="?Read@CSettingsStore@@UEAAHPEBDAEAK@Z" PURGE="-1" COMMENT="" />
    <EXPORT ORDINAL="11823" NAME="?Read@CSettingsStore@@UEAAHPEBDAEAH@Z" PURGE="-1" COMMENT="" />
    <EXPORT ORDINAL="11822" NAME="?Read@COleStreamFile@@UEAAIPEAXI@Z" PURGE="-1" COMMENT="" />
    <EXPORT ORDINAL="11818" NAME="?Read@CMemFile@@UEAAIPEAXI@Z" PURGE="-1" COMMENT="" />
    <EXPORT ORDINAL="11821" NAME="?Read@CMFCRibbonInfo@@UEAAHPEAUIStream@@@Z" PURGE="-1" COMMENT="" />
    <EXPORT ORDINAL="11820" NAME="?Read@CMFCRibbonInfo@@UEAAHPEAEI@Z" PURGE="-1" COMMENT="" />
    <EXPORT ORDINAL="11819" NAME="?Read@CMFCRibbonInfo@@MEAAHAEAVXRibbonInfoParser@1@@Z" PURGE="-1" COMMENT="" />
    <EXPORT ORDINAL="11817" NAME="?Read@CInternetFile@@UEAAIPEAXI@Z" PURGE="-1" COMMENT="" />
    <EXPORT ORDINAL="11816" NAME="?Read@CImageList@@QEAAHPEAVCArchive@@@Z" PURGE="-1" COMMENT="" />
    <EXPORT ORDINAL="11815" NAME="?Read@CFile@@UEAAIPEAXI@Z" PURGE="-1" COMMENT="" />
    <EXPORT ORDINAL="11814" NAME="?Read@CAsyncMonikerFile@@UEAAIPEAXI@Z" PURGE="-1" COMMENT="" />
    <EXPORT ORDINAL="11813" NAME="?Read@CArchiveStream@@UEAAJPEAXKPEAK@Z" PURGE="-1" COMMENT="" />
    <EXPORT ORDINAL="11812" NAME="?Read@CArchive@@QEAAIPEAXI@Z" PURGE="-1" COMMENT="" />
    <EXPORT ORDINAL="11811" NAME="?ReactivateAndUndo@XOleInPlaceObject@COleServerDoc@@UEAAJXZ" PURGE="-1" COMMENT="" />
    <EXPORT ORDINAL="11810" NAME="?ReactivateAndUndo@XOleInPlaceObject@COleControl@@UEAAJXZ" PURGE="-1" COMMENT="" />
    <EXPORT ORDINAL="11809" NAME="?ReactivateAndUndo@COleClientItem@@QEAAHXZ" PURGE="-1" COMMENT="" />
    <EXPORT ORDINAL="12338" NAME="?ReSubclassControl@CMFCControlContainer@@QEAAHPEAUHWND__@@GAEAVCWnd@@@Z" PURGE="-1" COMMENT="" />
    <EXPORT ORDINAL="11963" NAME="?ReDockControlBar@CFrameWnd@@QEAAXPEAVCControlBar@@PEAVCDockBar@@PEBUtagRECT@@@Z" PURGE="-1" COMMENT="" />
    <EXPORT ORDINAL="11962" NAME="?ReDockControlBar@CDockBar@@QEAAXPEAVCControlBar@@PEBUtagRECT@@@Z" PURGE="-1" COMMENT="" />
    <EXPORT ORDINAL="11956" NAME="?ReCreate@CHwndRenderTarget@@QEAAHPEAUHWND__@@@Z" PURGE="-1" COMMENT="" />
    <EXPORT ORDINAL="11955" NAME="?ReCreate@CD2DResource@@MEAAJPEAVCRenderTarget@@@Z" PURGE="-1" COMMENT="" />
    <EXPORT ORDINAL="12376" NAME="?RGBtoHSV@CDrawingManager@@SAXKPEAN00@Z" PURGE="-1" COMMENT="" />
    <EXPORT ORDINAL="12375" NAME="?RGBtoHSL@CDrawingManager@@SAXKPEAN00@Z" PURGE="-1" COMMENT="" />
    <EXPORT ORDINAL="12373" NAME="?RFX_Text_Bulk@@YAXPEAVCFieldExchange@@PEBDPEAPEA_WPEAPEA_JH@Z" PURGE="-1" COMMENT="" />
    <EXPORT ORDINAL="12374" NAME="?RFX_Text_Bulk@@YAXPEAVCFieldExchange@@PEBDPEAPEADPEAPEA_JH@Z" PURGE="-1" COMMENT="" />
    <EXPORT ORDINAL="12371" NAME="?RFX_Text@@YAXPEAVCFieldExchange@@PEBDPEA_WHHF@Z" PURGE="-1" COMMENT="" />
    <EXPORT ORDINAL="12372" NAME="?RFX_Text@@YAXPEAVCFieldExchange@@PEBDPEADHHF@Z" PURGE="-1" COMMENT="" />
    <EXPORT ORDINAL="12369" NAME="?RFX_Text@@YAXPEAVCFieldExchange@@PEBDAEAV?$CStringT@_WV?$StrTraitMFC_DLL@_WV?$ChTraitsCRT@_W@ATL@@@@@ATL@@HHF@Z" PURGE="-1" COMMENT="" />
    <EXPORT ORDINAL="12370" NAME="?RFX_Text@@YAXPEAVCFieldExchange@@PEBDAEAV?$CStringT@DV?$StrTraitMFC_DLL@DV?$ChTraitsCRT@D@ATL@@@@@ATL@@HHF@Z" PURGE="-1" COMMENT="" />
    <EXPORT ORDINAL="12368" NAME="?RFX_Single_Bulk@@YAXPEAVCFieldExchange@@PEBDPEAPEAMPEAPEA_J@Z" PURGE="-1" COMMENT="" />
    <EXPORT ORDINAL="12367" NAME="?RFX_Single@@YAXPEAVCFieldExchange@@PEBDAEAM@Z" PURGE="-1" COMMENT="" />
    <EXPORT ORDINAL="12365" NAME="?RFX_Long_Bulk@@YAXPEAVCFieldExchange@@PEBDPEAPEAJPEAPEA_J@Z" PURGE="-1" COMMENT="" />
    <EXPORT ORDINAL="12366" NAME="?RFX_LongBinary@@YAXPEAVCFieldExchange@@PEBDAEAVCLongBinary@@@Z" PURGE="-1" COMMENT="" />
    <EXPORT ORDINAL="12364" NAME="?RFX_Long@@YAXPEAVCFieldExchange@@PEBDAEAJ@Z" PURGE="-1" COMMENT="" />
    <EXPORT ORDINAL="12363" NAME="?RFX_Int_Bulk@@YAXPEAVCFieldExchange@@PEBDPEAPEAHPEAPEA_J@Z" PURGE="-1" COMMENT="" />
    <EXPORT ORDINAL="12362" NAME="?RFX_Int@@YAXPEAVCFieldExchange@@PEBDAEAH@Z" PURGE="-1" COMMENT="" />
    <EXPORT ORDINAL="12361" NAME="?RFX_Double_Bulk@@YAXPEAVCFieldExchange@@PEBDPEAPEANPEAPEA_J@Z" PURGE="-1" COMMENT="" />
    <EXPORT ORDINAL="12360" NAME="?RFX_Double@@YAXPEAVCFieldExchange@@PEBDAEAN@Z" PURGE="-1" COMMENT="" />
    <EXPORT ORDINAL="12359" NAME="?RFX_Date_Bulk@@YAXPEAVCFieldExchange@@PEBDPEAPEAUtagTIMESTAMP_STRUCT@@PEAPEA_J@Z" PURGE="-1" COMMENT="" />
    <EXPORT ORDINAL="12358" NAME="?RFX_Date@@YAXPEAVCFieldExchange@@PEBDAEAVCTime@ATL@@@Z" PURGE="-1" COMMENT="" />
    <EXPORT ORDINAL="12357" NAME="?RFX_Date@@YAXPEAVCFieldExchange@@PEBDAEAVCOleDateTime@ATL@@@Z" PURGE="-1" COMMENT="" />
    <EXPORT ORDINAL="12356" NAME="?RFX_Date@@YAXPEAVCFieldExchange@@PEBDAEAUtagTIMESTAMP_STRUCT@@@Z" PURGE="-1" COMMENT="" />
    <EXPORT ORDINAL="12355" NAME="?RFX_Byte_Bulk@@YAXPEAVCFieldExchange@@PEBDPEAPEAEPEAPEA_J@Z" PURGE="-1" COMMENT="" />
    <EXPORT ORDINAL="12354" NAME="?RFX_Byte@@YAXPEAVCFieldExchange@@PEBDAEAE@Z" PURGE="-1" COMMENT="" />
    <EXPORT ORDINAL="12353" NAME="?RFX_Bool_Bulk@@YAXPEAVCFieldExchange@@PEBDPEAPEAHPEAPEA_J@Z" PURGE="-1" COMMENT="" />
    <EXPORT ORDINAL="12352" NAME="?RFX_Bool@@YAXPEAVCFieldExchange@@PEBDAEAH@Z" PURGE="-1" COMMENT="" />
    <EXPORT ORDINAL="12351" NAME="?RFX_Binary_Bulk@@YAXPEAVCFieldExchange@@PEBDPEAPEAEPEAPEA_JH@Z" PURGE="-1" COMMENT="" />
    <EXPORT ORDINAL="12350" NAME="?RFX_Binary@@YAXPEAVCFieldExchange@@PEBDAEAVCByteArray@@_J@Z" PURGE="-1" COMMENT="" />
    <EXPORT ORDINAL="12349" NAME="?RFX_BigInt@@YAXPEAVCFieldExchange@@PEBDAEA_J@Z" PURGE="-1" COMMENT="" />
    <EXPORT ORDINAL="11808" NAME="?QuickActivate@XQuickActivate@COleControl@@UEAAJPEAUtagQACONTAINER@@PEAUtagQACONTROL@@@Z" PURGE="-1" COMMENT="" />
    <EXPORT ORDINAL="11807" NAME="?QuickActivate@COleControlSite@@UEAAHXZ" PURGE="-1" COMMENT="" />
    <EXPORT ORDINAL="11806" NAME="?QueryTextMetrics@CFontHolder@@QEAAXPEAUtagTEXTMETRICA@@@Z" PURGE="-1" COMMENT="" />
    <EXPORT ORDINAL="11805" NAME="?QueryStatusWB@CHtmlView@@QEBA?AW4OLECMDF@@W4OLECMDID@@@Z" PURGE="-1" COMMENT="" />
    <EXPORT ORDINAL="11804" NAME="?QueryStatus@XOleCommandTarget@COleFrameHook@@UEAAJPEBU_GUID@@KQEAU_tagOLECMD@@PEAU_tagOLECMDTEXT@@@Z" PURGE="-1" COMMENT="" />
    <EXPORT ORDINAL="11803" NAME="?QueryStatus@XOleCommandTarget@CDocObjectServer@@UEAAJPEBU_GUID@@KQEAU_tagOLECMD@@PEAU_tagOLECMDTEXT@@@Z" PURGE="-1" COMMENT="" />
    <EXPORT ORDINAL="11802" NAME="?QuerySinkInterface@XEventConnPt@COleControl@@UEAAJPEAUIUnknown@@PEAPEAX@Z" PURGE="-1" COMMENT="" />
    <EXPORT ORDINAL="11801" NAME="?QuerySinkInterface@CConnectionPoint@@UEAAJPEAUIUnknown@@PEAPEAX@Z" PURGE="-1" COMMENT="" />
    <EXPORT ORDINAL="11800" NAME="?QuerySiblings@CPropertyPage@@QEAA_J_K_J@Z" PURGE="-1" COMMENT="" />
    <EXPORT ORDINAL="11799" NAME="?QueryRestoreAutosavedDocuments@CDataRecoveryHandler@@UEAAXXZ" PURGE="-1" COMMENT="" />
    <EXPORT ORDINAL="11798" NAME="?QueryOption@CInternetSession@@QEBAHKPEAXPEAK@Z" PURGE="-1" COMMENT="" />
    <EXPORT ORDINAL="11797" NAME="?QueryOption@CInternetSession@@QEBAHKAEAK@Z" PURGE="-1" COMMENT="" />
    <EXPORT ORDINAL="11796" NAME="?QueryOption@CInternetFile@@QEBAHKPEAXPEAK@Z" PURGE="-1" COMMENT="" />
    <EXPORT ORDINAL="11795" NAME="?QueryOption@CInternetFile@@QEBAHKAEAK@Z" PURGE="-1" COMMENT="" />
    <EXPORT ORDINAL="11794" NAME="?QueryOption@CInternetConnection@@QEBAHKPEAXPEAK@Z" PURGE="-1" COMMENT="" />
    <EXPORT ORDINAL="11793" NAME="?QueryOption@CInternetConnection@@QEBAHKAEAK@Z" PURGE="-1" COMMENT="" />
    <EXPORT ORDINAL="11792" NAME="?QueryInterface@CPrintDialogEx@@UEAAJAEBU_GUID@@PEAPEAX@Z" PURGE="-1" COMMENT="" />
    <EXPORT ORDINAL="11791" NAME="?QueryInterface@COleUILinkInfo@@UEAAJAEBU_GUID@@PEAPEAX@Z" PURGE="-1" COMMENT="" />
    <EXPORT ORDINAL="11790" NAME="?QueryInterface@COleDispatchImpl@@UEAAJAEBU_GUID@@PEAPEAX@Z" PURGE="-1" COMMENT="" />
    <EXPORT ORDINAL="11789" NAME="?QueryInterface@COleConnPtContainer@@UEAAJAEBU_GUID@@PEAPEAX@Z" PURGE="-1" COMMENT="" />
    <EXPORT ORDINAL="11788" NAME="?QueryInterface@CInnerUnknown@@UEAAJAEBU_GUID@@PEAPEAX@Z" PURGE="-1" COMMENT="" />
    <EXPORT ORDINAL="11787" NAME="?QueryInterface@CDHtmlElementEventSink@@UEAAJAEBU_GUID@@PEAPEAX@Z" PURGE="-1" COMMENT="" />
    <EXPORT ORDINAL="11786" NAME="?QueryInterface@CDHtmlControlSink@@UEAAJAEBU_GUID@@PEAPEAX@Z" PURGE="-1" COMMENT="" />
    <EXPORT ORDINAL="11785" NAME="?QueryInterface@CBrowserControlSite@@MEAAJAEBU_GUID@@PEAPEAX@Z" PURGE="-1" COMMENT="" />
    <EXPORT ORDINAL="11784" NAME="?QueryInterface@CBlobProperty@@UEAAJAEBU_GUID@@PEAPEAX@Z" PURGE="-1" COMMENT="" />
    <EXPORT ORDINAL="11783" NAME="?QueryInterface@CArchiveStream@@UEAAJAEBU_GUID@@PEAPEAX@Z" PURGE="-1" COMMENT="" />
    <EXPORT ORDINAL="11782" NAME="?QueryInsertObject@XRichEditOleCallback@CRichEditView@@UEAAJPEAU_GUID@@PEAUIStorage@@J@Z" PURGE="-1" COMMENT="" />
    <EXPORT ORDINAL="11781" NAME="?QueryInfoStatusCode@CHttpFile@@QEBAHAEAK@Z" PURGE="-1" COMMENT="" />
    <EXPORT ORDINAL="11780" NAME="?QueryInfo@CHttpFile@@QEBAHKPEAXPEAK1@Z" PURGE="-1" COMMENT="" />
    <EXPORT ORDINAL="11779" NAME="?QueryInfo@CHttpFile@@QEBAHKPEAU_SYSTEMTIME@@PEAK@Z" PURGE="-1" COMMENT="" />
    <EXPORT ORDINAL="11778" NAME="?QueryInfo@CHttpFile@@QEBAHKAEAV?$CStringT@DV?$StrTraitMFC_DLL@DV?$ChTraitsCRT@D@ATL@@@@@ATL@@PEAK@Z" PURGE="-1" COMMENT="" />
    <EXPORT ORDINAL="11777" NAME="?QueryInfo@CHttpFile@@QEBAHKAEAKPEAK@Z" PURGE="-1" COMMENT="" />
    <EXPORT ORDINAL="11776" NAME="?QueryHitRect@XViewObject@COleControl@@UEAAJKPEBUtagRECT@@0JPEAK@Z" PURGE="-1" COMMENT="" />
    <EXPORT ORDINAL="11775" NAME="?QueryHitPoint@XViewObject@COleControl@@UEAAJKPEBUtagRECT@@UtagPOINT@@JPEAK@Z" PURGE="-1" COMMENT="" />
    <EXPORT ORDINAL="11774" NAME="?QueryGetData@XDataObject@COleServerItem@@UEAAJPEAUtagFORMATETC@@@Z" PURGE="-1" COMMENT="" />
    <EXPORT ORDINAL="11773" NAME="?QueryGetData@XDataObject@COleServerDoc@@UEAAJPEAUtagFORMATETC@@@Z" PURGE="-1" COMMENT="" />
    <EXPORT ORDINAL="11772" NAME="?QueryGetData@XDataObject@COleDataSource@@UEAAJPEAUtagFORMATETC@@@Z" PURGE="-1" COMMENT="" />
    <EXPORT ORDINAL="11771" NAME="?QueryGetData@XDataObject@COleControl@@UEAAJPEAUtagFORMATETC@@@Z" PURGE="-1" COMMENT="" />
    <EXPORT ORDINAL="11770" NAME="?QueryFormsCommand@CHtmlView@@QEAAJKPEAH00@Z" PURGE="-1" COMMENT="" />
    <EXPORT ORDINAL="11769" NAME="?QueryFocus@XPreviewHandler@CDocument@@UEAAJPEAPEAUHWND__@@@Z" PURGE="-1" COMMENT="" />
    <EXPORT ORDINAL="11768" NAME="?QueryDefHandler@COleControl@@IEAAPEAXAEBU_GUID@@@Z" PURGE="-1" COMMENT="" />
    <EXPORT ORDINAL="11767" NAME="?QueryContinueDrag@XDropSource@COleDropSource@@UEAAJHK@Z" PURGE="-1" COMMENT="" />
    <EXPORT ORDINAL="11766" NAME="?QueryContinueDrag@COleDropSource@@UEAAJHK@Z" PURGE="-1" COMMENT="" />
    <EXPORT ORDINAL="11765" NAME="?QueryContinueDrag@CMFCToolBarDropSource@@UEAAJHK@Z" PURGE="-1" COMMENT="" />
    <EXPORT ORDINAL="11764" NAME="?QueryCommand@COleDocObjectItem@@QEAAJKPEAKPEAU_tagOLECMDTEXT@@PEBU_GUID@@@Z" PURGE="-1" COMMENT="" />
    <EXPORT ORDINAL="11763" NAME="?QueryAggregates@CCmdTarget@@QEAAPEAUIUnknown@@PEBX@Z" PURGE="-1" COMMENT="" />
    <EXPORT ORDINAL="11762" NAME="?QueryAcceptData@XRichEditOleCallback@CRichEditView@@UEAAJPEAUIDataObject@@PEAGKHPEAX@Z" PURGE="-1" COMMENT="" />
    <EXPORT ORDINAL="11761" NAME="?QueryAcceptData@CRichEditView@@MEAAJPEAUIDataObject@@PEAGKHPEAX@Z" PURGE="-1" COMMENT="" />
    <EXPORT ORDINAL="11731" NAME="?PutProperty@CHtmlView@@QEAAXPEBDAEBUtagVARIANT@@@Z" PURGE="-1" COMMENT="" />
    <EXPORT ORDINAL="11730" NAME="?PutFile@CFtpConnection@@QEAAHPEBD0K_K@Z" PURGE="-1" COMMENT="" />
    <EXPORT ORDINAL="11729" NAME="?PutElement@COleSafeArray@@QEAAXPEAJPEAX@Z" PURGE="-1" COMMENT="" />
    <EXPORT ORDINAL="11724" NAME="?PushStackArgs@CCmdTarget@@IEAAJPEAEPEBEPEAXGPEAUtagDISPPARAMS@@PEAIPEAUtagVARIANT@@PEAVCVariantBoolConverter@@@Z" PURGE="-1" COMMENT="" />
    <EXPORT ORDINAL="11723" NAME="?PushLayer@CRenderTarget@@QEAAXAEBUD2D1_LAYER_PARAMETERS@@AEAVCD2DLayer@@@Z" PURGE="-1" COMMENT="" />
    <EXPORT ORDINAL="11722" NAME="?PushChar@CMFCPropertyGridProperty@@UEAAHI@Z" PURGE="-1" COMMENT="" />
    <EXPORT ORDINAL="11721" NAME="?PushAxisAlignedClip@CRenderTarget@@QEAAXAEBVCD2DRectF@@W4D2D1_ANTIALIAS_MODE@@@Z" PURGE="-1" COMMENT="" />
    <EXPORT ORDINAL="11720" NAME="?PumpMessages@CSocket@@MEAAHI@Z" PURGE="-1" COMMENT="" />
    <EXPORT ORDINAL="11719" NAME="?PumpMessage@CWinThread@@UEAAHXZ" PURGE="-1" COMMENT="" />
    <EXPORT ORDINAL="11717" NAME="?PtrOfIndex@COleSafeArray@@QEAAXPEAJPEAPEAX@Z" PURGE="-1" COMMENT="" />
    <EXPORT ORDINAL="11718" NAME="?PtVisible@CMetaFileDC@@UEBAHHH@Z" PURGE="-1" COMMENT="" />
    <EXPORT ORDINAL="11716" NAME="?ProcessWndProcException@CWinThread@@UEAA_JPEAVCException@@PEBUtagMSG@@@Z" PURGE="-1" COMMENT="" />
    <EXPORT ORDINAL="11715" NAME="?ProcessWndProcException@CWinApp@@UEAA_JPEAVCException@@PEBUtagMSG@@@Z" PURGE="-1" COMMENT="" />
    <EXPORT ORDINAL="11714" NAME="?ProcessShellCommand@CWinApp@@QEAAHAEAVCCommandLineInfo@@@Z" PURGE="-1" COMMENT="" />
    <EXPORT ORDINAL="11713" NAME="?ProcessPaneContextMenuCommand@CDockingManager@@QEAAHIHPEAXPEAUAFX_CMDHANDLERINFO@@@Z" PURGE="-1" COMMENT="" />
    <EXPORT ORDINAL="11712" NAME="?ProcessMouseWheel@CFrameImpl@@IEAAH_K_J@Z" PURGE="-1" COMMENT="" />
    <EXPORT ORDINAL="11711" NAME="?ProcessMouseMove@CFrameImpl@@IEAAHUtagPOINT@@@Z" PURGE="-1" COMMENT="" />
    <EXPORT ORDINAL="11710" NAME="?ProcessMouseMove@CDialogImpl@@IEAAHUtagPOINT@@@Z" PURGE="-1" COMMENT="" />
    <EXPORT ORDINAL="11709" NAME="?ProcessMouseClick@CFrameImpl@@IEAAHIUtagPOINT@@PEAUHWND__@@@Z" PURGE="-1" COMMENT="" />
    <EXPORT ORDINAL="11708" NAME="?ProcessMouseClick@CDialogImpl@@IEAAHUtagPOINT@@@Z" PURGE="-1" COMMENT="" />
    <EXPORT ORDINAL="11707" NAME="?ProcessMessageFilter@CWinThread@@UEAAHHPEAUtagMSG@@@Z" PURGE="-1" COMMENT="" />
    <EXPORT ORDINAL="11706" NAME="?ProcessKeyboard@CFrameImpl@@IEAAHHPEAH@Z" PURGE="-1" COMMENT="" />
    <EXPORT ORDINAL="11705" NAME="?ProcessKey@CMFCRibbonBar@@IEAAHH@Z" PURGE="-1" COMMENT="" />
    <EXPORT ORDINAL="11704" NAME="?ProcessHelpMsg@CFrameWnd@@IEAAHAEAUtagMSG@@PEAK@Z" PURGE="-1" COMMENT="" />
    <EXPORT ORDINAL="11703" NAME="?ProcessCommand@CMFCToolBar@@QEAAHPEAVCMFCToolBarButton@@@Z" PURGE="-1" COMMENT="" />
    <EXPORT ORDINAL="11702" NAME="?ProcessCommand@CMFCDesktopAlertWnd@@QEAAHPEAUHWND__@@@Z" PURGE="-1" COMMENT="" />
    <EXPORT ORDINAL="11701" NAME="?ProcessClipboardAccelerators@CMFCRibbonRichEditCtrl@@IEAAHI@Z" PURGE="-1" COMMENT="" />
    <EXPORT ORDINAL="11700" NAME="?ProcessClipboardAccelerators@CMFCPropertyGridCtrl@@MEAAHI@Z" PURGE="-1" COMMENT="" />
    <EXPORT ORDINAL="11699" NAME="?ProcessAuxQueue@CSocket@@SAHXZ" PURGE="-1" COMMENT="" />
    <EXPORT ORDINAL="11698" NAME="?Process@COleException@@SAJPEBVCException@@@Z" PURGE="-1" COMMENT="" />
    <EXPORT ORDINAL="11697" NAME="?Process@COleDispatchException@@SAXPEAUtagEXCEPINFO@@PEBVCException@@@Z" PURGE="-1" COMMENT="" />
    <EXPORT ORDINAL="11692" NAME="?PrinterDPtoScreenDP@CPreviewDC@@QEBAXPEAUtagPOINT@@@Z" PURGE="-1" COMMENT="" />
    <EXPORT ORDINAL="11696" NAME="?PrintPage@CRichEditView@@QEAAJPEAVCDC@@JJ@Z" PURGE="-1" COMMENT="" />
    <EXPORT ORDINAL="11695" NAME="?PrintKeyMap@CMFCKeyMapDialog@@MEAAXXZ" PURGE="-1" COMMENT="" />
    <EXPORT ORDINAL="11694" NAME="?PrintInsideRect@CRichEditView@@QEAAJPEAVCDC@@AEAUtagRECT@@JJH@Z" PURGE="-1" COMMENT="" />
    <EXPORT ORDINAL="11693" NAME="?PrintInsideRect@CEditView@@QEAAIPEAVCDC@@AEAUtagRECT@@II@Z" PURGE="-1" COMMENT="" />
    <EXPORT ORDINAL="11691" NAME="?Print@XPrint@CDocObjectServer@@UEAAJKPEAPEAUtagDVTARGETDEVICE@@PEAPEAUtagPAGESET@@PEAUtagSTGMEDIUM@@PEAUIContinueCallback@@JPEAJ4@Z" PURGE="-1" COMMENT="" />
    <EXPORT ORDINAL="11690" NAME="?PrevMenu@CMFCToolBar@@UEAAHXZ" PURGE="-1" COMMENT="" />
    <EXPORT ORDINAL="11618" NAME="?PrepareWrite@?$CSimpleStringT@_W$00@ATL@@AEAAPEA_WH@Z" PURGE="-1" COMMENT="" />
    <EXPORT ORDINAL="11619" NAME="?PrepareWrite@?$CSimpleStringT@D$00@ATL@@AEAAPEADH@Z" PURGE="-1" COMMENT="" />
    <EXPORT ORDINAL="11620" NAME="?PrepareWrite2@?$CSimpleStringT@_W$00@ATL@@AEAAXH@Z" PURGE="-1" COMMENT="" />
    <EXPORT ORDINAL="11621" NAME="?PrepareWrite2@?$CSimpleStringT@D$00@ATL@@AEAAXH@Z" PURGE="-1" COMMENT="" />
    <EXPORT ORDINAL="11617" NAME="?PrepareUpdateHstmt@CRecordset@@IEAAXXZ" PURGE="-1" COMMENT="" />
    <EXPORT ORDINAL="11616" NAME="?PrepareToDock@CPane@@UEAAXPEAVCDockSite@@W4AFX_DOCK_METHOD@@@Z" PURGE="-1" COMMENT="" />
    <EXPORT ORDINAL="11615" NAME="?PrepareShadowMask@CDrawingManager@@SAPEAUHBITMAP__@@HKHH@Z" PURGE="-1" COMMENT="" />
    <EXPORT ORDINAL="11614" NAME="?PrepareOleCtrl@CDataExchange@@QEAAPEAVCOleControlSite@@H@Z" PURGE="-1" COMMENT="" />
    <EXPORT ORDINAL="11613" NAME="?PrepareForHelp@CWnd@@QEAAXXZ" PURGE="-1" COMMENT="" />
    <EXPORT ORDINAL="11612" NAME="?PrepareEditCtrl@CDataExchange@@QEAAPEAUHWND__@@H@Z" PURGE="-1" COMMENT="" />
    <EXPORT ORDINAL="11611" NAME="?PrepareDrawImage@CMFCToolBarImages@@QEAAHAEAUtagAFXDrawState@@VCSize@@H@Z" PURGE="-1" COMMENT="" />
    <EXPORT ORDINAL="11610" NAME="?PrepareDrag@CMFCToolBarButton@@UEAAHAEAVCOleDataSource@@@Z" PURGE="-1" COMMENT="" />
    <EXPORT ORDINAL="11609" NAME="?PrepareCtrl@CDataExchange@@QEAAPEAUHWND__@@H@Z" PURGE="-1" COMMENT="" />
    <EXPORT ORDINAL="11608" NAME="?PrepareAndExecute@CRecordset@@IEAAXXZ" PURGE="-1" COMMENT="" />
    <EXPORT ORDINAL="11558" NAME="?Preallocate@?$CSimpleStringT@_W$00@ATL@@QEAAXH@Z" PURGE="-1" COMMENT="" />
    <EXPORT ORDINAL="11559" NAME="?Preallocate@?$CSimpleStringT@D$00@ATL@@QEAAXH@Z" PURGE="-1" COMMENT="" />
    <EXPORT ORDINAL="11689" NAME="?PreUnsubclassControl@CMFCControlContainer@@IEAAXPEAVCWnd@@@Z" PURGE="-1" COMMENT="" />
    <EXPORT ORDINAL="11688" NAME="?PreTranslateMessage@CWnd@@UEAAHPEAUtagMSG@@@Z" PURGE="-1" COMMENT="" />
    <EXPORT ORDINAL="11687" NAME="?PreTranslateMessage@CWinThread@@UEAAHPEAUtagMSG@@@Z" PURGE="-1" COMMENT="" />
    <EXPORT ORDINAL="11686" NAME="?PreTranslateMessage@CVSListBox@@UEAAHPEAUtagMSG@@@Z" PURGE="-1" COMMENT="" />
    <EXPORT ORDINAL="11685" NAME="?PreTranslateMessage@CPropertySheet@@UEAAHPEAUtagMSG@@@Z" PURGE="-1" COMMENT="" />
    <EXPORT ORDINAL="11684" NAME="?PreTranslateMessage@CPropertyPage@@MEAAHPEAUtagMSG@@@Z" PURGE="-1" COMMENT="" />
    <EXPORT ORDINAL="11683" NAME="?PreTranslateMessage@CPaneFrameWnd@@UEAAHPEAUtagMSG@@@Z" PURGE="-1" COMMENT="" />
    <EXPORT ORDINAL="11682" NAME="?PreTranslateMessage@COlePropertyPage@@MEAAHPEAUtagMSG@@@Z" PURGE="-1" COMMENT="" />
    <EXPORT ORDINAL="11681" NAME="?PreTranslateMessage@COleIPFrameWndEx@@UEAAHPEAUtagMSG@@@Z" PURGE="-1" COMMENT="" />
    <EXPORT ORDINAL="11680" NAME="?PreTranslateMessage@COleIPFrameWnd@@UEAAHPEAUtagMSG@@@Z" PURGE="-1" COMMENT="" />
    <EXPORT ORDINAL="11679" NAME="?PreTranslateMessage@COleDocIPFrameWndEx@@UEAAHPEAUtagMSG@@@Z" PURGE="-1" COMMENT="" />
    <EXPORT ORDINAL="11678" NAME="?PreTranslateMessage@CMFCToolBarEditCtrl@@UEAAHPEAUtagMSG@@@Z" PURGE="-1" COMMENT="" />
    <EXPORT ORDINAL="11677" NAME="?PreTranslateMessage@CMFCToolBarComboBoxEdit@@UEAAHPEAUtagMSG@@@Z" PURGE="-1" COMMENT="" />
    <EXPORT ORDINAL="11676" NAME="?PreTranslateMessage@CMFCToolBar@@MEAAHPEAUtagMSG@@@Z" PURGE="-1" COMMENT="" />
    <EXPORT ORDINAL="11675" NAME="?PreTranslateMessage@CMFCTasksPane@@UEAAHPEAUtagMSG@@@Z" PURGE="-1" COMMENT="" />
    <EXPORT ORDINAL="11674" NAME="?PreTranslateMessage@CMFCTabCtrl@@UEAAHPEAUtagMSG@@@Z" PURGE="-1" COMMENT="" />
    <EXPORT ORDINAL="11673" NAME="?PreTranslateMessage@CMFCRibbonRichEditCtrl@@UEAAHPEAUtagMSG@@@Z" PURGE="-1" COMMENT="" />
    <EXPORT ORDINAL="11672" NAME="?PreTranslateMessage@CMFCRibbonPanelMenuBar@@MEAAHPEAUtagMSG@@@Z" PURGE="-1" COMMENT="" />
    <EXPORT ORDINAL="11671" NAME="?PreTranslateMessage@CMFCRibbonBar@@UEAAHPEAUtagMSG@@@Z" PURGE="-1" COMMENT="" />
    <EXPORT ORDINAL="11670" NAME="?PreTranslateMessage@CMFCPropertySheet@@UEAAHPEAUtagMSG@@@Z" PURGE="-1" COMMENT="" />
    <EXPORT ORDINAL="11669" NAME="?PreTranslateMessage@CMFCPropertyPage@@UEAAHPEAUtagMSG@@@Z" PURGE="-1" COMMENT="" />
    <EXPORT ORDINAL="11668" NAME="?PreTranslateMessage@CMFCPropertyGridToolTipCtrl@@UEAAHPEAUtagMSG@@@Z" PURGE="-1" COMMENT="" />
    <EXPORT ORDINAL="11667" NAME="?PreTranslateMessage@CMFCPropertyGridCtrl@@UEAAHPEAUtagMSG@@@Z" PURGE="-1" COMMENT="" />
    <EXPORT ORDINAL="11666" NAME="?PreTranslateMessage@CMFCPopupMenu@@UEAAHPEAUtagMSG@@@Z" PURGE="-1" COMMENT="" />
    <EXPORT ORDINAL="11665" NAME="?PreTranslateMessage@CMFCOutlookBarPane@@MEAAHPEAUtagMSG@@@Z" PURGE="-1" COMMENT="" />
    <EXPORT ORDINAL="11664" NAME="?PreTranslateMessage@CMFCMenuButton@@UEAAHPEAUtagMSG@@@Z" PURGE="-1" COMMENT="" />
    <EXPORT ORDINAL="11663" NAME="?PreTranslateMessage@CMFCMenuBar@@UEAAHPEAUtagMSG@@@Z" PURGE="-1" COMMENT="" />
    <EXPORT ORDINAL="11662" NAME="?PreTranslateMessage@CMFCLinkCtrl@@MEAAHPEAUtagMSG@@@Z" PURGE="-1" COMMENT="" />
    <EXPORT ORDINAL="11661" NAME="?PreTranslateMessage@CMFCFontComboBox@@UEAAHPEAUtagMSG@@@Z" PURGE="-1" COMMENT="" />
    <EXPORT ORDINAL="11660" NAME="?PreTranslateMessage@CMFCEditBrowseCtrl@@UEAAHPEAUtagMSG@@@Z" PURGE="-1" COMMENT="" />
    <EXPORT ORDINAL="11659" NAME="?PreTranslateMessage@CMFCDesktopAlertDialog@@UEAAHPEAUtagMSG@@@Z" PURGE="-1" COMMENT="" />
    <EXPORT ORDINAL="11658" NAME="?PreTranslateMessage@CMFCColorPropertySheet@@MEAAHPEAUtagMSG@@@Z" PURGE="-1" COMMENT="" />
    <EXPORT ORDINAL="11657" NAME="?PreTranslateMessage@CMFCColorDialog@@UEAAHPEAUtagMSG@@@Z" PURGE="-1" COMMENT="" />
    <EXPORT ORDINAL="11656" NAME="?PreTranslateMessage@CMFCColorBar@@MEAAHPEAUtagMSG@@@Z" PURGE="-1" COMMENT="" />
    <EXPORT ORDINAL="11655" NAME="?PreTranslateMessage@CMFCCaptionBar@@MEAAHPEAUtagMSG@@@Z" PURGE="-1" COMMENT="" />
    <EXPORT ORDINAL="11654" NAME="?PreTranslateMessage@CMFCButton@@UEAAHPEAUtagMSG@@@Z" PURGE="-1" COMMENT="" />
    <EXPORT ORDINAL="11653" NAME="?PreTranslateMessage@CMFCBaseTabCtrl@@UEAAHPEAUtagMSG@@@Z" PURGE="-1" COMMENT="" />
    <EXPORT ORDINAL="11652" NAME="?PreTranslateMessage@CMFCAcceleratorKeyAssignCtrl@@UEAAHPEAUtagMSG@@@Z" PURGE="-1" COMMENT="" />
    <EXPORT ORDINAL="11651" NAME="?PreTranslateMessage@CMDIFrameWndEx@@UEAAHPEAUtagMSG@@@Z" PURGE="-1" COMMENT="" />
    <EXPORT ORDINAL="11650" NAME="?PreTranslateMessage@CMDIFrameWnd@@UEAAHPEAUtagMSG@@@Z" PURGE="-1" COMMENT="" />
    <EXPORT ORDINAL="11649" NAME="?PreTranslateMessage@CMDIChildWndEx@@UEAAHPEAUtagMSG@@@Z" PURGE="-1" COMMENT="" />
    <EXPORT ORDINAL="11648" NAME="?PreTranslateMessage@CMDIChildWnd@@UEAAHPEAUtagMSG@@@Z" PURGE="-1" COMMENT="" />
    <EXPORT ORDINAL="11647" NAME="?PreTranslateMessage@CHtmlView@@UEAAHPEAUtagMSG@@@Z" PURGE="-1" COMMENT="" />
    <EXPORT ORDINAL="11646" NAME="?PreTranslateMessage@CFrameWndEx@@UEAAHPEAUtagMSG@@@Z" PURGE="-1" COMMENT="" />
    <EXPORT ORDINAL="11645" NAME="?PreTranslateMessage@CFrameWnd@@UEAAHPEAUtagMSG@@@Z" PURGE="-1" COMMENT="" />
    <EXPORT ORDINAL="11644" NAME="?PreTranslateMessage@CFormView@@MEAAHPEAUtagMSG@@@Z" PURGE="-1" COMMENT="" />
    <EXPORT ORDINAL="11643" NAME="?PreTranslateMessage@CDockablePane@@UEAAHPEAUtagMSG@@@Z" PURGE="-1" COMMENT="" />
    <EXPORT ORDINAL="11642" NAME="?PreTranslateMessage@CDialogImpl@@IEAAHPEAUtagMSG@@@Z" PURGE="-1" COMMENT="" />
    <EXPORT ORDINAL="11641" NAME="?PreTranslateMessage@CDialogEx@@UEAAHPEAUtagMSG@@@Z" PURGE="-1" COMMENT="" />
    <EXPORT ORDINAL="11640" NAME="?PreTranslateMessage@CDialog@@UEAAHPEAUtagMSG@@@Z" PURGE="-1" COMMENT="" />
    <EXPORT ORDINAL="11639" NAME="?PreTranslateMessage@CControlBar@@UEAAHPEAUtagMSG@@@Z" PURGE="-1" COMMENT="" />
    <EXPORT ORDINAL="11638" NAME="?PreTranslateMessage@CBasePane@@UEAAHPEAUtagMSG@@@Z" PURGE="-1" COMMENT="" />
    <EXPORT ORDINAL="11637" NAME="?PreTranslateInput@CWnd@@QEAAHPEAUtagMSG@@@Z" PURGE="-1" COMMENT="" />
    <EXPORT ORDINAL="11636" NAME="?PreSubclassWindow@CWnd@@UEAAXXZ" PURGE="-1" COMMENT="" />
    <EXPORT ORDINAL="11635" NAME="?PreSubclassWindow@CVSListBoxBase@@MEAAXXZ" PURGE="-1" COMMENT="" />
    <EXPORT ORDINAL="11634" NAME="?PreSubclassWindow@CMFCToolBarsCommandsListBox@@MEAAXXZ" PURGE="-1" COMMENT="" />
    <EXPORT ORDINAL="11633" NAME="?PreSubclassWindow@CMFCShellTreeCtrl@@MEAAXXZ" PURGE="-1" COMMENT="" />
    <EXPORT ORDINAL="11632" NAME="?PreSubclassWindow@CMFCShellListCtrl@@MEAAXXZ" PURGE="-1" COMMENT="" />
    <EXPORT ORDINAL="11631" NAME="?PreSubclassWindow@CMFCPropertyGridCtrl@@MEAAXXZ" PURGE="-1" COMMENT="" />
    <EXPORT ORDINAL="11630" NAME="?PreSubclassWindow@CMFCListCtrl@@MEAAXXZ" PURGE="-1" COMMENT="" />
    <EXPORT ORDINAL="11629" NAME="?PreSubclassWindow@CMFCImagePaintArea@@MEAAXXZ" PURGE="-1" COMMENT="" />
    <EXPORT ORDINAL="11628" NAME="?PreSubclassWindow@CMFCHeaderCtrl@@MEAAXXZ" PURGE="-1" COMMENT="" />
    <EXPORT ORDINAL="11627" NAME="?PreSubclassWindow@CMFCFontComboBox@@MEAAXXZ" PURGE="-1" COMMENT="" />
    <EXPORT ORDINAL="11626" NAME="?PreSubclassWindow@CMFCColorPickerCtrl@@MEAAXXZ" PURGE="-1" COMMENT="" />
    <EXPORT ORDINAL="11625" NAME="?PreSubclassWindow@CMFCButton@@MEAAXXZ" PURGE="-1" COMMENT="" />
    <EXPORT ORDINAL="11624" NAME="?PreSubclassWindow@CMDIClientAreaWnd@@MEAAXXZ" PURGE="-1" COMMENT="" />
    <EXPORT ORDINAL="11623" NAME="?PreSubclassWindow@CDragListBox@@UEAAXXZ" PURGE="-1" COMMENT="" />
    <EXPORT ORDINAL="11622" NAME="?PreProcessPageTemplate@CPropertyPage@@IEAAXAEAU_PROPSHEETPAGEA@@H@Z" PURGE="-1" COMMENT="" />
    <EXPORT ORDINAL="11607" NAME="?PreMultiplyAlpha@CMFCToolBarImages@@SAHPEAUHBITMAP__@@H@Z" PURGE="-1" COMMENT="" />
    <EXPORT ORDINAL="11606" NAME="?PreMultiplyAlpha@CMFCToolBarImages@@IEAAHPEAUHBITMAP__@@@Z" PURGE="-1" COMMENT="" />
    <EXPORT ORDINAL="11605" NAME="?PreModalDialog@COleControl@@QEAAXPEAUHWND__@@@Z" PURGE="-1" COMMENT="" />
    <EXPORT ORDINAL="11604" NAME="?PreModal@CPrintDialogEx@@QEAAPEAUHWND__@@XZ" PURGE="-1" COMMENT="" />
    <EXPORT ORDINAL="11603" NAME="?PreModal@CDialog@@IEAAPEAUHWND__@@XZ" PURGE="-1" COMMENT="" />
    <EXPORT ORDINAL="11602" NAME="?PreMeasureItem@CCheckListBox@@IEAAXPEAUtagMEASUREITEMSTRUCT@@@Z" PURGE="-1" COMMENT="" />
    <EXPORT ORDINAL="11601" NAME="?PreLMouseDown@CMFCRibbonEdit@@UEAAHVCPoint@@@Z" PURGE="-1" COMMENT="" />
    <EXPORT ORDINAL="11600" NAME="?PreInitDialog@COleChangeSourceDialog@@UEAAXXZ" PURGE="-1" COMMENT="" />
    <EXPORT ORDINAL="11599" NAME="?PreInitDialog@CDialog@@MEAAXXZ" PURGE="-1" COMMENT="" />
    <EXPORT ORDINAL="11598" NAME="?PreDrawPage@CPageSetupDialog@@UEAAIGGPEAUtagPSDA@@@Z" PURGE="-1" COMMENT="" />
    <EXPORT ORDINAL="11597" NAME="?PreDrawItemThemed@CCheckListBox@@IEAA_NPEAVCDC@@AEAUtagDRAWITEMSTRUCT@@HH@Z" PURGE="-1" COMMENT="" />
    <EXPORT ORDINAL="11596" NAME="?PreDrawItemNonThemed@CCheckListBox@@IEAAXPEAVCDC@@AEAUtagDRAWITEMSTRUCT@@HH@Z" PURGE="-1" COMMENT="" />
    <EXPORT ORDINAL="11595" NAME="?PreDrawItemHelper@CCheckListBox@@IEAAXPEAUtagDRAWITEMSTRUCT@@@Z" PURGE="-1" COMMENT="" />
    <EXPORT ORDINAL="11594" NAME="?PreDrawItem@CCheckListBox@@IEAAXPEAUtagDRAWITEMSTRUCT@@@Z" PURGE="-1" COMMENT="" />
    <EXPORT ORDINAL="11593" NAME="?PreDeleteItem@CCheckListBox@@IEAAXPEAUtagDELETEITEMSTRUCT@@@Z" PURGE="-1" COMMENT="" />
    <EXPORT ORDINAL="11592" NAME="?PreCreateWindow@CWnd@@UEAAHAEAUtagCREATESTRUCTA@@@Z" PURGE="-1" COMMENT="" />
    <EXPORT ORDINAL="11591" NAME="?PreCreateWindow@CView@@MEAAHAEAUtagCREATESTRUCTA@@@Z" PURGE="-1" COMMENT="" />
    <EXPORT ORDINAL="11590" NAME="?PreCreateWindow@CTreeView@@UEAAHAEAUtagCREATESTRUCTA@@@Z" PURGE="-1" COMMENT="" />
    <EXPORT ORDINAL="11589" NAME="?PreCreateWindow@CStatusBar@@UEAAHAEAUtagCREATESTRUCTA@@@Z" PURGE="-1" COMMENT="" />
    <EXPORT ORDINAL="11588" NAME="?PreCreateWindow@CRichEditView@@MEAAHAEAUtagCREATESTRUCTA@@@Z" PURGE="-1" COMMENT="" />
    <EXPORT ORDINAL="11587" NAME="?PreCreateWindow@CPaneFrameWnd@@MEAAHAEAUtagCREATESTRUCTA@@@Z" PURGE="-1" COMMENT="" />
    <EXPORT ORDINAL="11586" NAME="?PreCreateWindow@COleIPFrameWndEx@@MEAAHAEAUtagCREATESTRUCTA@@@Z" PURGE="-1" COMMENT="" />
    <EXPORT ORDINAL="11585" NAME="?PreCreateWindow@COleDocIPFrameWndEx@@MEAAHAEAUtagCREATESTRUCTA@@@Z" PURGE="-1" COMMENT="" />
    <EXPORT ORDINAL="11584" NAME="?PreCreateWindow@COleCntrFrameWndEx@@MEAAHAEAUtagCREATESTRUCTA@@@Z" PURGE="-1" COMMENT="" />
    <EXPORT ORDINAL="11583" NAME="?PreCreateWindow@CMiniFrameWnd@@MEAAHAEAUtagCREATESTRUCTA@@@Z" PURGE="-1" COMMENT="" />
    <EXPORT ORDINAL="11582" NAME="?PreCreateWindow@CMFCStatusBar@@UEAAHAEAUtagCREATESTRUCTA@@@Z" PURGE="-1" COMMENT="" />
    <EXPORT ORDINAL="11581" NAME="?PreCreateWindow@CMFCRibbonStatusBar@@MEAAHAEAUtagCREATESTRUCTA@@@Z" PURGE="-1" COMMENT="" />
    <EXPORT ORDINAL="11580" NAME="?PreCreateWindow@CMFCRibbonBar@@MEAAHAEAUtagCREATESTRUCTA@@@Z" PURGE="-1" COMMENT="" />
    <EXPORT ORDINAL="11579" NAME="?PreCreateWindow@CMFCColorPickerCtrl@@MEAAHAEAUtagCREATESTRUCTA@@@Z" PURGE="-1" COMMENT="" />
    <EXPORT ORDINAL="11578" NAME="?PreCreateWindow@CMFCButton@@MEAAHAEAUtagCREATESTRUCTA@@@Z" PURGE="-1" COMMENT="" />
    <EXPORT ORDINAL="11577" NAME="?PreCreateWindow@CMDIFrameWndEx@@MEAAHAEAUtagCREATESTRUCTA@@@Z" PURGE="-1" COMMENT="" />
    <EXPORT ORDINAL="11576" NAME="?PreCreateWindow@CMDIFrameWnd@@UEAAHAEAUtagCREATESTRUCTA@@@Z" PURGE="-1" COMMENT="" />
    <EXPORT ORDINAL="11575" NAME="?PreCreateWindow@CMDIChildWndEx@@MEAAHAEAUtagCREATESTRUCTA@@@Z" PURGE="-1" COMMENT="" />
    <EXPORT ORDINAL="11574" NAME="?PreCreateWindow@CMDIChildWnd@@UEAAHAEAUtagCREATESTRUCTA@@@Z" PURGE="-1" COMMENT="" />
    <EXPORT ORDINAL="11573" NAME="?PreCreateWindow@CListView@@UEAAHAEAUtagCREATESTRUCTA@@@Z" PURGE="-1" COMMENT="" />
    <EXPORT ORDINAL="11572" NAME="?PreCreateWindow@CHtmlView@@UEAAHAEAUtagCREATESTRUCTA@@@Z" PURGE="-1" COMMENT="" />
    <EXPORT ORDINAL="11571" NAME="?PreCreateWindow@CFrameWndEx@@MEAAHAEAUtagCREATESTRUCTA@@@Z" PURGE="-1" COMMENT="" />
    <EXPORT ORDINAL="11570" NAME="?PreCreateWindow@CFrameWnd@@MEAAHAEAUtagCREATESTRUCTA@@@Z" PURGE="-1" COMMENT="" />
    <EXPORT ORDINAL="11569" NAME="?PreCreateWindow@CEditView@@MEAAHAEAUtagCREATESTRUCTA@@@Z" PURGE="-1" COMMENT="" />
    <EXPORT ORDINAL="11568" NAME="?PreCreateWindow@CCtrlView@@MEAAHAEAUtagCREATESTRUCTA@@@Z" PURGE="-1" COMMENT="" />
    <EXPORT ORDINAL="11567" NAME="?PreCreateWindow@CControlFrameWnd@@UEAAHAEAUtagCREATESTRUCTA@@@Z" PURGE="-1" COMMENT="" />
    <EXPORT ORDINAL="11566" NAME="?PreCreateWindow@CControlBar@@UEAAHAEAUtagCREATESTRUCTA@@@Z" PURGE="-1" COMMENT="" />
    <EXPORT ORDINAL="11565" NAME="?PreCreateDialog@COccManager@@UEAAPEBUDLGTEMPLATE@@PEAU_AFX_OCC_DIALOG_INFO@@PEBU2@@Z" PURGE="-1" COMMENT="" />
    <EXPORT ORDINAL="11564" NAME="?PreCompareItem@CCheckListBox@@IEAAHPEAUtagCOMPAREITEMSTRUCT@@@Z" PURGE="-1" COMMENT="" />
    <EXPORT ORDINAL="11563" NAME="?PreCloseFrame@CRichEditDoc@@UEAAXPEAVCFrameWnd@@@Z" PURGE="-1" COMMENT="" />
    <EXPORT ORDINAL="11562" NAME="?PreCloseFrame@COleDocument@@UEAAXPEAVCFrameWnd@@@Z" PURGE="-1" COMMENT="" />
    <EXPORT ORDINAL="11561" NAME="?PreCloseFrame@CDocument@@UEAAXPEAVCFrameWnd@@@Z" PURGE="-1" COMMENT="" />
    <EXPORT ORDINAL="11560" NAME="?PreBindFields@CRecordset@@UEAAXXZ" PURGE="-1" COMMENT="" />
    <EXPORT ORDINAL="11557" NAME="?PostNcDestroy@CWnd@@MEAAXXZ" PURGE="-1" COMMENT="" />
    <EXPORT ORDINAL="11556" NAME="?PostNcDestroy@CView@@MEAAXXZ" PURGE="-1" COMMENT="" />
    <EXPORT ORDINAL="11555" NAME="?PostNcDestroy@CReflectorWnd@@MEAAXXZ" PURGE="-1" COMMENT="" />
    <EXPORT ORDINAL="11554" NAME="?PostNcDestroy@COleCntrFrameWnd@@MEAAXXZ" PURGE="-1" COMMENT="" />
    <EXPORT ORDINAL="11553" NAME="?PostNcDestroy@CMFCToolBarsCustomizeDialog@@UEAAXXZ" PURGE="-1" COMMENT="" />
    <EXPORT ORDINAL="11552" NAME="?PostNcDestroy@CMFCPopupMenu@@MEAAXXZ" PURGE="-1" COMMENT="" />
    <EXPORT ORDINAL="11551" NAME="?PostNcDestroy@CMFCDropDownFrame@@MEAAXXZ" PURGE="-1" COMMENT="" />
    <EXPORT ORDINAL="11550" NAME="?PostNcDestroy@CMFCColorPropertySheet@@MEAAXXZ" PURGE="-1" COMMENT="" />
    <EXPORT ORDINAL="11549" NAME="?PostNcDestroy@CFrameWnd@@MEAAXXZ" PURGE="-1" COMMENT="" />
    <EXPORT ORDINAL="11548" NAME="?PostNcDestroy@CFindReplaceDialog@@MEAAXXZ" PURGE="-1" COMMENT="" />
    <EXPORT ORDINAL="11547" NAME="?PostNcDestroy@CControlFrameWnd@@MEAAXXZ" PURGE="-1" COMMENT="" />
    <EXPORT ORDINAL="11546" NAME="?PostNcDestroy@CControlBar@@UEAAXXZ" PURGE="-1" COMMENT="" />
    <EXPORT ORDINAL="11545" NAME="?PostModalDialog@COleControl@@QEAAXPEAUHWND__@@@Z" PURGE="-1" COMMENT="" />
    <EXPORT ORDINAL="11544" NAME="?PostModal@CPrintDialogEx@@QEAAXXZ" PURGE="-1" COMMENT="" />
    <EXPORT ORDINAL="11543" NAME="?PostModal@CDialog@@IEAAXXZ" PURGE="-1" COMMENT="" />
    <EXPORT ORDINAL="11542" NAME="?PostMenuCommand@CMFCRibbonBaseElement@@QEAAXI@Z" PURGE="-1" COMMENT="" />
    <EXPORT ORDINAL="11541" NAME="?PostCreateDialog@COccManager@@UEAAXPEAU_AFX_OCC_DIALOG_INFO@@@Z" PURGE="-1" COMMENT="" />
    <EXPORT ORDINAL="11540" NAME="?PostCommand@CMFCPopupMenu@@QEAAHI@Z" PURGE="-1" COMMENT="" />
    <EXPORT ORDINAL="11539" NAME="?PostBindToStream@CMonikerFile@@MEAAHPEAVCFileException@@@Z" PURGE="-1" COMMENT="" />
    <EXPORT ORDINAL="11538" NAME="?PostBindToStream@CAsyncMonikerFile@@MEAAHPEAVCFileException@@@Z" PURGE="-1" COMMENT="" />
    <EXPORT ORDINAL="11537" NAME="?PositionPage@CPreviewView@@MEAAXI@Z" PURGE="-1" COMMENT="" />
    <EXPORT ORDINAL="11536" NAME="?PopTooltip@CMFCRibbonPanelMenuBar@@QEAAXXZ" PURGE="-1" COMMENT="" />
    <EXPORT ORDINAL="11535" NAME="?PopTooltip@CMFCRibbonBar@@QEAAXXZ" PURGE="-1" COMMENT="" />
    <EXPORT ORDINAL="11534" NAME="?PopLayer@CRenderTarget@@QEAAXXZ" PURGE="-1" COMMENT="" />
    <EXPORT ORDINAL="11533" NAME="?PopAxisAlignedClip@CRenderTarget@@QEAAXXZ" PURGE="-1" COMMENT="" />
    <EXPORT ORDINAL="11532" NAME="?PolylineTo@CDC@@QEAAHPEBUtagPOINT@@H@Z" PURGE="-1" COMMENT="" />
    <EXPORT ORDINAL="11531" NAME="?PolyDraw@CDC@@QEAAHPEBUtagPOINT@@PEBEH@Z" PURGE="-1" COMMENT="" />
    <EXPORT ORDINAL="11530" NAME="?PolyBezierTo@CDC@@QEAAHPEBUtagPOINT@@H@Z" PURGE="-1" COMMENT="" />
    <EXPORT ORDINAL="11529" NAME="?PointFromLum@CMFCColorPickerCtrl@@IEAAHN@Z" PURGE="-1" COMMENT="" />
    <EXPORT ORDINAL="11526" NAME="?PlayMetaFile@CDC@@QEAAHPEAUHMETAFILE__@@@Z" PURGE="-1" COMMENT="" />
    <EXPORT ORDINAL="11525" NAME="?PlaceTabPreDocking@CMFCDragFrameImpl@@QEAAXPEAVCWnd@@@Z" PURGE="-1" COMMENT="" />
    <EXPORT ORDINAL="11524" NAME="?PlaceTabPreDocking@CMFCDragFrameImpl@@QEAAXPEAVCBaseTabbedPane@@H@Z" PURGE="-1" COMMENT="" />
    <EXPORT ORDINAL="11523" NAME="?PixelAlpha@CDrawingManager@@SAKKNNN@Z" PURGE="-1" COMMENT="" />
    <EXPORT ORDINAL="11522" NAME="?PixelAlpha@CDrawingManager@@SAKKKH@Z" PURGE="-1" COMMENT="" />
    <EXPORT ORDINAL="11521" NAME="?PixelAlpha@CDrawingManager@@SAKKH@Z" PURGE="-1" COMMENT="" />
    <EXPORT ORDINAL="11516" NAME="?PasteSpecial@CRichEditCtrl@@QEAAXIKPEAUHMETAFILE__@@@Z" PURGE="-1" COMMENT="" />
    <EXPORT ORDINAL="11515" NAME="?ParseToolTipInfo@CTagManager@@SAHAEBV?$CStringT@DV?$StrTraitMFC_DLL@DV?$ChTraitsCRT@D@ATL@@@@@ATL@@AEAVCMFCToolTipInfo@@@Z" PURGE="-1" COMMENT="" />
    <EXPORT ORDINAL="11514" NAME="?ParseToolBarImages@CTagManager@@SAHAEBV?$CStringT@DV?$StrTraitMFC_DLL@DV?$ChTraitsCRT@D@ATL@@@@@ATL@@AEAVCMFCToolBarImages@@PEBD@Z" PURGE="-1" COMMENT="" />
    <EXPORT ORDINAL="11513" NAME="?ParseToolBarImages@CTagManager@@SAHAEBV?$CStringT@DV?$StrTraitMFC_DLL@DV?$ChTraitsCRT@D@ATL@@@@@ATL@@AEAVCMFCToolBarImages@@I@Z" PURGE="-1" COMMENT="" />
    <EXPORT ORDINAL="11512" NAME="?ParseString@CTagManager@@SAHAEBV?$CStringT@DV?$StrTraitMFC_DLL@DV?$ChTraitsCRT@D@ATL@@@@@ATL@@0AEAVCStringArray@@HH@Z" PURGE="-1" COMMENT="" />
    <EXPORT ORDINAL="11511" NAME="?ParseSize@CTagManager@@SAHAEBV?$CStringT@DV?$StrTraitMFC_DLL@DV?$ChTraitsCRT@D@ATL@@@@@ATL@@AEAVCSize@@@Z" PURGE="-1" COMMENT="" />
    <EXPORT ORDINAL="11510" NAME="?ParseRect@CTagManager@@SAHAEBV?$CStringT@DV?$StrTraitMFC_DLL@DV?$ChTraitsCRT@D@ATL@@@@@ATL@@AEAVCRect@@@Z" PURGE="-1" COMMENT="" />
    <EXPORT ORDINAL="11509" NAME="?ParsePoint@CTagManager@@SAHAEBV?$CStringT@DV?$StrTraitMFC_DLL@DV?$ChTraitsCRT@D@ATL@@@@@ATL@@AEAVCPoint@@@Z" PURGE="-1" COMMENT="" />
    <EXPORT ORDINAL="11508" NAME="?ParseParamNotFlag@CCommandLineInfo@@IEAAXPEBD@Z" PURGE="-1" COMMENT="" />
    <EXPORT ORDINAL="11507" NAME="?ParseParamFlag@CCommandLineInfo@@IEAAXPEBD@Z" PURGE="-1" COMMENT="" />
    <EXPORT ORDINAL="11506" NAME="?ParseParam@CCommandLineInfo@@UEAAXPEBDHH@Z" PURGE="-1" COMMENT="" />
    <EXPORT ORDINAL="11505" NAME="?ParseLast@CCommandLineInfo@@IEAAXH@Z" PURGE="-1" COMMENT="" />
    <EXPORT ORDINAL="11504" NAME="?ParseFont@CTagManager@@SAHAEBV?$CStringT@DV?$StrTraitMFC_DLL@DV?$ChTraitsCRT@D@ATL@@@@@ATL@@AEAUtagLOGFONTA@@@Z" PURGE="-1" COMMENT="" />
    <EXPORT ORDINAL="11503" NAME="?ParseDisplayName@XOleItemContainer@COleLinkingDoc@@UEAAJPEAUIBindCtx@@PEA_WPEAKPEAPEAUIMoniker@@@Z" PURGE="-1" COMMENT="" />
    <EXPORT ORDINAL="11502" NAME="?ParseDisplayName@XOleContainer@COleControlContainer@@UEAAJPEAUIBindCtx@@PEA_WPEAKPEAPEAUIMoniker@@@Z" PURGE="-1" COMMENT="" />
    <EXPORT ORDINAL="11501" NAME="?ParseCurrency@COleCurrency@@QEAAHPEBDKK@Z" PURGE="-1" COMMENT="" />
    <EXPORT ORDINAL="11500" NAME="?ParseControlRendererInfo@CTagManager@@SAHAEBV?$CStringT@DV?$StrTraitMFC_DLL@DV?$ChTraitsCRT@D@ATL@@@@@ATL@@AEAVCMFCControlRendererInfo@@@Z" PURGE="-1" COMMENT="" />
    <EXPORT ORDINAL="11499" NAME="?ParseControlRenderer@CTagManager@@SAHAEBV?$CStringT@DV?$StrTraitMFC_DLL@DV?$ChTraitsCRT@D@ATL@@@@@ATL@@AEAVCMFCControlRenderer@@PEBD@Z" PURGE="-1" COMMENT="" />
    <EXPORT ORDINAL="11498" NAME="?ParseControlRenderer@CTagManager@@SAHAEBV?$CStringT@DV?$StrTraitMFC_DLL@DV?$ChTraitsCRT@D@ATL@@@@@ATL@@AEAVCMFCControlRenderer@@I@Z" PURGE="-1" COMMENT="" />
    <EXPORT ORDINAL="11497" NAME="?ParseCommandLine@CWinApp@@QEAAXAEAVCCommandLineInfo@@@Z" PURGE="-1" COMMENT="" />
    <EXPORT ORDINAL="11496" NAME="?ParseColorHEX@CTagManager@@SAHAEBV?$CStringT@DV?$StrTraitMFC_DLL@DV?$ChTraitsCRT@D@ATL@@@@@ATL@@AEAK@Z" PURGE="-1" COMMENT="" />
    <EXPORT ORDINAL="11495" NAME="?ParseColor@CTagManager@@SAHAEBV?$CStringT@DV?$StrTraitMFC_DLL@DV?$ChTraitsCRT@D@ATL@@@@@ATL@@AEAK@Z" PURGE="-1" COMMENT="" />
    <EXPORT ORDINAL="11494" NAME="?Parse@CMenuTearOffManager@@QEAAIAEAV?$CStringT@DV?$StrTraitMFC_DLL@DV?$ChTraitsCRT@D@ATL@@@@@ATL@@@Z" PURGE="-1" COMMENT="" />
    <EXPORT ORDINAL="11493" NAME="?ParentToClient@COleControl@@UEBAIPEBUtagRECT@@PEAUtagPOINT@@H@Z" PURGE="-1" COMMENT="" />
    <EXPORT ORDINAL="11492" NAME="?PaneFromPoint@CPaneFrameWnd@@UEAAPEAVCBasePane@@VCPoint@@HH@Z" PURGE="-1" COMMENT="" />
    <EXPORT ORDINAL="11491" NAME="?PaneFromPoint@CPaneContainerManager@@UEAAPEAVCDockablePane@@VCPoint@@HHAEAH1@Z" PURGE="-1" COMMENT="" />
    <EXPORT ORDINAL="11489" NAME="?PaneFromPoint@COleIPFrameWndEx@@QEBAPEAVCBasePane@@VCPoint@@H_NPEAUCRuntimeClass@@@Z" PURGE="-1" COMMENT="" />
    <EXPORT ORDINAL="11490" NAME="?PaneFromPoint@COleIPFrameWndEx@@QEBAPEAVCBasePane@@VCPoint@@HAEAKPEAUCRuntimeClass@@@Z" PURGE="-1" COMMENT="" />
    <EXPORT ORDINAL="11487" NAME="?PaneFromPoint@COleDocIPFrameWndEx@@QEBAPEAVCBasePane@@VCPoint@@H_NPEAUCRuntimeClass@@@Z" PURGE="-1" COMMENT="" />
    <EXPORT ORDINAL="11488" NAME="?PaneFromPoint@COleDocIPFrameWndEx@@QEBAPEAVCBasePane@@VCPoint@@HAEAKPEAUCRuntimeClass@@@Z" PURGE="-1" COMMENT="" />
    <EXPORT ORDINAL="11485" NAME="?PaneFromPoint@COleCntrFrameWndEx@@QEBAPEAVCBasePane@@VCPoint@@H_NPEAUCRuntimeClass@@@Z" PURGE="-1" COMMENT="" />
    <EXPORT ORDINAL="11486" NAME="?PaneFromPoint@COleCntrFrameWndEx@@QEBAPEAVCBasePane@@VCPoint@@HAEAKPEAUCRuntimeClass@@@Z" PURGE="-1" COMMENT="" />
    <EXPORT ORDINAL="11484" NAME="?PaneFromPoint@CMultiPaneFrameWnd@@UEAAPEAVCBasePane@@VCPoint@@HH@Z" PURGE="-1" COMMENT="" />
    <EXPORT ORDINAL="11482" NAME="?PaneFromPoint@CMDIFrameWndEx@@QEBAPEAVCBasePane@@VCPoint@@H_NPEAUCRuntimeClass@@@Z" PURGE="-1" COMMENT="" />
    <EXPORT ORDINAL="11483" NAME="?PaneFromPoint@CMDIFrameWndEx@@QEBAPEAVCBasePane@@VCPoint@@HAEAKPEAUCRuntimeClass@@@Z" PURGE="-1" COMMENT="" />
    <EXPORT ORDINAL="11480" NAME="?PaneFromPoint@CMDIChildWndEx@@QEBAPEAVCBasePane@@VCPoint@@H_NPEAUCRuntimeClass@@@Z" PURGE="-1" COMMENT="" />
    <EXPORT ORDINAL="11481" NAME="?PaneFromPoint@CMDIChildWndEx@@QEBAPEAVCBasePane@@VCPoint@@HAEAKPEAUCRuntimeClass@@@Z" PURGE="-1" COMMENT="" />
    <EXPORT ORDINAL="11478" NAME="?PaneFromPoint@CFrameWndEx@@QEBAPEAVCBasePane@@VCPoint@@H_NPEAUCRuntimeClass@@@Z" PURGE="-1" COMMENT="" />
    <EXPORT ORDINAL="11479" NAME="?PaneFromPoint@CFrameWndEx@@QEBAPEAVCBasePane@@VCPoint@@HAEAKPEAUCRuntimeClass@@@Z" PURGE="-1" COMMENT="" />
    <EXPORT ORDINAL="11475" NAME="?PaneFromPoint@CDockingManager@@UEBAPEAVCBasePane@@VCPoint@@H_NPEAUCRuntimeClass@@HPEBV2@@Z" PURGE="-1" COMMENT="" />
    <EXPORT ORDINAL="11476" NAME="?PaneFromPoint@CDockingManager@@UEBAPEAVCBasePane@@VCPoint@@HAEAKPEAUCRuntimeClass@@PEBV2@@Z" PURGE="-1" COMMENT="" />
    <EXPORT ORDINAL="11477" NAME="?PaneFromPoint@CDockSite@@UEAAPEAVCPane@@VCPoint@@@Z" PURGE="-1" COMMENT="" />
    <EXPORT ORDINAL="11474" NAME="?PaneFromPoint@CBasePane@@QEBAPEAV1@VCPoint@@H_NPEAUCRuntimeClass@@@Z" PURGE="-1" COMMENT="" />
    <EXPORT ORDINAL="11473" NAME="?PaintWindowlessControls@CWnd@@QEAAHPEAVCDC@@@Z" PURGE="-1" COMMENT="" />
    <EXPORT ORDINAL="11472" NAME="?PaintHookProc@CPageSetupDialog@@KAIPEAUHWND__@@I_K_J@Z" PURGE="-1" COMMENT="" />
    <EXPORT ORDINAL="11471" NAME="?PaginateTo@CRichEditView@@IEAAHPEAVCDC@@PEAUCPrintInfo@@@Z" PURGE="-1" COMMENT="" />
    <EXPORT ORDINAL="11470" NAME="?PaginateTo@CEditView@@IEAAHPEAVCDC@@PEAUCPrintInfo@@@Z" PURGE="-1" COMMENT="" />
    <EXPORT ORDINAL="11760" NAME="?PX_VBXFontConvert@@YAHPEAVCPropExchange@@AEAVCFontHolder@@@Z" PURGE="-1" COMMENT="" />
    <EXPORT ORDINAL="11759" NAME="?PX_UShort@@YAHPEAVCPropExchange@@PEBDAEAGG@Z" PURGE="-1" COMMENT="" />
    <EXPORT ORDINAL="11758" NAME="?PX_UShort@@YAHPEAVCPropExchange@@PEBDAEAG@Z" PURGE="-1" COMMENT="" />
    <EXPORT ORDINAL="11757" NAME="?PX_ULong@@YAHPEAVCPropExchange@@PEBDAEAKK@Z" PURGE="-1" COMMENT="" />
    <EXPORT ORDINAL="11756" NAME="?PX_ULong@@YAHPEAVCPropExchange@@PEBDAEAK@Z" PURGE="-1" COMMENT="" />
    <EXPORT ORDINAL="11755" NAME="?PX_String@@YAHPEAVCPropExchange@@PEBDAEAV?$CStringT@DV?$StrTraitMFC_DLL@DV?$ChTraitsCRT@D@ATL@@@@@ATL@@AEBV23@@Z" PURGE="-1" COMMENT="" />
    <EXPORT ORDINAL="11753" NAME="?PX_String@@YAHPEAVCPropExchange@@PEBDAEAV?$CStringT@DV?$StrTraitMFC_DLL@DV?$ChTraitsCRT@D@ATL@@@@@ATL@@@Z" PURGE="-1" COMMENT="" />
    <EXPORT ORDINAL="11754" NAME="?PX_String@@YAHPEAVCPropExchange@@PEBDAEAV?$CStringT@DV?$StrTraitMFC_DLL@DV?$ChTraitsCRT@D@ATL@@@@@ATL@@1@Z" PURGE="-1" COMMENT="" />
    <EXPORT ORDINAL="11752" NAME="?PX_Short@@YAHPEAVCPropExchange@@PEBDAEAFF@Z" PURGE="-1" COMMENT="" />
    <EXPORT ORDINAL="11751" NAME="?PX_Short@@YAHPEAVCPropExchange@@PEBDAEAF@Z" PURGE="-1" COMMENT="" />
    <EXPORT ORDINAL="11749" NAME="?PX_Picture@@YAHPEAVCPropExchange@@PEBDAEAVCPictureHolder@@@Z" PURGE="-1" COMMENT="" />
    <EXPORT ORDINAL="11750" NAME="?PX_Picture@@YAHPEAVCPropExchange@@PEBDAEAVCPictureHolder@@2@Z" PURGE="-1" COMMENT="" />
    <EXPORT ORDINAL="11748" NAME="?PX_Long@@YAHPEAVCPropExchange@@PEBDAEAJJ@Z" PURGE="-1" COMMENT="" />
    <EXPORT ORDINAL="11747" NAME="?PX_Long@@YAHPEAVCPropExchange@@PEBDAEAJ@Z" PURGE="-1" COMMENT="" />
    <EXPORT ORDINAL="11746" NAME="?PX_IUnknown@@YAHPEAVCPropExchange@@PEBDAEAPEAUIUnknown@@AEBU_GUID@@PEAU2@@Z" PURGE="-1" COMMENT="" />
    <EXPORT ORDINAL="11745" NAME="?PX_Font@@YAHPEAVCPropExchange@@PEBDAEAVCFontHolder@@PEBUtagFONTDESC@@PEAUIFontDisp@@@Z" PURGE="-1" COMMENT="" />
    <EXPORT ORDINAL="11744" NAME="?PX_Float@@YAHPEAVCPropExchange@@PEBDAEAMM@Z" PURGE="-1" COMMENT="" />
    <EXPORT ORDINAL="11743" NAME="?PX_Float@@YAHPEAVCPropExchange@@PEBDAEAM@Z" PURGE="-1" COMMENT="" />
    <EXPORT ORDINAL="11742" NAME="?PX_Double@@YAHPEAVCPropExchange@@PEBDAEANN@Z" PURGE="-1" COMMENT="" />
    <EXPORT ORDINAL="11741" NAME="?PX_Double@@YAHPEAVCPropExchange@@PEBDAEAN@Z" PURGE="-1" COMMENT="" />
    <EXPORT ORDINAL="11740" NAME="?PX_DataPath@@YAHPEAVCPropExchange@@PEBDAEAVCDataPathProperty@@AEBV?$CStringT@DV?$StrTraitMFC_DLL@DV?$ChTraitsCRT@D@ATL@@@@@ATL@@@Z" PURGE="-1" COMMENT="" />
    <EXPORT ORDINAL="11739" NAME="?PX_DataPath@@YAHPEAVCPropExchange@@PEBDAEAVCDataPathProperty@@1@Z" PURGE="-1" COMMENT="" />
    <EXPORT ORDINAL="11738" NAME="?PX_Currency@@YAHPEAVCPropExchange@@PEBDAEATtagCY@@T2@@Z" PURGE="-1" COMMENT="" />
    <EXPORT ORDINAL="11737" NAME="?PX_Currency@@YAHPEAVCPropExchange@@PEBDAEATtagCY@@@Z" PURGE="-1" COMMENT="" />
    <EXPORT ORDINAL="11736" NAME="?PX_Color@@YAHPEAVCPropExchange@@PEBDAEAKK@Z" PURGE="-1" COMMENT="" />
    <EXPORT ORDINAL="11735" NAME="?PX_Color@@YAHPEAVCPropExchange@@PEBDAEAK@Z" PURGE="-1" COMMENT="" />
    <EXPORT ORDINAL="11734" NAME="?PX_Bool@@YAHPEAVCPropExchange@@PEBDAEAHH@Z" PURGE="-1" COMMENT="" />
    <EXPORT ORDINAL="11733" NAME="?PX_Bool@@YAHPEAVCPropExchange@@PEBDAEAH@Z" PURGE="-1" COMMENT="" />
    <EXPORT ORDINAL="11732" NAME="?PX_Blob@@YAHPEAVCPropExchange@@PEBDAEAPEAXPEAX@Z" PURGE="-1" COMMENT="" />
    <EXPORT ORDINAL="11528" NAME="?PLookup@CMapStringToString@@QEBAPEBUCPair@1@PEBD@Z" PURGE="-1" COMMENT="" />
    <EXPORT ORDINAL="11527" NAME="?PLookup@CMapStringToString@@QEAAPEAUCPair@1@PEBD@Z" PURGE="-1" COMMENT="" />
    <EXPORT ORDINAL="11520" NAME="?PGetNextAssoc@CMapStringToString@@QEBAPEBUCPair@1@PEBU21@@Z" PURGE="-1" COMMENT="" />
    <EXPORT ORDINAL="11519" NAME="?PGetNextAssoc@CMapStringToString@@QEAAPEAUCPair@1@PEBU21@@Z" PURGE="-1" COMMENT="" />
    <EXPORT ORDINAL="11518" NAME="?PGetFirstAssoc@CMapStringToString@@QEBAPEBUCPair@1@XZ" PURGE="-1" COMMENT="" />
    <EXPORT ORDINAL="11517" NAME="?PGetFirstAssoc@CMapStringToString@@QEAAPEAUCPair@1@XZ" PURGE="-1" COMMENT="" />
    <EXPORT ORDINAL="11469" NAME="?OutputString@CDumpContext@@IEAAXPEBD@Z" PURGE="-1" COMMENT="" />
    <EXPORT ORDINAL="11468" NAME="?Outline@CD2DGeometry@@QEBAHAEBUD2D_MATRIX_3X2_F@@PEAUID2D1SimplifiedGeometrySink@@M@Z" PURGE="-1" COMMENT="" />
    <EXPORT ORDINAL="11466" NAME="?OsErrorToException@CFileException@@SAHJ@Z" PURGE="-1" COMMENT="" />
    <EXPORT ORDINAL="11465" NAME="?OpenURL@CInternetSession@@QEAAPEAVCStdioFile@@PEBD_KK0K@Z" PURGE="-1" COMMENT="" />
    <EXPORT ORDINAL="11464" NAME="?OpenURL@CHtmlEditDoc@@UEAAHPEBD@Z" PURGE="-1" COMMENT="" />
    <EXPORT ORDINAL="11463" NAME="?OpenStream@COleStreamFile@@QEAAHPEAUIStorage@@PEBDKPEAVCFileException@@@Z" PURGE="-1" COMMENT="" />
    <EXPORT ORDINAL="11462" NAME="?OpenRequest@CHttpConnection@@QEAAPEAVCHttpFile@@PEBD00_KPEAPEBD0K@Z" PURGE="-1" COMMENT="" />
    <EXPORT ORDINAL="11461" NAME="?OpenRequest@CHttpConnection@@QEAAPEAVCHttpFile@@HPEBD0_KPEAPEBD0K@Z" PURGE="-1" COMMENT="" />
    <EXPORT ORDINAL="11460" NAME="?OpenPopupMenu@CMFCToolBarMenuButton@@UEAAHPEAVCWnd@@@Z" PURGE="-1" COMMENT="" />
    <EXPORT ORDINAL="11459" NAME="?OpenPopupMenu@CMFCShowAllButton@@UEAAHPEAVCWnd@@@Z" PURGE="-1" COMMENT="" />
    <EXPORT ORDINAL="11458" NAME="?OpenLinkSource@COleUILinkInfo@@UEAAJK@Z" PURGE="-1" COMMENT="" />
    <EXPORT ORDINAL="11457" NAME="?OpenLink@CMFCRibbonLinkCtrl@@QEAAHXZ" PURGE="-1" COMMENT="" />
    <EXPORT ORDINAL="11456" NAME="?OpenFile@CGopherConnection@@QEAAPEAVCGopherFile@@AEAVCGopherLocator@@KPEBD_K@Z" PURGE="-1" COMMENT="" />
    <EXPORT ORDINAL="11455" NAME="?OpenFile@CFtpConnection@@QEAAPEAVCInternetFile@@PEBDKK_K@Z" PURGE="-1" COMMENT="" />
    <EXPORT ORDINAL="11454" NAME="?OpenEx@CDatabase@@UEAAHPEBDK@Z" PURGE="-1" COMMENT="" />
    <EXPORT ORDINAL="11453" NAME="?OpenDocumentFile@CWinApp@@UEAAPEAVCDocument@@PEBDH@Z" PURGE="-1" COMMENT="" />
    <EXPORT ORDINAL="11452" NAME="?OpenDocumentFile@CWinApp@@UEAAPEAVCDocument@@PEBD@Z" PURGE="-1" COMMENT="" />
    <EXPORT ORDINAL="11451" NAME="?OpenDocumentFile@CSingleDocTemplate@@UEAAPEAVCDocument@@PEBDHH@Z" PURGE="-1" COMMENT="" />
    <EXPORT ORDINAL="11450" NAME="?OpenDocumentFile@CSingleDocTemplate@@UEAAPEAVCDocument@@PEBDH@Z" PURGE="-1" COMMENT="" />
    <EXPORT ORDINAL="11449" NAME="?OpenDocumentFile@CMultiDocTemplate@@UEAAPEAVCDocument@@PEBDHH@Z" PURGE="-1" COMMENT="" />
    <EXPORT ORDINAL="11448" NAME="?OpenDocumentFile@CMultiDocTemplate@@UEAAPEAVCDocument@@PEBDH@Z" PURGE="-1" COMMENT="" />
    <EXPORT ORDINAL="11447" NAME="?OpenDocumentFile@CDocManager@@UEAAPEAVCDocument@@PEBDH@Z" PURGE="-1" COMMENT="" />
    <EXPORT ORDINAL="11446" NAME="?OpenDocumentFile@CDocManager@@UEAAPEAVCDocument@@PEBD@Z" PURGE="-1" COMMENT="" />
    <EXPORT ORDINAL="11445" NAME="?OpenColorDialog@CMFCColorMenuButton@@UEAAHKAEAK@Z" PURGE="-1" COMMENT="" />
    <EXPORT ORDINAL="11444" NAME="?OpenColorDialog@CMFCColorBar@@MEAAHKAEAK@Z" PURGE="-1" COMMENT="" />
    <EXPORT ORDINAL="11443" NAME="?Open@XOleDocumentView@CDocObjectServer@@UEAAJXZ" PURGE="-1" COMMENT="" />
    <EXPORT ORDINAL="11442" NAME="?Open@CStdioFile@@UEAAHPEBDIPEAVCFileException@@@Z" PURGE="-1" COMMENT="" />
    <EXPORT ORDINAL="11441" NAME="?Open@CStdioFile@@UEAAHPEBDIPEAVCAtlTransactionManager@ATL@@PEAVCFileException@@@Z" PURGE="-1" COMMENT="" />
    <EXPORT ORDINAL="11440" NAME="?Open@CSocketFile@@UEAAHPEBDIPEAVCFileException@@@Z" PURGE="-1" COMMENT="" />
    <EXPORT ORDINAL="11439" NAME="?Open@CSettingsStore@@UEAAHPEBD@Z" PURGE="-1" COMMENT="" />
    <EXPORT ORDINAL="11438" NAME="?Open@CRecordset@@UEAAHIPEBDK@Z" PURGE="-1" COMMENT="" />
    <EXPORT ORDINAL="11437" NAME="?Open@CMonikerFile@@UEAAHPEBDPEAVCFileException@@@Z" PURGE="-1" COMMENT="" />
    <EXPORT ORDINAL="11436" NAME="?Open@CMonikerFile@@UEAAHPEAUIMoniker@@PEAVCFileException@@@Z" PURGE="-1" COMMENT="" />
    <EXPORT ORDINAL="11435" NAME="?Open@CMonikerFile@@MEAAHPEBDPEAUIBindHost@@PEAUIBindStatusCallback@@PEAUIBindCtx@@PEAVCFileException@@@Z" PURGE="-1" COMMENT="" />
    <EXPORT ORDINAL="11434" NAME="?Open@CMonikerFile@@MEAAHPEAUIMoniker@@PEAUIBindHost@@PEAUIBindStatusCallback@@PEAUIBindCtx@@PEAVCFileException@@@Z" PURGE="-1" COMMENT="" />
    <EXPORT ORDINAL="11433" NAME="?Open@CMirrorFile@@UEAAHPEBDIPEAVCFileException@@@Z" PURGE="-1" COMMENT="" />
    <EXPORT ORDINAL="11432" NAME="?Open@CFile@@UEAAHPEBDIPEAVCFileException@@@Z" PURGE="-1" COMMENT="" />
    <EXPORT ORDINAL="11431" NAME="?Open@CFile@@UEAAHPEBDIPEAVCAtlTransactionManager@ATL@@PEAVCFileException@@@Z" PURGE="-1" COMMENT="" />
    <EXPORT ORDINAL="11426" NAME="?Open@CDatabase@@UEAAHPEBDHH0H@Z" PURGE="-1" COMMENT="" />
    <EXPORT ORDINAL="11430" NAME="?Open@CDataPathProperty@@UEAAHPEBDPEAVCOleControl@@PEAVCFileException@@@Z" PURGE="-1" COMMENT="" />
    <EXPORT ORDINAL="11429" NAME="?Open@CDataPathProperty@@UEAAHPEBDPEAVCFileException@@@Z" PURGE="-1" COMMENT="" />
    <EXPORT ORDINAL="11428" NAME="?Open@CDataPathProperty@@UEAAHPEAVCOleControl@@PEAVCFileException@@@Z" PURGE="-1" COMMENT="" />
    <EXPORT ORDINAL="11427" NAME="?Open@CDataPathProperty@@UEAAHPEAVCFileException@@@Z" PURGE="-1" COMMENT="" />
    <EXPORT ORDINAL="11425" NAME="?Open@CD2DPathGeometry@@QEAAPEAUID2D1GeometrySink@@XZ" PURGE="-1" COMMENT="" />
    <EXPORT ORDINAL="11424" NAME="?Open@CD2DMesh@@QEAAPEAUID2D1TessellationSink@@XZ" PURGE="-1" COMMENT="" />
    <EXPORT ORDINAL="11423" NAME="?Open@CAsyncMonikerFile@@UEAAHPEBDPEAVCFileException@@@Z" PURGE="-1" COMMENT="" />
    <EXPORT ORDINAL="11422" NAME="?Open@CAsyncMonikerFile@@UEAAHPEBDPEAUIUnknown@@PEAVCFileException@@@Z" PURGE="-1" COMMENT="" />
    <EXPORT ORDINAL="11421" NAME="?Open@CAsyncMonikerFile@@UEAAHPEBDPEAUIServiceProvider@@PEAVCFileException@@@Z" PURGE="-1" COMMENT="" />
    <EXPORT ORDINAL="11420" NAME="?Open@CAsyncMonikerFile@@UEAAHPEBDPEAUIBindHost@@PEAVCFileException@@@Z" PURGE="-1" COMMENT="" />
    <EXPORT ORDINAL="11419" NAME="?Open@CAsyncMonikerFile@@UEAAHPEAUIMoniker@@PEAVCFileException@@@Z" PURGE="-1" COMMENT="" />
    <EXPORT ORDINAL="11418" NAME="?Open@CAsyncMonikerFile@@UEAAHPEAUIMoniker@@PEAUIUnknown@@PEAVCFileException@@@Z" PURGE="-1" COMMENT="" />
    <EXPORT ORDINAL="11417" NAME="?Open@CAsyncMonikerFile@@UEAAHPEAUIMoniker@@PEAUIServiceProvider@@PEAVCFileException@@@Z" PURGE="-1" COMMENT="" />
    <EXPORT ORDINAL="11416" NAME="?Open@CAsyncMonikerFile@@UEAAHPEAUIMoniker@@PEAUIBindHost@@PEAVCFileException@@@Z" PURGE="-1" COMMENT="" />
    <EXPORT ORDINAL="11415" NAME="?OnZoomOut@CPreviewView@@IEAAXXZ" PURGE="-1" COMMENT="" />
    <EXPORT ORDINAL="11414" NAME="?OnZoomIn@CPreviewView@@IEAAXXZ" PURGE="-1" COMMENT="" />
    <EXPORT ORDINAL="11413" NAME="?OnWndMsg@CWnd@@MEAAHI_K_JPEA_J@Z" PURGE="-1" COMMENT="" />
    <EXPORT ORDINAL="11412" NAME="?OnWizardNext@CPropertyPage@@UEAA_JXZ" PURGE="-1" COMMENT="" />
    <EXPORT ORDINAL="11411" NAME="?OnWizardFinishEx@CPropertyPage@@UEAAPEAUHWND__@@XZ" PURGE="-1" COMMENT="" />
    <EXPORT ORDINAL="11410" NAME="?OnWizardFinish@CPropertyPage@@UEAAHXZ" PURGE="-1" COMMENT="" />
    <EXPORT ORDINAL="11409" NAME="?OnWizardBack@CPropertyPage@@UEAA_JXZ" PURGE="-1" COMMENT="" />
    <EXPORT ORDINAL="11385" NAME="?OnWindowlessMessage@COleControl@@UEAAHI_K_JPEA_J@Z" PURGE="-1" COMMENT="" />
    <EXPORT ORDINAL="11408" NAME="?OnWindowPosChanging@CVSListBoxEditCtrl@@IEAAXPEAUtagWINDOWPOS@@@Z" PURGE="-1" COMMENT="" />
    <EXPORT ORDINAL="11407" NAME="?OnWindowPosChanging@CToolBar@@IEAAXPEAUtagWINDOWPOS@@@Z" PURGE="-1" COMMENT="" />
    <EXPORT ORDINAL="11406" NAME="?OnWindowPosChanging@CStatusBar@@IEAAXPEAUtagWINDOWPOS@@@Z" PURGE="-1" COMMENT="" />
    <EXPORT ORDINAL="11405" NAME="?OnWindowPosChanging@CPaneFrameWnd@@IEAAXPEAUtagWINDOWPOS@@@Z" PURGE="-1" COMMENT="" />
    <EXPORT ORDINAL="11404" NAME="?OnWindowPosChanging@CPaneDialog@@QEAAXPEAUtagWINDOWPOS@@@Z" PURGE="-1" COMMENT="" />
    <EXPORT ORDINAL="11403" NAME="?OnWindowPosChanging@COleIPFrameWnd@@IEAAXPEAUtagWINDOWPOS@@@Z" PURGE="-1" COMMENT="" />
    <EXPORT ORDINAL="11402" NAME="?OnWindowPosChanging@CMFCToolBar@@IEAAXPEAUtagWINDOWPOS@@@Z" PURGE="-1" COMMENT="" />
    <EXPORT ORDINAL="11401" NAME="?OnWindowPosChanging@CMFCTabCtrl@@IEAAXPEAUtagWINDOWPOS@@@Z" PURGE="-1" COMMENT="" />
    <EXPORT ORDINAL="11400" NAME="?OnWindowPosChanging@CMDIChildWnd@@IEAAXPEAUtagWINDOWPOS@@@Z" PURGE="-1" COMMENT="" />
    <EXPORT ORDINAL="11399" NAME="?OnWindowPosChanging@CFrameImpl@@IEAAXPEAUtagWINDOWPOS@@@Z" PURGE="-1" COMMENT="" />
    <EXPORT ORDINAL="11398" NAME="?OnWindowPosChanging@CDockBar@@IEAAXPEAUtagWINDOWPOS@@@Z" PURGE="-1" COMMENT="" />
    <EXPORT ORDINAL="11397" NAME="?OnWindowPosChanging@CControlBar@@QEAAXPEAUtagWINDOWPOS@@@Z" PURGE="-1" COMMENT="" />
    <EXPORT ORDINAL="11396" NAME="?OnWindowPosChanged@CMFCToolBar@@IEAAXPEAUtagWINDOWPOS@@@Z" PURGE="-1" COMMENT="" />
    <EXPORT ORDINAL="11395" NAME="?OnWindowPosChanged@CMFCTabCtrl@@IEAAXPEAUtagWINDOWPOS@@@Z" PURGE="-1" COMMENT="" />
    <EXPORT ORDINAL="11394" NAME="?OnWindowPosChanged@CMFCPopupMenu@@IEAAXPEAUtagWINDOWPOS@@@Z" PURGE="-1" COMMENT="" />
    <EXPORT ORDINAL="11393" NAME="?OnWindowPosChanged@CMFCDesktopAlertWnd@@IEAAXPEAUtagWINDOWPOS@@@Z" PURGE="-1" COMMENT="" />
    <EXPORT ORDINAL="11392" NAME="?OnWindowPosChanged@CMFCBaseTabCtrl@@IEAAXPEAUtagWINDOWPOS@@@Z" PURGE="-1" COMMENT="" />
    <EXPORT ORDINAL="11391" NAME="?OnWindowPosChanged@CMDIFrameWndEx@@IEAAXPEAUtagWINDOWPOS@@@Z" PURGE="-1" COMMENT="" />
    <EXPORT ORDINAL="11390" NAME="?OnWindowPosChanged@CMDIChildWndEx@@IEAAXPEAUtagWINDOWPOS@@@Z" PURGE="-1" COMMENT="" />
    <EXPORT ORDINAL="11389" NAME="?OnWindowPosChanged@CFrameWndEx@@QEAAXPEAUtagWINDOWPOS@@@Z" PURGE="-1" COMMENT="" />
    <EXPORT ORDINAL="11388" NAME="?OnWindowNew@CMDIFrameWndEx@@IEAAXXZ" PURGE="-1" COMMENT="" />
    <EXPORT ORDINAL="11387" NAME="?OnWindowNew@CMDIFrameWnd@@IEAAXXZ" PURGE="-1" COMMENT="" />
    <EXPORT ORDINAL="11386" NAME="?OnWindowMessage@XOleInPlaceObject@COleControl@@UEAAJI_K_JPEA_J@Z" PURGE="-1" COMMENT="" />
    <EXPORT ORDINAL="11384" NAME="?OnWindowHelp@CMFCWindowsManagerDialog@@IEAAXXZ" PURGE="-1" COMMENT="" />
    <EXPORT ORDINAL="11383" NAME="?OnWindowFromPoint@CToolTipCtrl@@IEAA_J_K_J@Z" PURGE="-1" COMMENT="" />
    <EXPORT ORDINAL="11371" NAME="?OnVisible@CHtmlView@@UEAAXH@Z" PURGE="-1" COMMENT="" />
    <EXPORT ORDINAL="11370" NAME="?OnViewDoubleClick@CWinAppEx@@UEAAHPEAVCWnd@@H@Z" PURGE="-1" COMMENT="" />
    <EXPORT ORDINAL="11369" NAME="?OnViewChange@XAdviseSink@COleClientItem@@UEAAXKJ@Z" PURGE="-1" COMMENT="" />
    <EXPORT ORDINAL="11382" NAME="?OnVScroll@CWnd@@IEAAXIIPEAVCScrollBar@@@Z" PURGE="-1" COMMENT="" />
    <EXPORT ORDINAL="11381" NAME="?OnVScroll@CSplitterWnd@@IEAAXIIPEAVCScrollBar@@@Z" PURGE="-1" COMMENT="" />
    <EXPORT ORDINAL="11380" NAME="?OnVScroll@CScrollView@@QEAAXIIPEAVCScrollBar@@@Z" PURGE="-1" COMMENT="" />
    <EXPORT ORDINAL="11379" NAME="?OnVScroll@CPreviewView@@IEAAXIIPEAVCScrollBar@@@Z" PURGE="-1" COMMENT="" />
    <EXPORT ORDINAL="11378" NAME="?OnVScroll@CMFCToolBarButtonsListButton@@IEAAXIIPEAVCScrollBar@@@Z" PURGE="-1" COMMENT="" />
    <EXPORT ORDINAL="11377" NAME="?OnVScroll@CMFCTasksPane@@IEAAXIIPEAVCScrollBar@@@Z" PURGE="-1" COMMENT="" />
    <EXPORT ORDINAL="11376" NAME="?OnVScroll@CMFCRibbonPanelMenuBar@@IEAAXIIPEAVCScrollBar@@@Z" PURGE="-1" COMMENT="" />
    <EXPORT ORDINAL="11375" NAME="?OnVScroll@CMFCPropertyGridCtrl@@IEAAXIIPEAVCScrollBar@@@Z" PURGE="-1" COMMENT="" />
    <EXPORT ORDINAL="11374" NAME="?OnVScroll@CMFCPopupMenu@@IEAAXIIPEAVCScrollBar@@@Z" PURGE="-1" COMMENT="" />
    <EXPORT ORDINAL="11373" NAME="?OnVScroll@CFrameWnd@@IEAAXIIPEAVCScrollBar@@@Z" PURGE="-1" COMMENT="" />
    <EXPORT ORDINAL="11372" NAME="?OnVKeyToItem@CWnd@@IEAAHIPEAVCListBox@@I@Z" PURGE="-1" COMMENT="" />
    <EXPORT ORDINAL="11368" NAME="?OnUserToolTip@CMFCToolBar@@UEBAHPEAVCMFCToolBarButton@@AEAV?$CStringT@DV?$StrTraitMFC_DLL@DV?$ChTraitsCRT@D@ATL@@@@@ATL@@@Z" PURGE="-1" COMMENT="" />
    <EXPORT ORDINAL="11367" NAME="?OnUserToolTip@CMFCTasksPaneToolBar@@MEBAHPEAVCMFCToolBarButton@@AEAV?$CStringT@DV?$StrTraitMFC_DLL@DV?$ChTraitsCRT@D@ATL@@@@@ATL@@@Z" PURGE="-1" COMMENT="" />
    <EXPORT ORDINAL="11366" NAME="?OnUserToolTip@CMFCOutlookBarToolBar@@UEBAHPEAVCMFCToolBarButton@@AEAV?$CStringT@DV?$StrTraitMFC_DLL@DV?$ChTraitsCRT@D@ATL@@@@@ATL@@@Z" PURGE="-1" COMMENT="" />
    <EXPORT ORDINAL="11365" NAME="?OnUserImage@CMFCToolBarButtonCustomizeDialog@@IEAAXXZ" PURGE="-1" COMMENT="" />
    <EXPORT ORDINAL="11364" NAME="?OnUseDblcliick@CMFCMousePropertyPage@@IEAAXXZ" PURGE="-1" COMMENT="" />
    <EXPORT ORDINAL="11363" NAME="?OnUpdateZoomOut@CPreviewView@@IEAAXPEAVCCmdUI@@@Z" PURGE="-1" COMMENT="" />
    <EXPORT ORDINAL="11362" NAME="?OnUpdateZoomIn@CPreviewView@@IEAAXPEAVCCmdUI@@@Z" PURGE="-1" COMMENT="" />
    <EXPORT ORDINAL="11361" NAME="?OnUpdateValue@CMFCPropertyGridProperty@@UEAAHXZ" PURGE="-1" COMMENT="" />
    <EXPORT ORDINAL="11360" NAME="?OnUpdateValue@CMFCPropertyGridColorProperty@@UEAAHXZ" PURGE="-1" COMMENT="" />
    <EXPORT ORDINAL="11359" NAME="?OnUpdateUI@CHtmlView@@UEAAJXZ" PURGE="-1" COMMENT="" />
    <EXPORT ORDINAL="11339" NAME="?OnUpdateToolbarName@CMFCToolBarNameDialog@@IEAAXXZ" PURGE="-1" COMMENT="" />
    <EXPORT ORDINAL="11338" NAME="?OnUpdateToolbarCommand@CMFCOutlookBarTabCtrl@@IEAAXPEAVCCmdUI@@@Z" PURGE="-1" COMMENT="" />
    <EXPORT ORDINAL="11358" NAME="?OnUpdateToolTips@CPaneFrameWnd@@IEAA_J_K_J@Z" PURGE="-1" COMMENT="" />
    <EXPORT ORDINAL="11357" NAME="?OnUpdateToolTips@CMFCToolBar@@IEAA_J_K_J@Z" PURGE="-1" COMMENT="" />
    <EXPORT ORDINAL="11356" NAME="?OnUpdateToolTips@CMFCTabCtrl@@IEAA_J_K_J@Z" PURGE="-1" COMMENT="" />
    <EXPORT ORDINAL="11355" NAME="?OnUpdateToolTips@CMFCRibbonPanelMenuBar@@IEAA_J_K_J@Z" PURGE="-1" COMMENT="" />
    <EXPORT ORDINAL="11354" NAME="?OnUpdateToolTips@CMFCRibbonBar@@IEAA_J_K_J@Z" PURGE="-1" COMMENT="" />
    <EXPORT ORDINAL="11353" NAME="?OnUpdateToolTips@CMFCCaptionBar@@IEAA_J_K_J@Z" PURGE="-1" COMMENT="" />
    <EXPORT ORDINAL="11352" NAME="?OnUpdateToolTips@CMFCButton@@IEAA_J_K_J@Z" PURGE="-1" COMMENT="" />
    <EXPORT ORDINAL="11351" NAME="?OnUpdateToolTips@CDockablePane@@IEAA_J_K_J@Z" PURGE="-1" COMMENT="" />
    <EXPORT ORDINAL="11350" NAME="?OnUpdateToolTip@CMFCToolBarSpinEditBoxButton@@MEAAHPEAVCWnd@@HAEAVCToolTipCtrl@@AEAV?$CStringT@DV?$StrTraitMFC_DLL@DV?$ChTraitsCRT@D@ATL@@@@@ATL@@@Z" PURGE="-1" COMMENT="" />
    <EXPORT ORDINAL="11349" NAME="?OnUpdateToolTip@CMFCToolBarEditBoxButton@@UEAAHPEAVCWnd@@HAEAVCToolTipCtrl@@AEAV?$CStringT@DV?$StrTraitMFC_DLL@DV?$ChTraitsCRT@D@ATL@@@@@ATL@@@Z" PURGE="-1" COMMENT="" />
    <EXPORT ORDINAL="11348" NAME="?OnUpdateToolTip@CMFCToolBarDateTimeCtrl@@UEAAHPEAVCWnd@@HAEAVCToolTipCtrl@@AEAV?$CStringT@DV?$StrTraitMFC_DLL@DV?$ChTraitsCRT@D@ATL@@@@@ATL@@@Z" PURGE="-1" COMMENT="" />
    <EXPORT ORDINAL="11347" NAME="?OnUpdateToolTip@CMFCToolBarComboBoxButton@@UEAAHPEAVCWnd@@HAEAVCToolTipCtrl@@AEAV?$CStringT@DV?$StrTraitMFC_DLL@DV?$ChTraitsCRT@D@ATL@@@@@ATL@@@Z" PURGE="-1" COMMENT="" />
    <EXPORT ORDINAL="11346" NAME="?OnUpdateToolRect@CMFCImageEditorDialog@@IEAAXPEAVCCmdUI@@@Z" PURGE="-1" COMMENT="" />
    <EXPORT ORDINAL="11345" NAME="?OnUpdateToolPick@CMFCImageEditorDialog@@IEAAXPEAVCCmdUI@@@Z" PURGE="-1" COMMENT="" />
    <EXPORT ORDINAL="11344" NAME="?OnUpdateToolPen@CMFCImageEditorDialog@@IEAAXPEAVCCmdUI@@@Z" PURGE="-1" COMMENT="" />
    <EXPORT ORDINAL="11343" NAME="?OnUpdateToolPaste@CMFCImageEditorDialog@@IEAAXPEAVCCmdUI@@@Z" PURGE="-1" COMMENT="" />
    <EXPORT ORDINAL="11342" NAME="?OnUpdateToolLine@CMFCImageEditorDialog@@IEAAXPEAVCCmdUI@@@Z" PURGE="-1" COMMENT="" />
    <EXPORT ORDINAL="11341" NAME="?OnUpdateToolFill@CMFCImageEditorDialog@@IEAAXPEAVCCmdUI@@@Z" PURGE="-1" COMMENT="" />
    <EXPORT ORDINAL="11340" NAME="?OnUpdateToolEllipse@CMFCImageEditorDialog@@IEAAXPEAVCCmdUI@@@Z" PURGE="-1" COMMENT="" />
    <EXPORT ORDINAL="11337" NAME="?OnUpdateTool@CMFCToolBarsToolsPropertyPage@@IEAAXXZ" PURGE="-1" COMMENT="" />
    <EXPORT ORDINAL="11336" NAME="?OnUpdateTabs@CMDIClientAreaWnd@@IEAA_J_K_J@Z" PURGE="-1" COMMENT="" />
    <EXPORT ORDINAL="11334" NAME="?OnUpdateSystemColors@CMFCVisualManagerWindows@@UEAAXXZ" PURGE="-1" COMMENT="" />
    <EXPORT ORDINAL="11335" NAME="?OnUpdateSystemColors@CMFCVisualManagerWindows7@@UEAAXXZ" PURGE="-1" COMMENT="" />
    <EXPORT ORDINAL="11333" NAME="?OnUpdateSystemColors@CMFCVisualManagerVS2008@@UEAAXXZ" PURGE="-1" COMMENT="" />
    <EXPORT ORDINAL="11332" NAME="?OnUpdateSystemColors@CMFCVisualManagerVS2005@@UEAAXXZ" PURGE="-1" COMMENT="" />
    <EXPORT ORDINAL="11331" NAME="?OnUpdateSystemColors@CMFCVisualManagerOfficeXP@@MEAAXXZ" PURGE="-1" COMMENT="" />
    <EXPORT ORDINAL="11330" NAME="?OnUpdateSystemColors@CMFCVisualManagerOffice2007@@UEAAXXZ" PURGE="-1" COMMENT="" />
    <EXPORT ORDINAL="11329" NAME="?OnUpdateSystemColors@CMFCVisualManagerOffice2003@@UEAAXXZ" PURGE="-1" COMMENT="" />
    <EXPORT ORDINAL="11328" NAME="?OnUpdateSystemColors@CMFCVisualManager@@UEAAXXZ" PURGE="-1" COMMENT="" />
    <EXPORT ORDINAL="11327" NAME="?OnUpdateSplitCmd@CView@@IEAAXPEAVCCmdUI@@@Z" PURGE="-1" COMMENT="" />
    <EXPORT ORDINAL="11326" NAME="?OnUpdateSpin@CMFCPropertyGridCtrl@@IEAA_J_K_J@Z" PURGE="-1" COMMENT="" />
    <EXPORT ORDINAL="11325" NAME="?OnUpdateShadows@CMFCRibbonStatusBar@@IEAA_J_K_J@Z" PURGE="-1" COMMENT="" />
    <EXPORT ORDINAL="11324" NAME="?OnUpdateRecordPrev@CRecordView@@IEAAXPEAVCCmdUI@@@Z" PURGE="-1" COMMENT="" />
    <EXPORT ORDINAL="11323" NAME="?OnUpdateRecordPrev@COleDBRecordView@@IEAAXPEAVCCmdUI@@@Z" PURGE="-1" COMMENT="" />
    <EXPORT ORDINAL="11322" NAME="?OnUpdateRecordNext@CRecordView@@IEAAXPEAVCCmdUI@@@Z" PURGE="-1" COMMENT="" />
    <EXPORT ORDINAL="11321" NAME="?OnUpdateRecordNext@COleDBRecordView@@IEAAXPEAVCCmdUI@@@Z" PURGE="-1" COMMENT="" />
    <EXPORT ORDINAL="11320" NAME="?OnUpdateRecordLast@CRecordView@@IEAAXPEAVCCmdUI@@@Z" PURGE="-1" COMMENT="" />
    <EXPORT ORDINAL="11319" NAME="?OnUpdateRecordLast@COleDBRecordView@@IEAAXPEAVCCmdUI@@@Z" PURGE="-1" COMMENT="" />
    <EXPORT ORDINAL="11318" NAME="?OnUpdateRecordFirst@CRecordView@@IEAAXPEAVCCmdUI@@@Z" PURGE="-1" COMMENT="" />
    <EXPORT ORDINAL="11317" NAME="?OnUpdateRecordFirst@COleDBRecordView@@IEAAXPEAVCCmdUI@@@Z" PURGE="-1" COMMENT="" />
    <EXPORT ORDINAL="11316" NAME="?OnUpdateRecentFileMenu@CWinApp@@IEAAXPEAVCCmdUI@@@Z" PURGE="-1" COMMENT="" />
    <EXPORT ORDINAL="11315" NAME="?OnUpdateR@CMFCMaskedEdit@@IEAAHXZ" PURGE="-1" COMMENT="" />
    <EXPORT ORDINAL="11313" NAME="?OnUpdatePreviewNumPage@CPreviewViewEx@@IEAAXPEAVCCmdUI@@@Z" PURGE="-1" COMMENT="" />
    <EXPORT ORDINAL="11314" NAME="?OnUpdatePrevPage@CPreviewView@@IEAAXPEAVCCmdUI@@@Z" PURGE="-1" COMMENT="" />
    <EXPORT ORDINAL="11312" NAME="?OnUpdatePasteMenu@COleDocument@@IEAAXPEAVCCmdUI@@@Z" PURGE="-1" COMMENT="" />
    <EXPORT ORDINAL="11311" NAME="?OnUpdatePasteLinkMenu@COleDocument@@IEAAXPEAVCCmdUI@@@Z" PURGE="-1" COMMENT="" />
    <EXPORT ORDINAL="11310" NAME="?OnUpdateParaRight@CRichEditView@@IEAAXPEAVCCmdUI@@@Z" PURGE="-1" COMMENT="" />
    <EXPORT ORDINAL="11309" NAME="?OnUpdateParaLeft@CRichEditView@@IEAAXPEAVCCmdUI@@@Z" PURGE="-1" COMMENT="" />
    <EXPORT ORDINAL="11308" NAME="?OnUpdateParaCenter@CRichEditView@@IEAAXPEAVCCmdUI@@@Z" PURGE="-1" COMMENT="" />
    <EXPORT ORDINAL="11307" NAME="?OnUpdateParaAlign@CRichEditView@@QEAAXPEAVCCmdUI@@G@Z" PURGE="-1" COMMENT="" />
    <EXPORT ORDINAL="11306" NAME="?OnUpdatePaneMenu@COleIPFrameWndEx@@IEAAXPEAVCCmdUI@@@Z" PURGE="-1" COMMENT="" />
    <EXPORT ORDINAL="11305" NAME="?OnUpdatePaneMenu@COleDocIPFrameWndEx@@IEAAXPEAVCCmdUI@@@Z" PURGE="-1" COMMENT="" />
    <EXPORT ORDINAL="11304" NAME="?OnUpdatePaneMenu@CMDIFrameWndEx@@IEAAXPEAVCCmdUI@@@Z" PURGE="-1" COMMENT="" />
    <EXPORT ORDINAL="11303" NAME="?OnUpdatePaneMenu@CFrameWndEx@@QEAAXPEAVCCmdUI@@@Z" PURGE="-1" COMMENT="" />
    <EXPORT ORDINAL="11302" NAME="?OnUpdateObjectVerbPopup@COleDocument@@IEAAXPEAVCCmdUI@@@Z" PURGE="-1" COMMENT="" />
    <EXPORT ORDINAL="11301" NAME="?OnUpdateObjectVerbMenu@COleDocument@@IEAAXPEAVCCmdUI@@@Z" PURGE="-1" COMMENT="" />
    <EXPORT ORDINAL="11300" NAME="?OnUpdateNumPageChange@CPreviewView@@IEAAXPEAVCCmdUI@@@Z" PURGE="-1" COMMENT="" />
    <EXPORT ORDINAL="11299" NAME="?OnUpdateNextPaneMenu@CView@@IEAAXPEAVCCmdUI@@@Z" PURGE="-1" COMMENT="" />
    <EXPORT ORDINAL="11298" NAME="?OnUpdateNextPage@CPreviewView@@IEAAXPEAVCCmdUI@@@Z" PURGE="-1" COMMENT="" />
    <EXPORT ORDINAL="11297" NAME="?OnUpdateNewShortcutKey@CMFCToolBarsKeyboardPropertyPage@@IEAAXXZ" PURGE="-1" COMMENT="" />
    <EXPORT ORDINAL="11296" NAME="?OnUpdateNewShortcutKey@CMFCRibbonKeyboardCustomizeDialog@@IEAAXXZ" PURGE="-1" COMMENT="" />
    <EXPORT ORDINAL="11295" NAME="?OnUpdateNeedText@CRichEditView@@IEAAXPEAVCCmdUI@@@Z" PURGE="-1" COMMENT="" />
    <EXPORT ORDINAL="11294" NAME="?OnUpdateNeedText@CEditView@@IEAAXPEAVCCmdUI@@@Z" PURGE="-1" COMMENT="" />
    <EXPORT ORDINAL="11293" NAME="?OnUpdateNeedSel@CRichEditView@@IEAAXPEAVCCmdUI@@@Z" PURGE="-1" COMMENT="" />
    <EXPORT ORDINAL="11292" NAME="?OnUpdateNeedSel@CEditView@@IEAAXPEAVCCmdUI@@@Z" PURGE="-1" COMMENT="" />
    <EXPORT ORDINAL="11291" NAME="?OnUpdateNeedFind@CRichEditView@@IEAAXPEAVCCmdUI@@@Z" PURGE="-1" COMMENT="" />
    <EXPORT ORDINAL="11290" NAME="?OnUpdateNeedFind@CEditView@@IEAAXPEAVCCmdUI@@@Z" PURGE="-1" COMMENT="" />
    <EXPORT ORDINAL="11289" NAME="?OnUpdateNeedClip@CRichEditView@@IEAAXPEAVCCmdUI@@@Z" PURGE="-1" COMMENT="" />
    <EXPORT ORDINAL="11288" NAME="?OnUpdateNeedClip@CEditView@@IEAAXPEAVCCmdUI@@@Z" PURGE="-1" COMMENT="" />
    <EXPORT ORDINAL="11287" NAME="?OnUpdateMDIWindowCmd@CMDIFrameWnd@@IEAAXPEAVCCmdUI@@@Z" PURGE="-1" COMMENT="" />
    <EXPORT ORDINAL="11286" NAME="?OnUpdateKeyIndicator@CFrameWnd@@IEAAXPEAVCCmdUI@@@Z" PURGE="-1" COMMENT="" />
    <EXPORT ORDINAL="11285" NAME="?OnUpdateItems@COleServerItem@@UEAAXXZ" PURGE="-1" COMMENT="" />
    <EXPORT ORDINAL="11284" NAME="?OnUpdateFrameTitle@COleFrameHook@@UEAAHXZ" PURGE="-1" COMMENT="" />
    <EXPORT ORDINAL="11283" NAME="?OnUpdateFrameTitle@COleClientItem@@UEAAHXZ" PURGE="-1" COMMENT="" />
    <EXPORT ORDINAL="11282" NAME="?OnUpdateFrameTitle@CMDIFrameWnd@@UEAAXH@Z" PURGE="-1" COMMENT="" />
    <EXPORT ORDINAL="11281" NAME="?OnUpdateFrameTitle@CMDIChildWndEx@@UEAAXH@Z" PURGE="-1" COMMENT="" />
    <EXPORT ORDINAL="11280" NAME="?OnUpdateFrameTitle@CMDIChildWnd@@MEAAXH@Z" PURGE="-1" COMMENT="" />
    <EXPORT ORDINAL="11279" NAME="?OnUpdateFrameTitle@CFrameWndEx@@UEAAXH@Z" PURGE="-1" COMMENT="" />
    <EXPORT ORDINAL="11278" NAME="?OnUpdateFrameTitle@CFrameWnd@@UEAAXH@Z" PURGE="-1" COMMENT="" />
    <EXPORT ORDINAL="11277" NAME="?OnUpdateFrameMenu@CMDIFrameWndEx@@UEAAXPEAUHMENU__@@@Z" PURGE="-1" COMMENT="" />
    <EXPORT ORDINAL="11276" NAME="?OnUpdateFrameMenu@CMDIFrameWnd@@UEAAXPEAUHMENU__@@@Z" PURGE="-1" COMMENT="" />
    <EXPORT ORDINAL="11275" NAME="?OnUpdateFrameMenu@CMDIChildWnd@@UEAAXHPEAVCWnd@@PEAUHMENU__@@@Z" PURGE="-1" COMMENT="" />
    <EXPORT ORDINAL="11274" NAME="?OnUpdateFrameMenu@CFrameWndEx@@UEAAXPEAUHMENU__@@@Z" PURGE="-1" COMMENT="" />
    <EXPORT ORDINAL="11273" NAME="?OnUpdateFrameMenu@CFrameWnd@@UEAAXPEAUHMENU__@@@Z" PURGE="-1" COMMENT="" />
    <EXPORT ORDINAL="11272" NAME="?OnUpdateForward@CMFCTasksPane@@IEAAXPEAVCCmdUI@@@Z" PURGE="-1" COMMENT="" />
    <EXPORT ORDINAL="11271" NAME="?OnUpdateFileUpdate@COleServerDoc@@IEAAXPEAVCCmdUI@@@Z" PURGE="-1" COMMENT="" />
    <EXPORT ORDINAL="11270" NAME="?OnUpdateFileSendMail@CDocument@@IEAAXPEAVCCmdUI@@@Z" PURGE="-1" COMMENT="" />
    <EXPORT ORDINAL="11269" NAME="?OnUpdateFileExit@COleServerDoc@@IEAAXPEAVCCmdUI@@@Z" PURGE="-1" COMMENT="" />
    <EXPORT ORDINAL="11268" NAME="?OnUpdateEditUndo@CRichEditView@@IEAAXPEAVCCmdUI@@@Z" PURGE="-1" COMMENT="" />
    <EXPORT ORDINAL="11267" NAME="?OnUpdateEditUndo@CEditView@@IEAAXPEAVCCmdUI@@@Z" PURGE="-1" COMMENT="" />
    <EXPORT ORDINAL="11266" NAME="?OnUpdateEditRedo@CRichEditView@@IEAAXPEAVCCmdUI@@@Z" PURGE="-1" COMMENT="" />
    <EXPORT ORDINAL="11265" NAME="?OnUpdateEditProperties@CRichEditView@@IEAAXPEAVCCmdUI@@@Z" PURGE="-1" COMMENT="" />
    <EXPORT ORDINAL="11264" NAME="?OnUpdateEditPasteSpecial@CRichEditView@@IEAAXPEAVCCmdUI@@@Z" PURGE="-1" COMMENT="" />
    <EXPORT ORDINAL="11263" NAME="?OnUpdateEditPaste@CHtmlView@@IEAAXPEAVCCmdUI@@@Z" PURGE="-1" COMMENT="" />
    <EXPORT ORDINAL="11262" NAME="?OnUpdateEditLinksMenu@COleDocument@@IEAAXPEAVCCmdUI@@@Z" PURGE="-1" COMMENT="" />
    <EXPORT ORDINAL="11261" NAME="?OnUpdateEditCut@CHtmlView@@IEAAXPEAVCCmdUI@@@Z" PURGE="-1" COMMENT="" />
    <EXPORT ORDINAL="11260" NAME="?OnUpdateEditCopy@CHtmlView@@IEAAXPEAVCCmdUI@@@Z" PURGE="-1" COMMENT="" />
    <EXPORT ORDINAL="11259" NAME="?OnUpdateEditChangeIcon@COleDocument@@IEAAXPEAVCCmdUI@@@Z" PURGE="-1" COMMENT="" />
    <EXPORT ORDINAL="11258" NAME="?OnUpdateDocument@COleServerDoc@@UEAAHXZ" PURGE="-1" COMMENT="" />
    <EXPORT ORDINAL="11257" NAME="?OnUpdateControlBarMenu@COleIPFrameWnd@@IEAAXPEAVCCmdUI@@@Z" PURGE="-1" COMMENT="" />
    <EXPORT ORDINAL="11256" NAME="?OnUpdateControlBarMenu@CFrameWnd@@QEAAXPEAVCCmdUI@@@Z" PURGE="-1" COMMENT="" />
    <EXPORT ORDINAL="11255" NAME="?OnUpdateContextHelp@CFrameWnd@@IEAAXPEAVCCmdUI@@@Z" PURGE="-1" COMMENT="" />
    <EXPORT ORDINAL="11254" NAME="?OnUpdateCmdUI@CToolBar@@UEAAXPEAVCFrameWnd@@H@Z" PURGE="-1" COMMENT="" />
    <EXPORT ORDINAL="11253" NAME="?OnUpdateCmdUI@CStatusBar@@UEAAXPEAVCFrameWnd@@H@Z" PURGE="-1" COMMENT="" />
    <EXPORT ORDINAL="11252" NAME="?OnUpdateCmdUI@CReBar@@UEAAXPEAVCFrameWnd@@H@Z" PURGE="-1" COMMENT="" />
    <EXPORT ORDINAL="11251" NAME="?OnUpdateCmdUI@CPaneDialog@@UEAAXPEAVCFrameWnd@@H@Z" PURGE="-1" COMMENT="" />
    <EXPORT ORDINAL="11250" NAME="?OnUpdateCmdUI@COleResizeBar@@UEAAXPEAVCFrameWnd@@H@Z" PURGE="-1" COMMENT="" />
    <EXPORT ORDINAL="11249" NAME="?OnUpdateCmdUI@CMFCToolBar@@UEAAXPEAVCFrameWnd@@H@Z" PURGE="-1" COMMENT="" />
    <EXPORT ORDINAL="11248" NAME="?OnUpdateCmdUI@CMFCTasksPane@@UEAAXPEAVCFrameWnd@@H@Z" PURGE="-1" COMMENT="" />
    <EXPORT ORDINAL="11247" NAME="?OnUpdateCmdUI@CMFCStatusBar@@MEAAXPEAVCFrameWnd@@H@Z" PURGE="-1" COMMENT="" />
    <EXPORT ORDINAL="11246" NAME="?OnUpdateCmdUI@CMFCRibbonStatusBar@@MEAAXPEAVCFrameWnd@@H@Z" PURGE="-1" COMMENT="" />
    <EXPORT ORDINAL="11245" NAME="?OnUpdateCmdUI@CMFCRibbonPanelMenuBar@@UEAAXPEAVCFrameWnd@@H@Z" PURGE="-1" COMMENT="" />
    <EXPORT ORDINAL="11244" NAME="?OnUpdateCmdUI@CMFCRibbonPanel@@MEAAXPEAVCMFCRibbonCmdUI@@PEAVCFrameWnd@@H@Z" PURGE="-1" COMMENT="" />
    <EXPORT ORDINAL="11243" NAME="?OnUpdateCmdUI@CMFCRibbonCategory@@UEAAXPEAVCMFCRibbonCmdUI@@PEAVCFrameWnd@@H@Z" PURGE="-1" COMMENT="" />
    <EXPORT ORDINAL="11242" NAME="?OnUpdateCmdUI@CMFCRibbonButtonsGroup@@MEAAXPEAVCMFCRibbonCmdUI@@PEAVCFrameWnd@@H@Z" PURGE="-1" COMMENT="" />
    <EXPORT ORDINAL="11241" NAME="?OnUpdateCmdUI@CMFCRibbonBaseElement@@MEAAXPEAVCMFCRibbonCmdUI@@PEAVCFrameWnd@@H@Z" PURGE="-1" COMMENT="" />
    <EXPORT ORDINAL="11240" NAME="?OnUpdateCmdUI@CMFCRibbonBar@@MEAAXPEAVCFrameWnd@@H@Z" PURGE="-1" COMMENT="" />
    <EXPORT ORDINAL="11239" NAME="?OnUpdateCmdUI@CMFCReBar@@UEAAXPEAVCFrameWnd@@H@Z" PURGE="-1" COMMENT="" />
    <EXPORT ORDINAL="11238" NAME="?OnUpdateCmdUI@CMFCOutlookBarToolBar@@UEAAXPEAVCFrameWnd@@H@Z" PURGE="-1" COMMENT="" />
    <EXPORT ORDINAL="11237" NAME="?OnUpdateCmdUI@CMFCDropDownToolBar@@UEAAXPEAVCFrameWnd@@H@Z" PURGE="-1" COMMENT="" />
    <EXPORT ORDINAL="11236" NAME="?OnUpdateCmdUI@CMFCColorBar@@MEAAXPEAVCFrameWnd@@H@Z" PURGE="-1" COMMENT="" />
    <EXPORT ORDINAL="11235" NAME="?OnUpdateCmdUI@CMFCCaptionBar@@MEAAXPEAVCFrameWnd@@H@Z" PURGE="-1" COMMENT="" />
    <EXPORT ORDINAL="11233" NAME="?OnUpdateCmdUI@CDockablePane@@UEAAXPEAVCFrameWnd@@H@Z" PURGE="-1" COMMENT="" />
    <EXPORT ORDINAL="11234" NAME="?OnUpdateCmdUI@CDockBar@@MEAAXPEAVCFrameWnd@@H@Z" PURGE="-1" COMMENT="" />
    <EXPORT ORDINAL="11232" NAME="?OnUpdateCmdUI@CDialogBar@@UEAAXPEAVCFrameWnd@@H@Z" PURGE="-1" COMMENT="" />
    <EXPORT ORDINAL="11231" NAME="?OnUpdateClose@CMFCTasksPane@@IEAAXPEAVCCmdUI@@@Z" PURGE="-1" COMMENT="" />
    <EXPORT ORDINAL="11230" NAME="?OnUpdateCharUnderline@CRichEditView@@IEAAXPEAVCCmdUI@@@Z" PURGE="-1" COMMENT="" />
    <EXPORT ORDINAL="11229" NAME="?OnUpdateCharItalic@CRichEditView@@IEAAXPEAVCCmdUI@@@Z" PURGE="-1" COMMENT="" />
    <EXPORT ORDINAL="11228" NAME="?OnUpdateCharEffect@CRichEditView@@QEAAXPEAVCCmdUI@@KK@Z" PURGE="-1" COMMENT="" />
    <EXPORT ORDINAL="11227" NAME="?OnUpdateCharBold@CRichEditView@@IEAAXPEAVCCmdUI@@@Z" PURGE="-1" COMMENT="" />
    <EXPORT ORDINAL="11226" NAME="?OnUpdateBullet@CRichEditView@@IEAAXPEAVCCmdUI@@@Z" PURGE="-1" COMMENT="" />
    <EXPORT ORDINAL="11225" NAME="?OnUpdateBack@CMFCTasksPane@@IEAAXPEAVCCmdUI@@@Z" PURGE="-1" COMMENT="" />
    <EXPORT ORDINAL="11224" NAME="?OnUpdate@CView@@MEAAXPEAV1@_JPEAVCObject@@@Z" PURGE="-1" COMMENT="" />
    <EXPORT ORDINAL="11223" NAME="?OnUpdate@COleServerItem@@UEAAXPEAV1@_JPEAVCObject@@W4tagDVASPECT@@@Z" PURGE="-1" COMMENT="" />
    <EXPORT ORDINAL="11222" NAME="?OnUp@CMFCRibbonCustomizePropertyPage@@IEAAXXZ" PURGE="-1" COMMENT="" />
    <EXPORT ORDINAL="11221" NAME="?OnUnloadHandler@CDocument@@UEAAXXZ" PURGE="-1" COMMENT="" />
    <EXPORT ORDINAL="11220" NAME="?OnUIDeactivate@XOleIPSite@COleControlSite@@UEAAJH@Z" PURGE="-1" COMMENT="" />
    <EXPORT ORDINAL="11219" NAME="?OnUIDeactivate@XOleIPSite@COleClientItem@@UEAAJH@Z" PURGE="-1" COMMENT="" />
    <EXPORT ORDINAL="11218" NAME="?OnUIDeactivate@COleControlContainer@@UEAAXPEAVCOleControlSite@@@Z" PURGE="-1" COMMENT="" />
    <EXPORT ORDINAL="11217" NAME="?OnUIActivate@XOleIPSite@COleControlSite@@UEAAJXZ" PURGE="-1" COMMENT="" />
    <EXPORT ORDINAL="11216" NAME="?OnUIActivate@XOleIPSite@COleClientItem@@UEAAJXZ" PURGE="-1" COMMENT="" />
    <EXPORT ORDINAL="11215" NAME="?OnUIActivate@COleControlContainer@@UEAAXPEAVCOleControlSite@@@Z" PURGE="-1" COMMENT="" />
    <EXPORT ORDINAL="11214" NAME="?OnTypeChange@XFileDialogEvents@CFileDialog@@UEAAJPEAUIFileDialog@@@Z" PURGE="-1" COMMENT="" />
    <EXPORT ORDINAL="11213" NAME="?OnTypeChange@CFileDialog@@MEAAXXZ" PURGE="-1" COMMENT="" />
    <EXPORT ORDINAL="11212" NAME="?OnTranslateUrl@CHtmlView@@UEAAJKPEA_WPEAPEA_W@Z" PURGE="-1" COMMENT="" />
    <EXPORT ORDINAL="11211" NAME="?OnTranslateAccelerator@CHtmlView@@UEAAJPEAUtagMSG@@PEBU_GUID@@K@Z" PURGE="-1" COMMENT="" />
    <EXPORT ORDINAL="11210" NAME="?OnTrackCaptionButtons@CPaneFrameWnd@@MEAAXVCPoint@@@Z" PURGE="-1" COMMENT="" />
    <EXPORT ORDINAL="11209" NAME="?OnTrackCaptionButtons@CMFCTasksPaneFrameWnd@@MEAAXVCPoint@@@Z" PURGE="-1" COMMENT="" />
    <EXPORT ORDINAL="11208" NAME="?OnTrackCaptionButtons@CMFCTasksPane@@MEAAXVCPoint@@@Z" PURGE="-1" COMMENT="" />
    <EXPORT ORDINAL="11207" NAME="?OnTrackCaptionButtons@CFrameImpl@@IEAAXVCPoint@@@Z" PURGE="-1" COMMENT="" />
    <EXPORT ORDINAL="11206" NAME="?OnTrackCaptionButtons@CDockablePane@@MEAAXVCPoint@@@Z" PURGE="-1" COMMENT="" />
    <EXPORT ORDINAL="11205" NAME="?OnTouchMessage@CWnd@@IEAA_J_K_J@Z" PURGE="-1" COMMENT="" />
    <EXPORT ORDINAL="11204" NAME="?OnTouchInputs@CWnd@@MEAAHIPEAUtagTOUCHINPUT@@@Z" PURGE="-1" COMMENT="" />
    <EXPORT ORDINAL="11203" NAME="?OnTouchInput@CWnd@@MEAAHVCPoint@@HHPEAUtagTOUCHINPUT@@@Z" PURGE="-1" COMMENT="" />
    <EXPORT ORDINAL="11180" NAME="?OnToolbarText@CMFCToolBar@@IEAAXXZ" PURGE="-1" COMMENT="" />
    <EXPORT ORDINAL="11179" NAME="?OnToolbarText@CMFCPopupMenuBar@@IEAAXXZ" PURGE="-1" COMMENT="" />
    <EXPORT ORDINAL="11178" NAME="?OnToolbarStartGroup@CMFCToolBar@@IEAAXXZ" PURGE="-1" COMMENT="" />
    <EXPORT ORDINAL="11177" NAME="?OnToolbarReset@CMFCToolBar@@IEAAXXZ" PURGE="-1" COMMENT="" />
    <EXPORT ORDINAL="11176" NAME="?OnToolbarReset@CMFCRibbonCustomizePropertyPage@@IEAAXXZ" PURGE="-1" COMMENT="" />
    <EXPORT ORDINAL="11175" NAME="?OnToolbarNewMenu@CMFCToolBar@@IEAAXXZ" PURGE="-1" COMMENT="" />
    <EXPORT ORDINAL="11174" NAME="?OnToolbarImageAndText@CMFCToolBar@@IEAAXXZ" PURGE="-1" COMMENT="" />
    <EXPORT ORDINAL="11173" NAME="?OnToolbarImageAndText@CMFCPopupMenuBar@@IEAAXXZ" PURGE="-1" COMMENT="" />
    <EXPORT ORDINAL="11172" NAME="?OnToolbarImage@CMFCToolBar@@IEAAXXZ" PURGE="-1" COMMENT="" />
    <EXPORT ORDINAL="11171" NAME="?OnToolbarDelete@COleIPFrameWndEx@@IEAA_J_K_J@Z" PURGE="-1" COMMENT="" />
    <EXPORT ORDINAL="11170" NAME="?OnToolbarDelete@COleDocIPFrameWndEx@@IEAA_J_K_J@Z" PURGE="-1" COMMENT="" />
    <EXPORT ORDINAL="11169" NAME="?OnToolbarDelete@CMFCToolBar@@IEAAXXZ" PURGE="-1" COMMENT="" />
    <EXPORT ORDINAL="11168" NAME="?OnToolbarDelete@CMDIFrameWndEx@@IEAA_J_K_J@Z" PURGE="-1" COMMENT="" />
    <EXPORT ORDINAL="11167" NAME="?OnToolbarDelete@CFrameWndEx@@QEAA_J_K_J@Z" PURGE="-1" COMMENT="" />
    <EXPORT ORDINAL="11166" NAME="?OnToolbarCreateNew@COleIPFrameWndEx@@IEAA_J_K_J@Z" PURGE="-1" COMMENT="" />
    <EXPORT ORDINAL="11165" NAME="?OnToolbarCreateNew@COleDocIPFrameWndEx@@IEAA_J_K_J@Z" PURGE="-1" COMMENT="" />
    <EXPORT ORDINAL="11164" NAME="?OnToolbarCreateNew@CMDIFrameWndEx@@IEAA_J_K_J@Z" PURGE="-1" COMMENT="" />
    <EXPORT ORDINAL="11163" NAME="?OnToolbarCreateNew@CFrameWndEx@@QEAA_J_K_J@Z" PURGE="-1" COMMENT="" />
    <EXPORT ORDINAL="11162" NAME="?OnToolbarContextMenu@COleIPFrameWndEx@@IEAA_J_K_J@Z" PURGE="-1" COMMENT="" />
    <EXPORT ORDINAL="11161" NAME="?OnToolbarContextMenu@COleDocIPFrameWndEx@@IEAA_J_K_J@Z" PURGE="-1" COMMENT="" />
    <EXPORT ORDINAL="11160" NAME="?OnToolbarContextMenu@CMDIFrameWndEx@@IEAA_J_K_J@Z" PURGE="-1" COMMENT="" />
    <EXPORT ORDINAL="11159" NAME="?OnToolbarContextMenu@CFrameWndEx@@QEAA_J_K_J@Z" PURGE="-1" COMMENT="" />
    <EXPORT ORDINAL="11158" NAME="?OnToolbarCommand@CMFCOutlookBarTabCtrl@@IEAAXI@Z" PURGE="-1" COMMENT="" />
    <EXPORT ORDINAL="11157" NAME="?OnToolbarAppearance@CMFCToolBar@@IEAAXXZ" PURGE="-1" COMMENT="" />
    <EXPORT ORDINAL="11202" NAME="?OnToolTipText@CMDIChildWnd@@IEAAHIPEAUtagNMHDR@@PEA_J@Z" PURGE="-1" COMMENT="" />
    <EXPORT ORDINAL="11201" NAME="?OnToolTipText@CFrameWnd@@IEAAHIPEAUtagNMHDR@@PEA_J@Z" PURGE="-1" COMMENT="" />
    <EXPORT ORDINAL="11200" NAME="?OnToolRect@CMFCImageEditorDialog@@IEAAXXZ" PURGE="-1" COMMENT="" />
    <EXPORT ORDINAL="11199" NAME="?OnToolPick@CMFCImageEditorDialog@@IEAAXXZ" PURGE="-1" COMMENT="" />
    <EXPORT ORDINAL="11198" NAME="?OnToolPen@CMFCImageEditorDialog@@IEAAXXZ" PURGE="-1" COMMENT="" />
    <EXPORT ORDINAL="11197" NAME="?OnToolPaste@CMFCImageEditorDialog@@IEAAXXZ" PURGE="-1" COMMENT="" />
    <EXPORT ORDINAL="11196" NAME="?OnToolLine@CMFCImageEditorDialog@@IEAAXXZ" PURGE="-1" COMMENT="" />
    <EXPORT ORDINAL="11195" NAME="?OnToolHitTest@CWnd@@UEBA_JVCPoint@@PEAUtagTOOLINFOA@@@Z" PURGE="-1" COMMENT="" />
    <EXPORT ORDINAL="11194" NAME="?OnToolHitTest@CToolBar@@UEBA_JVCPoint@@PEAUtagTOOLINFOA@@@Z" PURGE="-1" COMMENT="" />
    <EXPORT ORDINAL="11193" NAME="?OnToolHitTest@CReBar@@UEBA_JVCPoint@@PEAUtagTOOLINFOA@@@Z" PURGE="-1" COMMENT="" />
    <EXPORT ORDINAL="11192" NAME="?OnToolHitTest@CMFCToolBarButton@@UEAAHPEBVCWnd@@PEAUtagTOOLINFOA@@@Z" PURGE="-1" COMMENT="" />
    <EXPORT ORDINAL="11191" NAME="?OnToolHitTest@CMFCToolBar@@MEBA_JVCPoint@@PEAUtagTOOLINFOA@@@Z" PURGE="-1" COMMENT="" />
    <EXPORT ORDINAL="11190" NAME="?OnToolHitTest@CMFCStatusBar@@MEBA_JVCPoint@@PEAUtagTOOLINFOA@@@Z" PURGE="-1" COMMENT="" />
    <EXPORT ORDINAL="11189" NAME="?OnToolHitTest@CMFCShowAllButton@@UEAAHPEBVCWnd@@PEAUtagTOOLINFOA@@@Z" PURGE="-1" COMMENT="" />
    <EXPORT ORDINAL="11188" NAME="?OnToolHitTest@CMFCReBar@@UEBA_JVCPoint@@PEAUtagTOOLINFOA@@@Z" PURGE="-1" COMMENT="" />
    <EXPORT ORDINAL="11187" NAME="?OnToolHitTest@CMFCPrintPreviewToolBar@@MEBA_JVCPoint@@PEAUtagTOOLINFOA@@@Z" PURGE="-1" COMMENT="" />
    <EXPORT ORDINAL="11186" NAME="?OnToolHitTest@CMFCPopupMenuBar@@MEBA_JVCPoint@@PEAUtagTOOLINFOA@@@Z" PURGE="-1" COMMENT="" />
    <EXPORT ORDINAL="11185" NAME="?OnToolHitTest@CMFCMenuBar@@UEBA_JVCPoint@@PEAUtagTOOLINFOA@@@Z" PURGE="-1" COMMENT="" />
    <EXPORT ORDINAL="11184" NAME="?OnToolFill@CMFCImageEditorDialog@@IEAAXXZ" PURGE="-1" COMMENT="" />
    <EXPORT ORDINAL="11183" NAME="?OnToolEllipse@CMFCImageEditorDialog@@IEAAXXZ" PURGE="-1" COMMENT="" />
    <EXPORT ORDINAL="11182" NAME="?OnToolCopy@CMFCImageEditorDialog@@IEAAXXZ" PURGE="-1" COMMENT="" />
    <EXPORT ORDINAL="11181" NAME="?OnToolClear@CMFCImageEditorDialog@@IEAAXXZ" PURGE="-1" COMMENT="" />
    <EXPORT ORDINAL="11156" NAME="?OnToolBar@CHtmlView@@UEAAXH@Z" PURGE="-1" COMMENT="" />
    <EXPORT ORDINAL="11155" NAME="?OnTitleChange@CHtmlView@@UEAAXPEBD@Z" PURGE="-1" COMMENT="" />
    <EXPORT ORDINAL="11154" NAME="?OnTimer@CPaneFrameWnd@@IEAAX_K@Z" PURGE="-1" COMMENT="" />
    <EXPORT ORDINAL="11153" NAME="?OnTimer@CMFCTasksPane@@IEAAX_K@Z" PURGE="-1" COMMENT="" />
    <EXPORT ORDINAL="11152" NAME="?OnTimer@CMFCStatusBar@@IEAAX_K@Z" PURGE="-1" COMMENT="" />
    <EXPORT ORDINAL="11151" NAME="?OnTimer@CMFCRibbonPanelMenuBar@@IEAAX_K@Z" PURGE="-1" COMMENT="" />
    <EXPORT ORDINAL="11150" NAME="?OnTimer@CMFCRibbonMiniToolBar@@IEAAX_K@Z" PURGE="-1" COMMENT="" />
    <EXPORT ORDINAL="11149" NAME="?OnTimer@CMFCRibbonBar@@IEAAX_K@Z" PURGE="-1" COMMENT="" />
    <EXPORT ORDINAL="11148" NAME="?OnTimer@CMFCPopupMenuBar@@IEAAX_K@Z" PURGE="-1" COMMENT="" />
    <EXPORT ORDINAL="11147" NAME="?OnTimer@CMFCPopupMenu@@IEAAX_K@Z" PURGE="-1" COMMENT="" />
    <EXPORT ORDINAL="11146" NAME="?OnTimer@CMFCOutlookBarPane@@IEAAX_K@Z" PURGE="-1" COMMENT="" />
    <EXPORT ORDINAL="11145" NAME="?OnTimer@CMFCMenuBar@@IEAAX_K@Z" PURGE="-1" COMMENT="" />
    <EXPORT ORDINAL="11144" NAME="?OnTimer@CMFCDesktopAlertWnd@@IEAAX_K@Z" PURGE="-1" COMMENT="" />
    <EXPORT ORDINAL="11143" NAME="?OnTimer@CMFCButton@@IEAAX_K@Z" PURGE="-1" COMMENT="" />
    <EXPORT ORDINAL="11142" NAME="?OnTimer@CMFCAutoHideBar@@IEAAX_K@Z" PURGE="-1" COMMENT="" />
    <EXPORT ORDINAL="11141" NAME="?OnTimer@CDockablePane@@IEAAX_K@Z" PURGE="-1" COMMENT="" />
    <EXPORT ORDINAL="11140" NAME="?OnTimer@CControlBar@@QEAAX_K@Z" PURGE="-1" COMMENT="" />
    <EXPORT ORDINAL="11139" NAME="?OnTilevert@CMFCWindowsManagerDialog@@IEAAXXZ" PURGE="-1" COMMENT="" />
    <EXPORT ORDINAL="11138" NAME="?OnTilehorz@CMFCWindowsManagerDialog@@IEAAXXZ" PURGE="-1" COMMENT="" />
    <EXPORT ORDINAL="11137" NAME="?OnThemeChanged@CControlBar@@QEAA_JXZ" PURGE="-1" COMMENT="" />
    <EXPORT ORDINAL="11136" NAME="?OnTheaterMode@CHtmlView@@UEAAXH@Z" PURGE="-1" COMMENT="" />
    <EXPORT ORDINAL="11135" NAME="?OnTextNotFound@CRichEditView@@MEAAXPEBD@Z" PURGE="-1" COMMENT="" />
    <EXPORT ORDINAL="11134" NAME="?OnTextNotFound@CEditView@@MEAAXPEBD@Z" PURGE="-1" COMMENT="" />
    <EXPORT ORDINAL="11133" NAME="?OnTextLabels@CMFCToolBarsListPropertyPage@@IEAAXXZ" PURGE="-1" COMMENT="" />
    <EXPORT ORDINAL="11132" NAME="?OnTextChanged@COleControl@@UEAAXXZ" PURGE="-1" COMMENT="" />
    <EXPORT ORDINAL="11131" NAME="?OnText@CMFCToolBarButtonCustomizeDialog@@IEAAXXZ" PURGE="-1" COMMENT="" />
    <EXPORT ORDINAL="11130" NAME="?OnTaskbarTabThumbnailStretch@CMDIChildWndEx@@UEAAHPEAUHBITMAP__@@AEBVCRect@@01@Z" PURGE="-1" COMMENT="" />
    <EXPORT ORDINAL="11129" NAME="?OnTaskbarTabThumbnailMouseActivate@CMDIChildWndEx@@UEAAHPEAVCWnd@@II@Z" PURGE="-1" COMMENT="" />
    <EXPORT ORDINAL="11128" NAME="?OnTaskbarTabThumbnailActivate@CMDIChildWndEx@@UEAAXIPEAVCWnd@@H@Z" PURGE="-1" COMMENT="" />
    <EXPORT ORDINAL="11127" NAME="?OnTabletQuerySystemGestureStatus@CWnd@@IEAA_J_K_J@Z" PURGE="-1" COMMENT="" />
    <EXPORT ORDINAL="11126" NAME="?OnTabGroupMouseMove@CMDIClientAreaWnd@@IEAA_J_K_J@Z" PURGE="-1" COMMENT="" />
    <EXPORT ORDINAL="11125" NAME="?OnSysKeyUp@COleControl@@IEAAXIII@Z" PURGE="-1" COMMENT="" />
    <EXPORT ORDINAL="11124" NAME="?OnSysKeyUp@CMFCRibbonBar@@QEAAHPEAVCFrameWnd@@_K_J@Z" PURGE="-1" COMMENT="" />
    <EXPORT ORDINAL="11123" NAME="?OnSysKeyDown@COleControl@@IEAAXIII@Z" PURGE="-1" COMMENT="" />
    <EXPORT ORDINAL="11122" NAME="?OnSysKeyDown@CMFCRibbonBar@@QEAAHPEAVCFrameWnd@@_K_J@Z" PURGE="-1" COMMENT="" />
    <EXPORT ORDINAL="11121" NAME="?OnSysCommand@CSplitterWnd@@IEAAXI_J@Z" PURGE="-1" COMMENT="" />
    <EXPORT ORDINAL="11120" NAME="?OnSysCommand@CPropertySheet@@IEAAXI_J@Z" PURGE="-1" COMMENT="" />
    <EXPORT ORDINAL="11119" NAME="?OnSysCommand@CMiniFrameWnd@@QEAAXI_J@Z" PURGE="-1" COMMENT="" />
    <EXPORT ORDINAL="11118" NAME="?OnSysCommand@CMFCStatusBar@@IEAAXI_J@Z" PURGE="-1" COMMENT="" />
    <EXPORT ORDINAL="11117" NAME="?OnSysCommand@CMFCRibbonStatusBar@@IEAAXI_J@Z" PURGE="-1" COMMENT="" />
    <EXPORT ORDINAL="11116" NAME="?OnSysCommand@CMFCRibbonBar@@IEAAXI_J@Z" PURGE="-1" COMMENT="" />
    <EXPORT ORDINAL="11115" NAME="?OnSysCommand@CMDITabProxyWnd@@IEAAXI_J@Z" PURGE="-1" COMMENT="" />
    <EXPORT ORDINAL="11114" NAME="?OnSysCommand@CMDIChildWndEx@@IEAAXI_J@Z" PURGE="-1" COMMENT="" />
    <EXPORT ORDINAL="11113" NAME="?OnSysCommand@CFrameWnd@@IEAAXI_J@Z" PURGE="-1" COMMENT="" />
    <EXPORT ORDINAL="11112" NAME="?OnSysColorChange@CWnd@@IEAAXXZ" PURGE="-1" COMMENT="" />
    <EXPORT ORDINAL="11111" NAME="?OnSysColorChange@CToolBar@@IEAAXXZ" PURGE="-1" COMMENT="" />
    <EXPORT ORDINAL="11110" NAME="?OnSysColorChange@CMFCToolBarImages@@QEAAXXZ" PURGE="-1" COMMENT="" />
    <EXPORT ORDINAL="11109" NAME="?OnSysColorChange@CMFCToolBarButtonsListButton@@IEAAXXZ" PURGE="-1" COMMENT="" />
    <EXPORT ORDINAL="11108" NAME="?OnSysColorChange@CMFCToolBar@@IEAAXXZ" PURGE="-1" COMMENT="" />
    <EXPORT ORDINAL="11107" NAME="?OnSysColorChange@CMFCTabCtrl@@IEAAXXZ" PURGE="-1" COMMENT="" />
    <EXPORT ORDINAL="11106" NAME="?OnSysColorChange@CMFCShadowRenderer@@UEAAXXZ" PURGE="-1" COMMENT="" />
    <EXPORT ORDINAL="11105" NAME="?OnSysColorChange@CMFCRibbonBar@@IEAAXXZ" PURGE="-1" COMMENT="" />
    <EXPORT ORDINAL="11104" NAME="?OnSysColorChange@CMFCPropertySheet@@IEAAXXZ" PURGE="-1" COMMENT="" />
    <EXPORT ORDINAL="11103" NAME="?OnSysColorChange@CMFCOutlookBarPane@@IEAAXXZ" PURGE="-1" COMMENT="" />
    <EXPORT ORDINAL="11102" NAME="?OnSysColorChange@CMFCListCtrl@@IEAAXXZ" PURGE="-1" COMMENT="" />
    <EXPORT ORDINAL="11101" NAME="?OnSysColorChange@CMFCControlRenderer@@UEAAXXZ" PURGE="-1" COMMENT="" />
    <EXPORT ORDINAL="11100" NAME="?OnSysColorChange@CMFCColorDialog@@IEAAXXZ" PURGE="-1" COMMENT="" />
    <EXPORT ORDINAL="11099" NAME="?OnSysColorChange@CMFCColorButton@@IEAAXXZ" PURGE="-1" COMMENT="" />
    <EXPORT ORDINAL="11098" NAME="?OnSysColorChange@CMFCCaptionBar@@IEAAXXZ" PURGE="-1" COMMENT="" />
    <EXPORT ORDINAL="11097" NAME="?OnSysColorChange@CMFCBaseTabCtrl@@IEAAXXZ" PURGE="-1" COMMENT="" />
    <EXPORT ORDINAL="11096" NAME="?OnSysColorChange@CMDIFrameWndEx@@IEAAXXZ" PURGE="-1" COMMENT="" />
    <EXPORT ORDINAL="11095" NAME="?OnSysColorChange@CFrameWndEx@@QEAAXXZ" PURGE="-1" COMMENT="" />
    <EXPORT ORDINAL="11094" NAME="?OnSysColorChange@CDialogEx@@IEAAXXZ" PURGE="-1" COMMENT="" />
    <EXPORT ORDINAL="11093" NAME="?OnStyleChanging@CMDIClientAreaWnd@@IEAAXHPEAUtagSTYLESTRUCT@@@Z" PURGE="-1" COMMENT="" />
    <EXPORT ORDINAL="11092" NAME="?OnStyleChanged@CPane@@IEAAXHPEAUtagSTYLESTRUCT@@@Z" PURGE="-1" COMMENT="" />
    <EXPORT ORDINAL="11091" NAME="?OnStyleChanged@CMFCStatusBar@@IEAAXHPEAUtagSTYLESTRUCT@@@Z" PURGE="-1" COMMENT="" />
    <EXPORT ORDINAL="11090" NAME="?OnStyleChanged@CMFCPropertyGridCtrl@@IEAAXHPEAUtagSTYLESTRUCT@@@Z" PURGE="-1" COMMENT="" />
    <EXPORT ORDINAL="11089" NAME="?OnStyleChanged@CMFCListCtrl@@IEAAXHPEAUtagSTYLESTRUCT@@@Z" PURGE="-1" COMMENT="" />
    <EXPORT ORDINAL="11088" NAME="?OnStyleChanged@CMDIChildWndEx@@IEAAXHPEAUtagSTYLESTRUCT@@@Z" PURGE="-1" COMMENT="" />
    <EXPORT ORDINAL="11087" NAME="?OnStoryboardUpdated@CAnimationController@@UEAAXPEAVCAnimationGroup@@@Z" PURGE="-1" COMMENT="" />
    <EXPORT ORDINAL="11086" NAME="?OnStoryboardStatusChanged@CAnimationController@@UEAAXPEAVCAnimationGroup@@W4__MIDL___MIDL_itf_UIAnimation_0000_0002_0001@@1@Z" PURGE="-1" COMMENT="" />
    <EXPORT ORDINAL="11085" NAME="?OnStopBinding@CAsyncMonikerFile@@MEAAXJPEBD@Z" PURGE="-1" COMMENT="" />
    <EXPORT ORDINAL="11084" NAME="?OnStatusTextChange@CHtmlView@@UEAAXPEBD@Z" PURGE="-1" COMMENT="" />
    <EXPORT ORDINAL="11083" NAME="?OnStatusCallback@CInternetSession@@UEAAX_KKPEAXK@Z" PURGE="-1" COMMENT="" />
    <EXPORT ORDINAL="11082" NAME="?OnStatusBar@CHtmlView@@UEAAXH@Z" PURGE="-1" COMMENT="" />
    <EXPORT ORDINAL="11081" NAME="?OnStartBinding@CAsyncMonikerFile@@MEAAXXZ" PURGE="-1" COMMENT="" />
    <EXPORT ORDINAL="11080" NAME="?OnSplitCmd@CView@@IEAAHI@Z" PURGE="-1" COMMENT="" />
    <EXPORT ORDINAL="11079" NAME="?OnSpinDeltaPos@CMFCPropertyGridCtrl@@IEAAXPEAUtagNMHDR@@PEA_J@Z" PURGE="-1" COMMENT="" />
    <EXPORT ORDINAL="11078" NAME="?OnSocketNotify@CSocketWnd@@IEAA_J_K_J@Z" PURGE="-1" COMMENT="" />
    <EXPORT ORDINAL="11077" NAME="?OnSocketDead@CSocketWnd@@IEAA_J_K_J@Z" PURGE="-1" COMMENT="" />
    <EXPORT ORDINAL="11076" NAME="?OnSlide@CDockablePane@@MEAAXH@Z" PURGE="-1" COMMENT="" />
    <EXPORT ORDINAL="11075" NAME="?OnSkip@CEnumArray@@MEAAHXZ" PURGE="-1" COMMENT="" />
    <EXPORT ORDINAL="11074" NAME="?OnSizing@CPaneFrameWnd@@IEAAXIPEAUtagRECT@@@Z" PURGE="-1" COMMENT="" />
    <EXPORT ORDINAL="11073" NAME="?OnSizing@COleCntrFrameWndEx@@IEAAXIPEAUtagRECT@@@Z" PURGE="-1" COMMENT="" />
    <EXPORT ORDINAL="11072" NAME="?OnSizing@CMultiPaneFrameWnd@@IEAAXIPEAUtagRECT@@@Z" PURGE="-1" COMMENT="" />
    <EXPORT ORDINAL="11071" NAME="?OnSizing@CMFCRibbonBar@@IEAAXIPEAUtagRECT@@@Z" PURGE="-1" COMMENT="" />
    <EXPORT ORDINAL="11070" NAME="?OnSizing@CMDIChildWndEx@@IEAAXIPEAUtagRECT@@@Z" PURGE="-1" COMMENT="" />
    <EXPORT ORDINAL="11069" NAME="?OnSizing@CFrameWndEx@@QEAAXIPEAUtagRECT@@@Z" PURGE="-1" COMMENT="" />
    <EXPORT ORDINAL="11068" NAME="?OnSizeParent@COleResizeBar@@IEAA_J_K_J@Z" PURGE="-1" COMMENT="" />
    <EXPORT ORDINAL="11067" NAME="?OnSizeParent@CDockBar@@IEAA_J_K_J@Z" PURGE="-1" COMMENT="" />
    <EXPORT ORDINAL="11066" NAME="?OnSizeParent@CControlBar@@QEAA_J_K_J@Z" PURGE="-1" COMMENT="" />
    <EXPORT ORDINAL="11065" NAME="?OnSizeList@CVSListBox@@MEAAXXZ" PURGE="-1" COMMENT="" />
    <EXPORT ORDINAL="11064" NAME="?OnSize@CVSListBoxBase@@IEAAXIHH@Z" PURGE="-1" COMMENT="" />
    <EXPORT ORDINAL="11063" NAME="?OnSize@CTabView@@IEAAXIHH@Z" PURGE="-1" COMMENT="" />
    <EXPORT ORDINAL="11062" NAME="?OnSize@CStatusBar@@IEAAXIHH@Z" PURGE="-1" COMMENT="" />
    <EXPORT ORDINAL="11061" NAME="?OnSize@CSplitterWnd@@IEAAXIHH@Z" PURGE="-1" COMMENT="" />
    <EXPORT ORDINAL="11060" NAME="?OnSize@CScrollView@@QEAAXIHH@Z" PURGE="-1" COMMENT="" />
    <EXPORT ORDINAL="11059" NAME="?OnSize@CPreviewViewEx@@IEAAXIHH@Z" PURGE="-1" COMMENT="" />
    <EXPORT ORDINAL="11058" NAME="?OnSize@CPreviewView@@IEAAXIHH@Z" PURGE="-1" COMMENT="" />
    <EXPORT ORDINAL="11057" NAME="?OnSize@CPaneFrameWnd@@IEAAXIHH@Z" PURGE="-1" COMMENT="" />
    <EXPORT ORDINAL="11056" NAME="?OnSize@CPaneDivider@@IEAAXIHH@Z" PURGE="-1" COMMENT="" />
    <EXPORT ORDINAL="11055" NAME="?OnSize@COleResizeBar@@IEAAXIHH@Z" PURGE="-1" COMMENT="" />
    <EXPORT ORDINAL="11054" NAME="?OnSize@COleIPFrameWnd@@IEAAXIHH@Z" PURGE="-1" COMMENT="" />
    <EXPORT ORDINAL="11053" NAME="?OnSize@COleControl@@IEAAXIHH@Z" PURGE="-1" COMMENT="" />
    <EXPORT ORDINAL="11052" NAME="?OnSize@COleCntrFrameWndEx@@IEAAXIHH@Z" PURGE="-1" COMMENT="" />
    <EXPORT ORDINAL="11051" NAME="?OnSize@CMultiPaneFrameWnd@@IEAAXIHH@Z" PURGE="-1" COMMENT="" />
    <EXPORT ORDINAL="11050" NAME="?OnSize@CMFCToolBarEditBoxButton@@UEAAXH@Z" PURGE="-1" COMMENT="" />
    <EXPORT ORDINAL="11049" NAME="?OnSize@CMFCToolBarDateTimeCtrl@@UEAAXH@Z" PURGE="-1" COMMENT="" />
    <EXPORT ORDINAL="11048" NAME="?OnSize@CMFCToolBarComboBoxButton@@UEAAXH@Z" PURGE="-1" COMMENT="" />
    <EXPORT ORDINAL="11047" NAME="?OnSize@CMFCToolBarButtonsListButton@@IEAAXIHH@Z" PURGE="-1" COMMENT="" />
    <EXPORT ORDINAL="11046" NAME="?OnSize@CMFCToolBar@@IEAAXIHH@Z" PURGE="-1" COMMENT="" />
    <EXPORT ORDINAL="11045" NAME="?OnSize@CMFCTasksPane@@IEAAXIHH@Z" PURGE="-1" COMMENT="" />
    <EXPORT ORDINAL="11044" NAME="?OnSize@CMFCTabCtrl@@IEAAXIHH@Z" PURGE="-1" COMMENT="" />
    <EXPORT ORDINAL="11043" NAME="?OnSize@CMFCStatusBar@@IEAAXIHH@Z" PURGE="-1" COMMENT="" />
    <EXPORT ORDINAL="11042" NAME="?OnSize@CMFCStandardColorsPropertyPage@@IEAAXIHH@Z" PURGE="-1" COMMENT="" />
    <EXPORT ORDINAL="11041" NAME="?OnSize@CMFCShadowWnd@@IEAAXIHH@Z" PURGE="-1" COMMENT="" />
    <EXPORT ORDINAL="11040" NAME="?OnSize@CMFCRibbonStatusBar@@IEAAXIHH@Z" PURGE="-1" COMMENT="" />
    <EXPORT ORDINAL="11039" NAME="?OnSize@CMFCRibbonPanelMenuBar@@IEAAXIHH@Z" PURGE="-1" COMMENT="" />
    <EXPORT ORDINAL="11038" NAME="?OnSize@CMFCRibbonBar@@IEAAXIHH@Z" PURGE="-1" COMMENT="" />
    <EXPORT ORDINAL="11037" NAME="?OnSize@CMFCPropertyGridCtrl@@IEAAXIHH@Z" PURGE="-1" COMMENT="" />
    <EXPORT ORDINAL="11036" NAME="?OnSize@CMFCPreviewCtrlImpl@@QEAAXIHH@Z" PURGE="-1" COMMENT="" />
    <EXPORT ORDINAL="11035" NAME="?OnSize@CMFCPopupMenu@@IEAAXIHH@Z" PURGE="-1" COMMENT="" />
    <EXPORT ORDINAL="11034" NAME="?OnSize@CMFCOutlookBarTabCtrl@@IEAAXIHH@Z" PURGE="-1" COMMENT="" />
    <EXPORT ORDINAL="11033" NAME="?OnSize@CMFCOutlookBarPane@@IEAAXIHH@Z" PURGE="-1" COMMENT="" />
    <EXPORT ORDINAL="11032" NAME="?OnSize@CMFCListCtrl@@IEAAXIHH@Z" PURGE="-1" COMMENT="" />
    <EXPORT ORDINAL="11031" NAME="?OnSize@CMFCKeyMapDialog@@IEAAXIHH@Z" PURGE="-1" COMMENT="" />
    <EXPORT ORDINAL="11030" NAME="?OnSize@CMFCDropDownFrame@@IEAAXIHH@Z" PURGE="-1" COMMENT="" />
    <EXPORT ORDINAL="11029" NAME="?OnSize@CMFCColorPropertySheet@@IEAAXIHH@Z" PURGE="-1" COMMENT="" />
    <EXPORT ORDINAL="11028" NAME="?OnSize@CMFCColorPickerCtrl@@IEAAXIHH@Z" PURGE="-1" COMMENT="" />
    <EXPORT ORDINAL="11027" NAME="?OnSize@CMFCCaptionBar@@IEAAXIHH@Z" PURGE="-1" COMMENT="" />
    <EXPORT ORDINAL="11026" NAME="?OnSize@CMFCButton@@IEAAXIHH@Z" PURGE="-1" COMMENT="" />
    <EXPORT ORDINAL="11025" NAME="?OnSize@CMDIFrameWndEx@@IEAAXIHH@Z" PURGE="-1" COMMENT="" />
    <EXPORT ORDINAL="11024" NAME="?OnSize@CMDIFrameWnd@@IEAAXIHH@Z" PURGE="-1" COMMENT="" />
    <EXPORT ORDINAL="11023" NAME="?OnSize@CMDIChildWndEx@@IEAAXIHH@Z" PURGE="-1" COMMENT="" />
    <EXPORT ORDINAL="11022" NAME="?OnSize@CMDIChildWnd@@IEAAXIHH@Z" PURGE="-1" COMMENT="" />
    <EXPORT ORDINAL="11021" NAME="?OnSize@CHtmlView@@IEAAXIHH@Z" PURGE="-1" COMMENT="" />
    <EXPORT ORDINAL="11020" NAME="?OnSize@CFrameWndEx@@QEAAXIHH@Z" PURGE="-1" COMMENT="" />
    <EXPORT ORDINAL="11019" NAME="?OnSize@CFrameWnd@@IEAAXIHH@Z" PURGE="-1" COMMENT="" />
    <EXPORT ORDINAL="11017" NAME="?OnSize@CDockablePaneAdapter@@IEAAXIHH@Z" PURGE="-1" COMMENT="" />
    <EXPORT ORDINAL="11018" NAME="?OnSize@CDockSite@@IEAAXIHH@Z" PURGE="-1" COMMENT="" />
    <EXPORT ORDINAL="11016" NAME="?OnSize@CDHtmlDialog@@IEAAXIHH@Z" PURGE="-1" COMMENT="" />
    <EXPORT ORDINAL="11015" NAME="?OnSize@CBaseTabbedPane@@IEAAXIHH@Z" PURGE="-1" COMMENT="" />
    <EXPORT ORDINAL="11014" NAME="?OnSize@CBasePane@@IEAAXIHH@Z" PURGE="-1" COMMENT="" />
    <EXPORT ORDINAL="11013" NAME="?OnShowWindow@XOleClientSite@COleControlSite@@UEAAJH@Z" PURGE="-1" COMMENT="" />
    <EXPORT ORDINAL="11012" NAME="?OnShowWindow@XOleClientSite@COleClientItem@@UEAAJH@Z" PURGE="-1" COMMENT="" />
    <EXPORT ORDINAL="11011" NAME="?OnShowWindow@COleControl@@IEAAXHI@Z" PURGE="-1" COMMENT="" />
    <EXPORT ORDINAL="11010" NAME="?OnShowWindow@CMFCToolBar@@IEAAXHI@Z" PURGE="-1" COMMENT="" />
    <EXPORT ORDINAL="11009" NAME="?OnShowWindow@CMFCStatusBar@@IEAAXHI@Z" PURGE="-1" COMMENT="" />
    <EXPORT ORDINAL="11008" NAME="?OnShowWindow@CMFCRibbonStatusBar@@IEAAXHI@Z" PURGE="-1" COMMENT="" />
    <EXPORT ORDINAL="11007" NAME="?OnShowWindow@CMFCRibbonBar@@IEAAXHI@Z" PURGE="-1" COMMENT="" />
    <EXPORT ORDINAL="11006" NAME="?OnShowWindow@CMFCPopupMenu@@IEAAXHI@Z" PURGE="-1" COMMENT="" />
    <EXPORT ORDINAL="11005" NAME="?OnShowViews@COleLinkingDoc@@MEAAXH@Z" PURGE="-1" COMMENT="" />
    <EXPORT ORDINAL="11004" NAME="?OnShowViews@COleDocument@@UEAAXH@Z" PURGE="-1" COMMENT="" />
    <EXPORT ORDINAL="11003" NAME="?OnShowUI@CHtmlView@@UEAAJKPEAUIOleInPlaceActiveObject@@PEAUIOleCommandTarget@@PEAUIOleInPlaceFrame@@PEAUIOleInPlaceUIWindow@@@Z" PURGE="-1" COMMENT="" />
    <EXPORT ORDINAL="11002" NAME="?OnShowTooltips@CMFCToolBarsOptionsPropertyPage@@IEAAXXZ" PURGE="-1" COMMENT="" />
    <EXPORT ORDINAL="11001" NAME="?OnShowToolBars@COleControl@@UEAAXXZ" PURGE="-1" COMMENT="" />
    <EXPORT ORDINAL="11000" NAME="?OnShowTabDocumentsMenu@CMFCTabCtrl@@UEAAXVCPoint@@@Z" PURGE="-1" COMMENT="" />
    <EXPORT ORDINAL="10999" NAME="?OnShowRow@CDockSite@@UEAAXPEAU__POSITION@@H@Z" PURGE="-1" COMMENT="" />
    <EXPORT ORDINAL="10998" NAME="?OnShowRibbonQATMenu@CMFCRibbonBar@@UEAAHPEAVCWnd@@HHPEAVCMFCRibbonBaseElement@@@Z" PURGE="-1" COMMENT="" />
    <EXPORT ORDINAL="10997" NAME="?OnShowRibbonContextMenu@CMFCRibbonBar@@UEAAHPEAVCWnd@@HHPEAVCMFCRibbonBaseElement@@@Z" PURGE="-1" COMMENT="" />
    <EXPORT ORDINAL="10996" NAME="?OnShowRecentlyUsedMenus@CMFCToolBarsOptionsPropertyPage@@IEAAXXZ" PURGE="-1" COMMENT="" />
    <EXPORT ORDINAL="10995" NAME="?OnShowPopupMenu@CMFCRibbonUndoButton@@MEAAXXZ" PURGE="-1" COMMENT="" />
    <EXPORT ORDINAL="10994" NAME="?OnShowPopupMenu@CMFCRibbonGallery@@MEAAXXZ" PURGE="-1" COMMENT="" />
    <EXPORT ORDINAL="10993" NAME="?OnShowPopupMenu@CMFCRibbonDefaultPanelButton@@UEAAXXZ" PURGE="-1" COMMENT="" />
    <EXPORT ORDINAL="10992" NAME="?OnShowPopupMenu@CMFCRibbonColorButton@@MEAAXXZ" PURGE="-1" COMMENT="" />
    <EXPORT ORDINAL="10991" NAME="?OnShowPopupMenu@CMFCRibbonButton@@MEAAXXZ" PURGE="-1" COMMENT="" />
    <EXPORT ORDINAL="10990" NAME="?OnShowPopupMenu@CMFCRibbonBaseElement@@UEAAXXZ" PURGE="-1" COMMENT="" />
    <EXPORT ORDINAL="10989" NAME="?OnShowPopupMenu@CMDIFrameWndEx@@UEAAHPEAVCMFCPopupMenu@@@Z" PURGE="-1" COMMENT="" />
    <EXPORT ORDINAL="10988" NAME="?OnShowPopupMenu@CFrameWndEx@@UEAAHPEAVCMFCPopupMenu@@@Z" PURGE="-1" COMMENT="" />
    <EXPORT ORDINAL="10987" NAME="?OnShowPopupMenu@CFrameImpl@@IEAAHPEAVCMFCPopupMenu@@PEAVCFrameWnd@@@Z" PURGE="-1" COMMENT="" />
    <EXPORT ORDINAL="10986" NAME="?OnShowPanes@COleIPFrameWndEx@@UEAAHH@Z" PURGE="-1" COMMENT="" />
    <EXPORT ORDINAL="10985" NAME="?OnShowPanes@COleDocIPFrameWndEx@@UEAAHH@Z" PURGE="-1" COMMENT="" />
    <EXPORT ORDINAL="10984" NAME="?OnShowPanes@COleCntrFrameWndEx@@UEAAHH@Z" PURGE="-1" COMMENT="" />
    <EXPORT ORDINAL="10983" NAME="?OnShowPanes@CMDIFrameWndEx@@UEAAHH@Z" PURGE="-1" COMMENT="" />
    <EXPORT ORDINAL="10982" NAME="?OnShowPanes@CFrameWndEx@@UEAAHH@Z" PURGE="-1" COMMENT="" />
    <EXPORT ORDINAL="10981" NAME="?OnShowPane@CPaneDivider@@UEAAXPEAVCDockablePane@@H@Z" PURGE="-1" COMMENT="" />
    <EXPORT ORDINAL="10980" NAME="?OnShowPane@CPaneContainerManager@@UEAAHPEAVCDockablePane@@H@Z" PURGE="-1" COMMENT="" />
    <EXPORT ORDINAL="10979" NAME="?OnShowPane@CPaneContainer@@UEAAXPEAVCDockablePane@@H@Z" PURGE="-1" COMMENT="" />
    <EXPORT ORDINAL="10978" NAME="?OnShowPane@CMultiPaneFrameWnd@@UEAAXPEAVCDockablePane@@H@Z" PURGE="-1" COMMENT="" />
    <EXPORT ORDINAL="10977" NAME="?OnShowOptions@CMFCOutlookBarTabCtrl@@UEAAXXZ" PURGE="-1" COMMENT="" />
    <EXPORT ORDINAL="10976" NAME="?OnShowMorePageButtons@CMFCOutlookBarTabCtrl@@UEAAXXZ" PURGE="-1" COMMENT="" />
    <EXPORT ORDINAL="10975" NAME="?OnShowMenusDelay@CMFCToolBarsOptionsPropertyPage@@IEAAXXZ" PURGE="-1" COMMENT="" />
    <EXPORT ORDINAL="10974" NAME="?OnShowMenuBar@CFrameWnd@@MEAAXXZ" PURGE="-1" COMMENT="" />
    <EXPORT ORDINAL="10973" NAME="?OnShowMenu@CMFCMenuButton@@MEAAXXZ" PURGE="-1" COMMENT="" />
    <EXPORT ORDINAL="10972" NAME="?OnShowMDITabContextMenu@CMDIFrameWndEx@@UEAAHVCPoint@@KH@Z" PURGE="-1" COMMENT="" />
    <EXPORT ORDINAL="10971" NAME="?OnShowItem@COleClientItem@@MEAAXXZ" PURGE="-1" COMMENT="" />
    <EXPORT ORDINAL="10970" NAME="?OnShowFewerPageButtons@CMFCOutlookBarTabCtrl@@UEAAXXZ" PURGE="-1" COMMENT="" />
    <EXPORT ORDINAL="10969" NAME="?OnShowEditbox@CMFCToolBarSpinEditBoxButton@@MEAAXH@Z" PURGE="-1" COMMENT="" />
    <EXPORT ORDINAL="10968" NAME="?OnShowDocument@COleServerDoc@@MEAAXH@Z" PURGE="-1" COMMENT="" />
    <EXPORT ORDINAL="10967" NAME="?OnShowCustomizePane@CFrameImpl@@IEAAHPEAVCMFCPopupMenu@@I@Z" PURGE="-1" COMMENT="" />
    <EXPORT ORDINAL="10966" NAME="?OnShowControlBars@COleServerDocEx@@MEAAXPEAVCFrameWnd@@H@Z" PURGE="-1" COMMENT="" />
    <EXPORT ORDINAL="10965" NAME="?OnShowControlBars@COleServerDoc@@UEAAXPEAVCFrameWnd@@H@Z" PURGE="-1" COMMENT="" />
    <EXPORT ORDINAL="10964" NAME="?OnShowControlBars@COleClientItem@@UEAAHPEAVCFrameWnd@@H@Z" PURGE="-1" COMMENT="" />
    <EXPORT ORDINAL="10963" NAME="?OnShowControlBarMenu@CPane@@UEAAHVCPoint@@@Z" PURGE="-1" COMMENT="" />
    <EXPORT ORDINAL="10962" NAME="?OnShowContextMenu@CMFCShellTreeCtrl@@IEAAXVCPoint@@@Z" PURGE="-1" COMMENT="" />
    <EXPORT ORDINAL="10961" NAME="?OnShowContextMenu@CHtmlView@@UEAAJKPEAUtagPOINT@@PEAUIUnknown@@PEAUIDispatch@@@Z" PURGE="-1" COMMENT="" />
    <EXPORT ORDINAL="10960" NAME="?OnShowColorPopup@CMFCColorButton@@MEAAXXZ" PURGE="-1" COMMENT="" />
    <EXPORT ORDINAL="10959" NAME="?OnShowBand@CReBar@@IEAA_J_K_J@Z" PURGE="-1" COMMENT="" />
    <EXPORT ORDINAL="10958" NAME="?OnShowBand@CMFCReBar@@IEAA_J_K_J@Z" PURGE="-1" COMMENT="" />
    <EXPORT ORDINAL="10957" NAME="?OnShow@COleServerItem@@MEAAXXZ" PURGE="-1" COMMENT="" />
    <EXPORT ORDINAL="10956" NAME="?OnShow@CMFCToolTipCtrl@@IEAAXPEAUtagNMHDR@@PEA_J@Z" PURGE="-1" COMMENT="" />
    <EXPORT ORDINAL="10955" NAME="?OnShow@CMFCToolBarEditBoxButton@@UEAAXH@Z" PURGE="-1" COMMENT="" />
    <EXPORT ORDINAL="10954" NAME="?OnShow@CMFCToolBarDateTimeCtrl@@UEAAXH@Z" PURGE="-1" COMMENT="" />
    <EXPORT ORDINAL="10953" NAME="?OnShow@CMFCToolBarComboBoxButton@@UEAAXH@Z" PURGE="-1" COMMENT="" />
    <EXPORT ORDINAL="10952" NAME="?OnShow@CMFCRibbonPanel@@MEAAXH@Z" PURGE="-1" COMMENT="" />
    <EXPORT ORDINAL="10951" NAME="?OnShow@CMFCRibbonEdit@@UEAAXH@Z" PURGE="-1" COMMENT="" />
    <EXPORT ORDINAL="10950" NAME="?OnShow@CMFCRibbonButtonsGroup@@MEAAXH@Z" PURGE="-1" COMMENT="" />
    <EXPORT ORDINAL="10949" NAME="?OnShow@CDocObjectServerItem@@MEAAXXZ" PURGE="-1" COMMENT="" />
    <EXPORT ORDINAL="10948" NAME="?OnShareViolation@XFileDialogEvents@CFileDialog@@UEAAJPEAUIFileDialog@@PEAUIShellItem@@PEAW4FDE_SHAREVIOLATION_RESPONSE@@@Z" PURGE="-1" COMMENT="" />
    <EXPORT ORDINAL="10947" NAME="?OnShareViolation@CFileDialog@@MEAAIPEBD@Z" PURGE="-1" COMMENT="" />
    <EXPORT ORDINAL="10942" NAME="?OnSettingChange@CWnd@@IEAAXIPEBD@Z" PURGE="-1" COMMENT="" />
    <EXPORT ORDINAL="10941" NAME="?OnSettingChange@CPaneFrameWnd@@IEAAXIPEBD@Z" PURGE="-1" COMMENT="" />
    <EXPORT ORDINAL="10940" NAME="?OnSettingChange@CMFCToolBar@@IEAAXIPEBD@Z" PURGE="-1" COMMENT="" />
    <EXPORT ORDINAL="10939" NAME="?OnSettingChange@CMFCTasksPane@@IEAAXIPEBD@Z" PURGE="-1" COMMENT="" />
    <EXPORT ORDINAL="10938" NAME="?OnSettingChange@CMFCTabCtrl@@IEAAXIPEBD@Z" PURGE="-1" COMMENT="" />
    <EXPORT ORDINAL="10937" NAME="?OnSettingChange@CMFCStatusBar@@IEAAXIPEBD@Z" PURGE="-1" COMMENT="" />
    <EXPORT ORDINAL="10936" NAME="?OnSettingChange@CMFCRibbonBar@@IEAAXIPEBD@Z" PURGE="-1" COMMENT="" />
    <EXPORT ORDINAL="10935" NAME="?OnSettingChange@CMFCPropertySheet@@IEAAXIPEBD@Z" PURGE="-1" COMMENT="" />
    <EXPORT ORDINAL="10934" NAME="?OnSettingChange@CMFCMenuBar@@IEAAXIPEBD@Z" PURGE="-1" COMMENT="" />
    <EXPORT ORDINAL="10933" NAME="?OnSettingChange@CDockablePane@@IEAAXIPEBD@Z" PURGE="-1" COMMENT="" />
    <EXPORT ORDINAL="10932" NAME="?OnSettingChange@CDialogEx@@IEAAXIPEBD@Z" PURGE="-1" COMMENT="" />
    <EXPORT ORDINAL="10931" NAME="?OnSettingChange@CBasePane@@IEAAXIPEBD@Z" PURGE="-1" COMMENT="" />
    <EXPORT ORDINAL="10930" NAME="?OnSettingChange@AFX_GLOBAL_DATA@@QEAAXXZ" PURGE="-1" COMMENT="" />
    <EXPORT ORDINAL="10946" NAME="?OnSetWindowRegion@CMFCVisualManagerOffice2007@@UEAAHPEAVCWnd@@VCSize@@@Z" PURGE="-1" COMMENT="" />
    <EXPORT ORDINAL="10945" NAME="?OnSetWindowRegion@CMFCVisualManager@@UEAAHPEAVCWnd@@VCSize@@@Z" PURGE="-1" COMMENT="" />
    <EXPORT ORDINAL="10944" NAME="?OnSetWindowPos@CDockSite@@UEAAHPEBVCWnd@@AEBVCRect@@I@Z" PURGE="-1" COMMENT="" />
    <EXPORT ORDINAL="10943" NAME="?OnSetUpdateOptions@CRecordset@@UEAAXPEAX@Z" PURGE="-1" COMMENT="" />
    <EXPORT ORDINAL="10929" NAME="?OnSetText@CVSListBoxBase@@IEAA_J_K_J@Z" PURGE="-1" COMMENT="" />
    <EXPORT ORDINAL="10928" NAME="?OnSetText@CStatusBar@@IEAA_J_K_J@Z" PURGE="-1" COMMENT="" />
    <EXPORT ORDINAL="10927" NAME="?OnSetText@COleControl@@IEAA_J_K_J@Z" PURGE="-1" COMMENT="" />
    <EXPORT ORDINAL="10926" NAME="?OnSetText@CMFCTasksPane@@IEAA_J_K_J@Z" PURGE="-1" COMMENT="" />
    <EXPORT ORDINAL="10925" NAME="?OnSetText@CMFCStatusBar@@IEAA_J_K_J@Z" PURGE="-1" COMMENT="" />
    <EXPORT ORDINAL="10924" NAME="?OnSetText@CMFCMaskedEdit@@IEAA_J_K_J@Z" PURGE="-1" COMMENT="" />
    <EXPORT ORDINAL="10923" NAME="?OnSetText@CMDIFrameWndEx@@IEAA_J_K_J@Z" PURGE="-1" COMMENT="" />
    <EXPORT ORDINAL="10922" NAME="?OnSetText@CMDIChildWndEx@@IEAA_J_K_J@Z" PURGE="-1" COMMENT="" />
    <EXPORT ORDINAL="10921" NAME="?OnSetText@CFrameWndEx@@QEAA_J_K_J@Z" PURGE="-1" COMMENT="" />
    <EXPORT ORDINAL="10920" NAME="?OnSetText@CFrameImpl@@IEAAXPEBD@Z" PURGE="-1" COMMENT="" />
    <EXPORT ORDINAL="10919" NAME="?OnSetText@CDockablePane@@IEAA_J_K_J@Z" PURGE="-1" COMMENT="" />
    <EXPORT ORDINAL="10918" NAME="?OnSetSizeHelper@CToolBar@@IEAA_JAEAVCSize@@_J@Z" PURGE="-1" COMMENT="" />
    <EXPORT ORDINAL="10917" NAME="?OnSetRollUpTimer@CPaneFrameWnd@@UEAAXXZ" PURGE="-1" COMMENT="" />
    <EXPORT ORDINAL="10916" NAME="?OnSetRollUpTimer@CMultiPaneFrameWnd@@UEAAXXZ" PURGE="-1" COMMENT="" />
    <EXPORT ORDINAL="10915" NAME="?OnSetPrintPreviewKeys@CMFCRibbonBar@@MEAAXPEAVCMFCRibbonPanel@@00@Z" PURGE="-1" COMMENT="" />
    <EXPORT ORDINAL="10914" NAME="?OnSetPreviewMode@COleIPFrameWndEx@@UEAAXHPEAUCPrintPreviewState@@@Z" PURGE="-1" COMMENT="" />
    <EXPORT ORDINAL="10913" NAME="?OnSetPreviewMode@COleDocIPFrameWndEx@@UEAAXHPEAUCPrintPreviewState@@@Z" PURGE="-1" COMMENT="" />
    <EXPORT ORDINAL="10912" NAME="?OnSetPreviewMode@CMDIFrameWndEx@@UEAAXHPEAUCPrintPreviewState@@@Z" PURGE="-1" COMMENT="" />
    <EXPORT ORDINAL="10911" NAME="?OnSetPreviewMode@CMDIChildWndEx@@UEAAXHPEAUCPrintPreviewState@@@Z" PURGE="-1" COMMENT="" />
    <EXPORT ORDINAL="10910" NAME="?OnSetPreviewMode@CFrameWndEx@@UEAAXHPEAUCPrintPreviewState@@@Z" PURGE="-1" COMMENT="" />
    <EXPORT ORDINAL="10909" NAME="?OnSetPreviewMode@CFrameWnd@@UEAAXHPEAUCPrintPreviewState@@@Z" PURGE="-1" COMMENT="" />
    <EXPORT ORDINAL="10908" NAME="?OnSetPageSite@COlePropertyPage@@UEAAXXZ" PURGE="-1" COMMENT="" />
    <EXPORT ORDINAL="10907" NAME="?OnSetOptions@CRecordset@@UEAAXPEAX@Z" PURGE="-1" COMMENT="" />
    <EXPORT ORDINAL="10906" NAME="?OnSetOptions@CDatabase@@UEAAXPEAX@Z" PURGE="-1" COMMENT="" />
    <EXPORT ORDINAL="10905" NAME="?OnSetObjectRects@COleControl@@UEAAHPEBUtagRECT@@0@Z" PURGE="-1" COMMENT="" />
    <EXPORT ORDINAL="10904" NAME="?OnSetMinHeight@CStatusBar@@IEAA_J_K_J@Z" PURGE="-1" COMMENT="" />
    <EXPORT ORDINAL="10903" NAME="?OnSetMessageString@COleIPFrameWnd@@UEAA_J_K_J@Z" PURGE="-1" COMMENT="" />
    <EXPORT ORDINAL="10902" NAME="?OnSetMessageString@COleControl@@IEAA_J_K_J@Z" PURGE="-1" COMMENT="" />
    <EXPORT ORDINAL="10901" NAME="?OnSetMessageString@CFrameWnd@@IEAA_J_K_J@Z" PURGE="-1" COMMENT="" />
    <EXPORT ORDINAL="10899" NAME="?OnSetMenu@COleIPFrameWndEx@@IEAA_J_K_J@Z" PURGE="-1" COMMENT="" />
    <EXPORT ORDINAL="10900" NAME="?OnSetMenu@COleIPFrameWndEx@@IEAAHPEAUHMENU__@@@Z" PURGE="-1" COMMENT="" />
    <EXPORT ORDINAL="10897" NAME="?OnSetMenu@COleDocIPFrameWndEx@@IEAA_J_K_J@Z" PURGE="-1" COMMENT="" />
    <EXPORT ORDINAL="10898" NAME="?OnSetMenu@COleDocIPFrameWndEx@@IEAAHPEAUHMENU__@@@Z" PURGE="-1" COMMENT="" />
    <EXPORT ORDINAL="10896" NAME="?OnSetMenu@COleClientItem@@UEAAXPEAVCMenu@@PEAXPEAUHWND__@@@Z" PURGE="-1" COMMENT="" />
    <EXPORT ORDINAL="10895" NAME="?OnSetMenu@CMDIFrameWndEx@@MEAAHPEAUHMENU__@@@Z" PURGE="-1" COMMENT="" />
    <EXPORT ORDINAL="10894" NAME="?OnSetMenu@CMDIClientAreaWnd@@IEAA_J_K_J@Z" PURGE="-1" COMMENT="" />
    <EXPORT ORDINAL="10893" NAME="?OnSetMenu@CFrameWndEx@@QEAA_J_K_J@Z" PURGE="-1" COMMENT="" />
    <EXPORT ORDINAL="10892" NAME="?OnSetMenu@CFrameWndEx@@IEAAHPEAUHMENU__@@@Z" PURGE="-1" COMMENT="" />
    <EXPORT ORDINAL="10891" NAME="?OnSetItemRects@COleServerDoc@@MEAAXPEBUtagRECT@@0@Z" PURGE="-1" COMMENT="" />
    <EXPORT ORDINAL="10890" NAME="?OnSetItemRects@CDocObjectServer@@IEAAXPEAUtagRECT@@0@Z" PURGE="-1" COMMENT="" />
    <EXPORT ORDINAL="10889" NAME="?OnSetImage@CMFCButton@@IEAA_J_K_J@Z" PURGE="-1" COMMENT="" />
    <EXPORT ORDINAL="10888" NAME="?OnSetIcon@CMFCRibbonLinkCtrl@@UEAAXXZ" PURGE="-1" COMMENT="" />
    <EXPORT ORDINAL="10887" NAME="?OnSetIcon@CMDIChildWndEx@@IEAA_J_K_J@Z" PURGE="-1" COMMENT="" />
    <EXPORT ORDINAL="10886" NAME="?OnSetIcon@CBasePane@@IEAA_J_K_J@Z" PURGE="-1" COMMENT="" />
    <EXPORT ORDINAL="10885" NAME="?OnSetHostNames@COleServerDoc@@MEAAXPEBD0@Z" PURGE="-1" COMMENT="" />
    <EXPORT ORDINAL="10884" NAME="?OnSetFont@CVSListBoxBase@@IEAA_J_K_J@Z" PURGE="-1" COMMENT="" />
    <EXPORT ORDINAL="10883" NAME="?OnSetFont@CMFCTasksPane@@IEAA_J_K_J@Z" PURGE="-1" COMMENT="" />
    <EXPORT ORDINAL="10882" NAME="?OnSetFont@CMFCStatusBar@@IEAA_J_K_J@Z" PURGE="-1" COMMENT="" />
    <EXPORT ORDINAL="10881" NAME="?OnSetFont@CMFCRibbonBar@@IEAA_J_K_J@Z" PURGE="-1" COMMENT="" />
    <EXPORT ORDINAL="10880" NAME="?OnSetFont@CMFCPropertyGridToolTipCtrl@@IEAA_J_K_J@Z" PURGE="-1" COMMENT="" />
    <EXPORT ORDINAL="10879" NAME="?OnSetFont@CMFCPropertyGridCtrl@@IEAA_J_K_J@Z" PURGE="-1" COMMENT="" />
    <EXPORT ORDINAL="10878" NAME="?OnSetFont@CMFCHeaderCtrl@@IEAA_J_K_J@Z" PURGE="-1" COMMENT="" />
    <EXPORT ORDINAL="10877" NAME="?OnSetFont@CMFCCaptionBar@@IEAA_J_K_J@Z" PURGE="-1" COMMENT="" />
    <EXPORT ORDINAL="10876" NAME="?OnSetFont@CMFCButton@@IEAA_J_K_J@Z" PURGE="-1" COMMENT="" />
    <EXPORT ORDINAL="10875" NAME="?OnSetFont@CEditView@@IEAA_J_K_J@Z" PURGE="-1" COMMENT="" />
    <EXPORT ORDINAL="10874" NAME="?OnSetFont@CDialog@@UEAAXPEAVCFont@@@Z" PURGE="-1" COMMENT="" />
    <EXPORT ORDINAL="10873" NAME="?OnSetFont@CCheckListBox@@IEAA_J_K_J@Z" PURGE="-1" COMMENT="" />
    <EXPORT ORDINAL="10872" NAME="?OnSetFocusR@CMFCMaskedEdit@@IEAAXXZ" PURGE="-1" COMMENT="" />
    <EXPORT ORDINAL="10871" NAME="?OnSetFocus@CWnd@@IEAAXPEAV1@@Z" PURGE="-1" COMMENT="" />
    <EXPORT ORDINAL="10870" NAME="?OnSetFocus@CVSListBoxBase@@IEAAXPEAVCWnd@@@Z" PURGE="-1" COMMENT="" />
    <EXPORT ORDINAL="10869" NAME="?OnSetFocus@CPaneFrameWnd@@IEAAXPEAVCWnd@@@Z" PURGE="-1" COMMENT="" />
    <EXPORT ORDINAL="10868" NAME="?OnSetFocus@COleControl@@IEAAXPEAVCWnd@@@Z" PURGE="-1" COMMENT="" />
    <EXPORT ORDINAL="10867" NAME="?OnSetFocus@CMultiPaneFrameWnd@@IEAAXPEAVCWnd@@@Z" PURGE="-1" COMMENT="" />
    <EXPORT ORDINAL="10866" NAME="?OnSetFocus@CMFCToolBarEditCtrl@@IEAAXPEAVCWnd@@@Z" PURGE="-1" COMMENT="" />
    <EXPORT ORDINAL="10865" NAME="?OnSetFocus@CMFCToolBarComboBoxEdit@@IEAAXPEAVCWnd@@@Z" PURGE="-1" COMMENT="" />
    <EXPORT ORDINAL="10864" NAME="?OnSetFocus@CMFCToolBar@@IEAAXPEAVCWnd@@@Z" PURGE="-1" COMMENT="" />
    <EXPORT ORDINAL="10863" NAME="?OnSetFocus@CMFCTabCtrl@@IEAAXPEAVCWnd@@@Z" PURGE="-1" COMMENT="" />
    <EXPORT ORDINAL="10862" NAME="?OnSetFocus@CMFCRibbonRichEditCtrl@@IEAAXPEAVCWnd@@@Z" PURGE="-1" COMMENT="" />
    <EXPORT ORDINAL="10861" NAME="?OnSetFocus@CMFCRibbonGallery@@UEAAXH@Z" PURGE="-1" COMMENT="" />
    <EXPORT ORDINAL="10860" NAME="?OnSetFocus@CMFCRibbonEdit@@UEAAXH@Z" PURGE="-1" COMMENT="" />
    <EXPORT ORDINAL="10859" NAME="?OnSetFocus@CMFCRibbonBar@@IEAAXPEAVCWnd@@@Z" PURGE="-1" COMMENT="" />
    <EXPORT ORDINAL="10858" NAME="?OnSetFocus@CMFCPropertyGridCtrl@@IEAAXPEAVCWnd@@@Z" PURGE="-1" COMMENT="" />
    <EXPORT ORDINAL="10857" NAME="?OnSetFocus@CMFCOutlookBarPane@@IEAAXPEAVCWnd@@@Z" PURGE="-1" COMMENT="" />
    <EXPORT ORDINAL="10856" NAME="?OnSetFocus@CMFCMenuBar@@IEAAXPEAVCWnd@@@Z" PURGE="-1" COMMENT="" />
    <EXPORT ORDINAL="10855" NAME="?OnSetFocus@CMFCDesktopAlertDialog@@IEAAXPEAVCWnd@@@Z" PURGE="-1" COMMENT="" />
    <EXPORT ORDINAL="10854" NAME="?OnSetFocus@CMFCColorPickerCtrl@@IEAAXPEAVCWnd@@@Z" PURGE="-1" COMMENT="" />
    <EXPORT ORDINAL="10853" NAME="?OnSetFocus@CFrameWnd@@IEAAXPEAVCWnd@@@Z" PURGE="-1" COMMENT="" />
    <EXPORT ORDINAL="10852" NAME="?OnSetFocus@CFormView@@IEAAXPEAVCWnd@@@Z" PURGE="-1" COMMENT="" />
    <EXPORT ORDINAL="10851" NAME="?OnSetFocus@CDockablePane@@IEAAXPEAVCWnd@@@Z" PURGE="-1" COMMENT="" />
    <EXPORT ORDINAL="10850" NAME="?OnSetFocus@CBaseTabbedPane@@IEAAXPEAVCWnd@@@Z" PURGE="-1" COMMENT="" />
    <EXPORT ORDINAL="10849" NAME="?OnSetExtent@COleServerItem@@UEAAHW4tagDVASPECT@@AEBVCSize@@@Z" PURGE="-1" COMMENT="" />
    <EXPORT ORDINAL="10848" NAME="?OnSetExtent@COleControl@@UEAAHPEAUtagSIZE@@@Z" PURGE="-1" COMMENT="" />
    <EXPORT ORDINAL="10846" NAME="?OnSetDefaultButtonText@CMFCToolBar@@UEAAHPEAVCMFCToolBarButton@@@Z" PURGE="-1" COMMENT="" />
    <EXPORT ORDINAL="10845" NAME="?OnSetDefaultButtonText@CMFCPopupMenuBar@@MEAAHPEAVCMFCToolBarButton@@@Z" PURGE="-1" COMMENT="" />
    <EXPORT ORDINAL="10844" NAME="?OnSetDefaultButtonText@CMFCMenuBar@@UEAAHPEAVCMFCToolBarButton@@@Z" PURGE="-1" COMMENT="" />
    <EXPORT ORDINAL="10847" NAME="?OnSetDefID@CPropertySheet@@IEAA_J_K_J@Z" PURGE="-1" COMMENT="" />
    <EXPORT ORDINAL="10843" NAME="?OnSetData@COleServerItem@@UEAAHPEAUtagFORMATETC@@PEAUtagSTGMEDIUM@@H@Z" PURGE="-1" COMMENT="" />
    <EXPORT ORDINAL="10842" NAME="?OnSetData@COleDataSource@@UEAAHPEAUtagFORMATETC@@PEAUtagSTGMEDIUM@@H@Z" PURGE="-1" COMMENT="" />
    <EXPORT ORDINAL="10841" NAME="?OnSetData@COleControl@@UEAAHPEAUtagFORMATETC@@PEAUtagSTGMEDIUM@@H@Z" PURGE="-1" COMMENT="" />
    <EXPORT ORDINAL="10840" NAME="?OnSetData@CItemDataSource@COleServerItem@@MEAAHPEAUtagFORMATETC@@PEAUtagSTGMEDIUM@@H@Z" PURGE="-1" COMMENT="" />
    <EXPORT ORDINAL="10839" NAME="?OnSetData@CControlDataSource@COleControl@@MEAAHPEAUtagFORMATETC@@PEAUtagSTGMEDIUM@@H@Z" PURGE="-1" COMMENT="" />
    <EXPORT ORDINAL="10838" NAME="?OnSetCursor@CSplitterWnd@@IEAAHPEAVCWnd@@II@Z" PURGE="-1" COMMENT="" />
    <EXPORT ORDINAL="10837" NAME="?OnSetCursor@CPreviewView@@IEAAHPEAVCWnd@@II@Z" PURGE="-1" COMMENT="" />
    <EXPORT ORDINAL="10836" NAME="?OnSetCursor@CPaneFrameWnd@@IEAAHPEAVCWnd@@II@Z" PURGE="-1" COMMENT="" />
    <EXPORT ORDINAL="10835" NAME="?OnSetCursor@CPaneDivider@@IEAAHPEAVCWnd@@II@Z" PURGE="-1" COMMENT="" />
    <EXPORT ORDINAL="10834" NAME="?OnSetCursor@COleResizeBar@@IEAAHPEAVCWnd@@II@Z" PURGE="-1" COMMENT="" />
    <EXPORT ORDINAL="10833" NAME="?OnSetCursor@COleControl@@IEAAHPEAVCWnd@@II@Z" PURGE="-1" COMMENT="" />
    <EXPORT ORDINAL="10832" NAME="?OnSetCursor@CMFCToolBar@@IEAAHPEAVCWnd@@II@Z" PURGE="-1" COMMENT="" />
    <EXPORT ORDINAL="10831" NAME="?OnSetCursor@CMFCTasksPane@@IEAAHPEAVCWnd@@II@Z" PURGE="-1" COMMENT="" />
    <EXPORT ORDINAL="10830" NAME="?OnSetCursor@CMFCTabCtrl@@IEAAHPEAVCWnd@@II@Z" PURGE="-1" COMMENT="" />
    <EXPORT ORDINAL="10829" NAME="?OnSetCursor@CMFCRibbonBar@@IEAAHPEAVCWnd@@II@Z" PURGE="-1" COMMENT="" />
    <EXPORT ORDINAL="10828" NAME="?OnSetCursor@CMFCPropertyGridProperty@@UEBAHXZ" PURGE="-1" COMMENT="" />
    <EXPORT ORDINAL="10827" NAME="?OnSetCursor@CMFCPropertyGridCtrl@@IEAAHPEAVCWnd@@II@Z" PURGE="-1" COMMENT="" />
    <EXPORT ORDINAL="10826" NAME="?OnSetCursor@CMFCPopupMenu@@IEAAHPEAVCWnd@@II@Z" PURGE="-1" COMMENT="" />
    <EXPORT ORDINAL="10825" NAME="?OnSetCursor@CMFCOutlookBarToolBar@@QEAAHPEAVCWnd@@II@Z" PURGE="-1" COMMENT="" />
    <EXPORT ORDINAL="10824" NAME="?OnSetCursor@CMFCOutlookBarTabCtrl@@IEAAHPEAVCWnd@@II@Z" PURGE="-1" COMMENT="" />
    <EXPORT ORDINAL="10823" NAME="?OnSetCursor@CMFCImagePaintArea@@IEAAHPEAVCWnd@@II@Z" PURGE="-1" COMMENT="" />
    <EXPORT ORDINAL="10822" NAME="?OnSetCursor@CMFCColorDialog@@IEAAHPEAVCWnd@@II@Z" PURGE="-1" COMMENT="" />
    <EXPORT ORDINAL="10821" NAME="?OnSetCursor@CMFCButton@@IEAAHPEAVCWnd@@II@Z" PURGE="-1" COMMENT="" />
    <EXPORT ORDINAL="10820" NAME="?OnSetCursor@CFrameWnd@@IEAAHPEAVCWnd@@II@Z" PURGE="-1" COMMENT="" />
    <EXPORT ORDINAL="10819" NAME="?OnSetColumns@CMFCShellListCtrl@@UEAAXXZ" PURGE="-1" COMMENT="" />
    <EXPORT ORDINAL="10818" NAME="?OnSetColumns@CMFCKeyMapDialog@@MEAAXXZ" PURGE="-1" COMMENT="" />
    <EXPORT ORDINAL="10817" NAME="?OnSetColorScheme@COleServerItem@@UEAAHPEBUtagLOGPALETTE@@@Z" PURGE="-1" COMMENT="" />
    <EXPORT ORDINAL="10816" NAME="?OnSetClientSite@COleControl@@UEAAXXZ" PURGE="-1" COMMENT="" />
    <EXPORT ORDINAL="10815" NAME="?OnSetCheck@CMFCButton@@IEAA_J_K_J@Z" PURGE="-1" COMMENT="" />
    <EXPORT ORDINAL="10814" NAME="?OnSetButtonSize@CToolBar@@IEAA_J_K_J@Z" PURGE="-1" COMMENT="" />
    <EXPORT ORDINAL="10813" NAME="?OnSetBitmapSize@CToolBar@@IEAA_J_K_J@Z" PURGE="-1" COMMENT="" />
    <EXPORT ORDINAL="10812" NAME="?OnSetActive@CPropertyPage@@UEAAHXZ" PURGE="-1" COMMENT="" />
    <EXPORT ORDINAL="10811" NAME="?OnSetActive@CMFCPropertyPage@@UEAAHXZ" PURGE="-1" COMMENT="" />
    <EXPORT ORDINAL="10810" NAME="?OnSetAccData@CMFCToolBar@@UEAAHJ@Z" PURGE="-1" COMMENT="" />
    <EXPORT ORDINAL="10809" NAME="?OnSetAccData@CMFCTasksPane@@UEAAHJ@Z" PURGE="-1" COMMENT="" />
    <EXPORT ORDINAL="10808" NAME="?OnSetAccData@CMFCRibbonPanelMenuBar@@UEAAHJ@Z" PURGE="-1" COMMENT="" />
    <EXPORT ORDINAL="10807" NAME="?OnSetAccData@CMFCRibbonBar@@UEAAHJ@Z" PURGE="-1" COMMENT="" />
    <EXPORT ORDINAL="10806" NAME="?OnSetAccData@CBasePane@@UEAAHJ@Z" PURGE="-1" COMMENT="" />
    <EXPORT ORDINAL="10805" NAME="?OnSendIconicThumbnail@CMDITabProxyWnd@@IEAA_J_K_J@Z" PURGE="-1" COMMENT="" />
    <EXPORT ORDINAL="10804" NAME="?OnSendIconicThumbnail@CMDIChildWndEx@@IEAAX_K_J@Z" PURGE="-1" COMMENT="" />
    <EXPORT ORDINAL="10803" NAME="?OnSendIconicLivePreviewBitmap@CMDITabProxyWnd@@IEAA_J_K_J@Z" PURGE="-1" COMMENT="" />
    <EXPORT ORDINAL="10802" NAME="?OnSendIconicLivePreviewBitmap@CMDIChildWndEx@@IEAAX_K_J@Z" PURGE="-1" COMMENT="" />
    <EXPORT ORDINAL="10801" NAME="?OnSendCommand@CMFCPopupMenuBar@@MEAAHPEBVCMFCToolBarButton@@@Z" PURGE="-1" COMMENT="" />
    <EXPORT ORDINAL="10800" NAME="?OnSendCommand@CMFCOutlookBarToolBar@@UEAAHPEBVCMFCToolBarButton@@@Z" PURGE="-1" COMMENT="" />
    <EXPORT ORDINAL="10799" NAME="?OnSendCommand@CMFCOutlookBarPaneList@@EEAAHPEBVCMFCToolBarButton@@@Z" PURGE="-1" COMMENT="" />
    <EXPORT ORDINAL="10798" NAME="?OnSendCommand@CMFCMenuBar@@UEAAHPEBVCMFCToolBarButton@@@Z" PURGE="-1" COMMENT="" />
    <EXPORT ORDINAL="10797" NAME="?OnSendCommand@CMFCDropDownToolBar@@UEAAHPEBVCMFCToolBarButton@@@Z" PURGE="-1" COMMENT="" />
    <EXPORT ORDINAL="10796" NAME="?OnSendCommand@CMFCColorBar@@MEAAHPEBVCMFCToolBarButton@@@Z" PURGE="-1" COMMENT="" />
    <EXPORT ORDINAL="10795" NAME="?OnSend@CAsyncSocket@@MEAAXH@Z" PURGE="-1" COMMENT="" />
    <EXPORT ORDINAL="10794" NAME="?OnSelendokCategoryCombo@CMFCRibbonCustomizePropertyPage@@IEAAXXZ" PURGE="-1" COMMENT="" />
    <EXPORT ORDINAL="10790" NAME="?OnSelectionChanged@CVSToolsListBox@@UEAAXXZ" PURGE="-1" COMMENT="" />
    <EXPORT ORDINAL="10789" NAME="?OnSelectionChange@XFileDialogEvents@CFileDialog@@UEAAJPEAUIFileDialog@@@Z" PURGE="-1" COMMENT="" />
    <EXPORT ORDINAL="10793" NAME="?OnSelectTree@CMFCPropertySheet@@IEAAXPEAUtagNMHDR@@PEA_J@Z" PURGE="-1" COMMENT="" />
    <EXPORT ORDINAL="10792" NAME="?OnSelectList@CMFCPropertySheet@@IEAAXXZ" PURGE="-1" COMMENT="" />
    <EXPORT ORDINAL="10791" NAME="?OnSelectItem@CMFCRibbonComboBox@@UEAAXH@Z" PURGE="-1" COMMENT="" />
    <EXPORT ORDINAL="10788" NAME="?OnSelectCombo@CMFCPropertyGridProperty@@UEAAXXZ" PURGE="-1" COMMENT="" />
    <EXPORT ORDINAL="10787" NAME="?OnSelectCombo@CMFCPropertyGridCtrl@@IEAAXXZ" PURGE="-1" COMMENT="" />
    <EXPORT ORDINAL="10786" NAME="?OnSelchangeViewType@CMFCToolBarsKeyboardPropertyPage@@IEAAXXZ" PURGE="-1" COMMENT="" />
    <EXPORT ORDINAL="10785" NAME="?OnSelchangeViewType@CMFCRibbonKeyboardCustomizeDialog@@IEAAXXZ" PURGE="-1" COMMENT="" />
    <EXPORT ORDINAL="10784" NAME="?OnSelchangeViewType@CMFCKeyMapDialog@@IEAAXXZ" PURGE="-1" COMMENT="" />
    <EXPORT ORDINAL="10783" NAME="?OnSelchangeUserTools@CMFCToolBarsCommandsPropertyPage@@IEAAXXZ" PURGE="-1" COMMENT="" />
    <EXPORT ORDINAL="10782" NAME="?OnSelchangeToolbarList@CMFCToolBarsListPropertyPage@@IEAAXXZ" PURGE="-1" COMMENT="" />
    <EXPORT ORDINAL="10781" NAME="?OnSelchangeQATCommands@CMFCRibbonCustomizePropertyPage@@IEAAXXZ" PURGE="-1" COMMENT="" />
    <EXPORT ORDINAL="10780" NAME="?OnSelchangeMenuList@CMFCToolBarsMenuPropertyPage@@IEAAXXZ" PURGE="-1" COMMENT="" />
    <EXPORT ORDINAL="10779" NAME="?OnSelchangeListOfCommands@CMFCMousePropertyPage@@IEAAXXZ" PURGE="-1" COMMENT="" />
    <EXPORT ORDINAL="10778" NAME="?OnSelchangeList@CMFCWindowsManagerDialog@@IEAAXXZ" PURGE="-1" COMMENT="" />
    <EXPORT ORDINAL="10777" NAME="?OnSelchangeCurrentKeysList@CMFCToolBarsKeyboardPropertyPage@@IEAAXXZ" PURGE="-1" COMMENT="" />
    <EXPORT ORDINAL="10776" NAME="?OnSelchangeCurrentKeysList@CMFCRibbonKeyboardCustomizeDialog@@IEAAXXZ" PURGE="-1" COMMENT="" />
    <EXPORT ORDINAL="10775" NAME="?OnSelchangeContextMenuList@CMFCToolBarsMenuPropertyPage@@IEAAXXZ" PURGE="-1" COMMENT="" />
    <EXPORT ORDINAL="10774" NAME="?OnSelchangeCommandsList@CMFCToolBarsKeyboardPropertyPage@@IEAAXXZ" PURGE="-1" COMMENT="" />
    <EXPORT ORDINAL="10773" NAME="?OnSelchangeCommandsList@CMFCRibbonKeyboardCustomizeDialog@@IEAAXXZ" PURGE="-1" COMMENT="" />
    <EXPORT ORDINAL="10772" NAME="?OnSelchangeCommandsList@CMFCRibbonCustomizePropertyPage@@IEAAXXZ" PURGE="-1" COMMENT="" />
    <EXPORT ORDINAL="10771" NAME="?OnSelchangeCategory@CMFCToolBarsKeyboardPropertyPage@@IEAAXXZ" PURGE="-1" COMMENT="" />
    <EXPORT ORDINAL="10770" NAME="?OnSelchangeCategory@CMFCToolBarsCommandsPropertyPage@@IEAAXXZ" PURGE="-1" COMMENT="" />
    <EXPORT ORDINAL="10769" NAME="?OnSelchangeCategory@CMFCRibbonKeyboardCustomizeDialog@@IEAAXXZ" PURGE="-1" COMMENT="" />
    <EXPORT ORDINAL="10768" NAME="?OnSelchangeCategory@CMFCKeyMapDialog@@IEAAXXZ" PURGE="-1" COMMENT="" />
    <EXPORT ORDINAL="10766" NAME="?OnSelchange@COutlookOptionsDlg@@IEAAXXZ" PURGE="-1" COMMENT="" />
    <EXPORT ORDINAL="10767" NAME="?OnSelChange@CRichEditView@@IEAAXPEAUtagNMHDR@@PEA_J@Z" PURGE="-1" COMMENT="" />
    <EXPORT ORDINAL="10765" NAME="?OnScrollHorz@CMFCRibbonCategory@@UEAAHHH@Z" PURGE="-1" COMMENT="" />
    <EXPORT ORDINAL="10764" NAME="?OnScrollBy@CView@@UEAAHVCSize@@H@Z" PURGE="-1" COMMENT="" />
    <EXPORT ORDINAL="10763" NAME="?OnScrollBy@CScrollView@@UEAAHVCSize@@H@Z" PURGE="-1" COMMENT="" />
    <EXPORT ORDINAL="10762" NAME="?OnScrollBy@COleClientItem@@MEAAHVCSize@@@Z" PURGE="-1" COMMENT="" />
    <EXPORT ORDINAL="10761" NAME="?OnScroll@CView@@UEAAHIIH@Z" PURGE="-1" COMMENT="" />
    <EXPORT ORDINAL="10760" NAME="?OnScroll@CScrollView@@UEAAHIIH@Z" PURGE="-1" COMMENT="" />
    <EXPORT ORDINAL="10759" NAME="?OnSaveViewState@CDocObjectServer@@MEAAXAEAVCArchive@@@Z" PURGE="-1" COMMENT="" />
    <EXPORT ORDINAL="10758" NAME="?OnSaveEmbedding@COleServerItem@@MEAAXPEAUIStorage@@@Z" PURGE="-1" COMMENT="" />
    <EXPORT ORDINAL="10757" NAME="?OnSaveEmbedding@COleServerDoc@@MEAAXPEAUIStorage@@@Z" PURGE="-1" COMMENT="" />
    <EXPORT ORDINAL="10756" NAME="?OnSaveDocument@COleServerDoc@@UEAAHPEBD@Z" PURGE="-1" COMMENT="" />
    <EXPORT ORDINAL="10755" NAME="?OnSaveDocument@COleLinkingDoc@@UEAAHPEBD@Z" PURGE="-1" COMMENT="" />
    <EXPORT ORDINAL="10754" NAME="?OnSaveDocument@COleDocument@@UEAAHPEBD@Z" PURGE="-1" COMMENT="" />
    <EXPORT ORDINAL="10753" NAME="?OnSaveDocument@CHtmlEditDoc@@UEAAHPEBD@Z" PURGE="-1" COMMENT="" />
    <EXPORT ORDINAL="10752" NAME="?OnSaveDocument@CDocument@@UEAAHPEBD@Z" PURGE="-1" COMMENT="" />
    <EXPORT ORDINAL="10751" NAME="?OnSave@XAdviseSink@COleClientItem@@UEAAXXZ" PURGE="-1" COMMENT="" />
    <EXPORT ORDINAL="10750" NAME="?OnSave@CMFCWindowsManagerDialog@@IEAAXXZ" PURGE="-1" COMMENT="" />
    <EXPORT ORDINAL="10740" NAME="?OnRowsetChange@XRowsetNotify@COleControlSite@@UEAAJPEAUIRowset@@KKH@Z" PURGE="-1" COMMENT="" />
    <EXPORT ORDINAL="10739" NAME="?OnRowChange@XRowsetNotify@COleControlSite@@UEAAJPEAUIRowset@@_KQEB_KKKH@Z" PURGE="-1" COMMENT="" />
    <EXPORT ORDINAL="10738" NAME="?OnRotateListValue@CMFCPropertyGridProperty@@MEAAHH@Z" PURGE="-1" COMMENT="" />
    <EXPORT ORDINAL="10737" NAME="?OnRichPreviewUnload@CDocument@@UEAAXXZ" PURGE="-1" COMMENT="" />
    <EXPORT ORDINAL="10735" NAME="?OnReturn@CMFCShellListCtrl@@IEAAXPEAUtagNMHDR@@PEA_J@Z" PURGE="-1" COMMENT="" />
    <EXPORT ORDINAL="10734" NAME="?OnResizeRow@CDockSite@@UEAAHPEAVCDockingPanesRow@@H@Z" PURGE="-1" COMMENT="" />
    <EXPORT ORDINAL="10733" NAME="?OnResizePane@CDockingPanesRow@@UEAAXPEAVCBasePane@@@Z" PURGE="-1" COMMENT="" />
    <EXPORT ORDINAL="10732" NAME="?OnResizeChild@COleIPFrameWnd@@IEAA_J_K_J@Z" PURGE="-1" COMMENT="" />
    <EXPORT ORDINAL="10731" NAME="?OnResizeBorder@COleServerDocEx@@MEAAXPEBUtagRECT@@PEAUIOleInPlaceUIWindow@@H@Z" PURGE="-1" COMMENT="" />
    <EXPORT ORDINAL="10730" NAME="?OnResizeBorder@COleServerDoc@@UEAAXPEBUtagRECT@@PEAUIOleInPlaceUIWindow@@H@Z" PURGE="-1" COMMENT="" />
    <EXPORT ORDINAL="10729" NAME="?OnResizeBorder@CHtmlView@@UEAAJPEBUtagRECT@@PEAUIOleInPlaceUIWindow@@H@Z" PURGE="-1" COMMENT="" />
    <EXPORT ORDINAL="10728" NAME="?OnResetUsageData@CMFCToolBarsOptionsPropertyPage@@IEAAXXZ" PURGE="-1" COMMENT="" />
    <EXPORT ORDINAL="10727" NAME="?OnResetToolbar@CMFCToolBarsListPropertyPage@@IEAAXXZ" PURGE="-1" COMMENT="" />
    <EXPORT ORDINAL="10726" NAME="?OnResetState@COleControl@@UEAAXXZ" PURGE="-1" COMMENT="" />
    <EXPORT ORDINAL="10725" NAME="?OnResetMenu@CMFCToolBarsMenuPropertyPage@@IEAAXXZ" PURGE="-1" COMMENT="" />
    <EXPORT ORDINAL="10724" NAME="?OnResetFrameMenu@CMFCToolBarsMenuPropertyPage@@IEAAXXZ" PURGE="-1" COMMENT="" />
    <EXPORT ORDINAL="10723" NAME="?OnResetAllToolbars@CMFCToolBarsListPropertyPage@@IEAAXXZ" PURGE="-1" COMMENT="" />
    <EXPORT ORDINAL="10722" NAME="?OnResetAll@CMFCToolBarsKeyboardPropertyPage@@IEAAXXZ" PURGE="-1" COMMENT="" />
    <EXPORT ORDINAL="10721" NAME="?OnResetAll@CMFCRibbonKeyboardCustomizeDialog@@IEAAXXZ" PURGE="-1" COMMENT="" />
    <EXPORT ORDINAL="10720" NAME="?OnReset@CPropertyPage@@UEAAXXZ" PURGE="-1" COMMENT="" />
    <EXPORT ORDINAL="10719" NAME="?OnReset@COutlookOptionsDlg@@IEAAXXZ" PURGE="-1" COMMENT="" />
    <EXPORT ORDINAL="10718" NAME="?OnReset@CEnumArray@@MEAAXXZ" PURGE="-1" COMMENT="" />
    <EXPORT ORDINAL="10717" NAME="?OnRequestPositionChange@COleIPFrameWnd@@MEAAXPEBUtagRECT@@@Z" PURGE="-1" COMMENT="" />
    <EXPORT ORDINAL="10716" NAME="?OnRequestPositionChange@COleDocIPFrameWnd@@MEAAXPEBUtagRECT@@@Z" PURGE="-1" COMMENT="" />
    <EXPORT ORDINAL="10714" NAME="?OnRequestEdit@XPropertyNotifySink@COleControlSite@@UEAAJJ@Z" PURGE="-1" COMMENT="" />
    <EXPORT ORDINAL="10715" NAME="?OnRequestEdit@XPropNotifySink@COlePropertyPage@@UEAAJJ@Z" PURGE="-1" COMMENT="" />
    <EXPORT ORDINAL="10713" NAME="?OnRequestEdit@XFontNotification@COleControl@@UEAAJJ@Z" PURGE="-1" COMMENT="" />
    <EXPORT ORDINAL="10712" NAME="?OnReplaceSel@CRichEditView@@MEAAXPEBDHHH0@Z" PURGE="-1" COMMENT="" />
    <EXPORT ORDINAL="10711" NAME="?OnReplaceSel@CEditView@@MEAAXPEBDHH0@Z" PURGE="-1" COMMENT="" />
    <EXPORT ORDINAL="10710" NAME="?OnReplaceAll@CRichEditView@@MEAAXPEBD0HH@Z" PURGE="-1" COMMENT="" />
    <EXPORT ORDINAL="10709" NAME="?OnReplaceAll@CEditView@@MEAAXPEBD0H@Z" PURGE="-1" COMMENT="" />
    <EXPORT ORDINAL="10708" NAME="?OnRenderGlobalData@COleServerItem@@UEAAHPEAUtagFORMATETC@@PEAPEAX@Z" PURGE="-1" COMMENT="" />
    <EXPORT ORDINAL="10707" NAME="?OnRenderGlobalData@COleDataSource@@UEAAHPEAUtagFORMATETC@@PEAPEAX@Z" PURGE="-1" COMMENT="" />
    <EXPORT ORDINAL="10706" NAME="?OnRenderGlobalData@COleControl@@UEAAHPEAUtagFORMATETC@@PEAPEAX@Z" PURGE="-1" COMMENT="" />
    <EXPORT ORDINAL="10705" NAME="?OnRenderGlobalData@CItemDataSource@COleServerItem@@MEAAHPEAUtagFORMATETC@@PEAPEAX@Z" PURGE="-1" COMMENT="" />
    <EXPORT ORDINAL="10704" NAME="?OnRenderGlobalData@CControlDataSource@COleControl@@MEAAHPEAUtagFORMATETC@@PEAPEAX@Z" PURGE="-1" COMMENT="" />
    <EXPORT ORDINAL="10703" NAME="?OnRenderFileData@COleServerItem@@UEAAHPEAUtagFORMATETC@@PEAVCFile@@@Z" PURGE="-1" COMMENT="" />
    <EXPORT ORDINAL="10702" NAME="?OnRenderFileData@COleDataSource@@UEAAHPEAUtagFORMATETC@@PEAVCFile@@@Z" PURGE="-1" COMMENT="" />
    <EXPORT ORDINAL="10701" NAME="?OnRenderFileData@COleControl@@UEAAHPEAUtagFORMATETC@@PEAVCFile@@@Z" PURGE="-1" COMMENT="" />
    <EXPORT ORDINAL="10700" NAME="?OnRenderFileData@CItemDataSource@COleServerItem@@MEAAHPEAUtagFORMATETC@@PEAVCFile@@@Z" PURGE="-1" COMMENT="" />
    <EXPORT ORDINAL="10699" NAME="?OnRenderFileData@CControlDataSource@COleControl@@MEAAHPEAUtagFORMATETC@@PEAVCFile@@@Z" PURGE="-1" COMMENT="" />
    <EXPORT ORDINAL="10698" NAME="?OnRenderData@COleServerItem@@UEAAHPEAUtagFORMATETC@@PEAUtagSTGMEDIUM@@@Z" PURGE="-1" COMMENT="" />
    <EXPORT ORDINAL="10697" NAME="?OnRenderData@COleDataSource@@UEAAHPEAUtagFORMATETC@@PEAUtagSTGMEDIUM@@@Z" PURGE="-1" COMMENT="" />
    <EXPORT ORDINAL="10696" NAME="?OnRenderData@COleControl@@UEAAHPEAUtagFORMATETC@@PEAUtagSTGMEDIUM@@@Z" PURGE="-1" COMMENT="" />
    <EXPORT ORDINAL="10695" NAME="?OnRenderData@CItemDataSource@COleServerItem@@MEAAHPEAUtagFORMATETC@@PEAUtagSTGMEDIUM@@@Z" PURGE="-1" COMMENT="" />
    <EXPORT ORDINAL="10694" NAME="?OnRenderData@CControlDataSource@COleControl@@MEAAHPEAUtagFORMATETC@@PEAUtagSTGMEDIUM@@@Z" PURGE="-1" COMMENT="" />
    <EXPORT ORDINAL="10693" NAME="?OnRenameToolbar@CMFCToolBarsListPropertyPage@@IEAAXXZ" PURGE="-1" COMMENT="" />
    <EXPORT ORDINAL="10692" NAME="?OnRename@XAdviseSink@COleClientItem@@UEAAXPEAUIMoniker@@@Z" PURGE="-1" COMMENT="" />
    <EXPORT ORDINAL="10691" NAME="?OnRemoveTreePage@CMFCPropertySheet@@UEAAHPEAVCPropertyPage@@@Z" PURGE="-1" COMMENT="" />
    <EXPORT ORDINAL="10690" NAME="?OnRemoveRow@CDockSite@@UEAAXPEAU__POSITION@@H@Z" PURGE="-1" COMMENT="" />
    <EXPORT ORDINAL="10689" NAME="?OnRemoveMenus@COleDocObjectItem@@UEAAXPEAVCMenu@@@Z" PURGE="-1" COMMENT="" />
    <EXPORT ORDINAL="10688" NAME="?OnRemoveMenus@COleClientItem@@UEAAXPEAVCMenu@@@Z" PURGE="-1" COMMENT="" />
    <EXPORT ORDINAL="10687" NAME="?OnRemove@CMFCToolBarsKeyboardPropertyPage@@IEAAXXZ" PURGE="-1" COMMENT="" />
    <EXPORT ORDINAL="10686" NAME="?OnRemove@CMFCRibbonKeyboardCustomizeDialog@@IEAAXXZ" PURGE="-1" COMMENT="" />
    <EXPORT ORDINAL="10685" NAME="?OnRemove@CMFCRibbonCustomizePropertyPage@@IEAAXXZ" PURGE="-1" COMMENT="" />
    <EXPORT ORDINAL="10684" NAME="?OnReflectorDestroyed@COleControl@@MEAAXXZ" PURGE="-1" COMMENT="" />
    <EXPORT ORDINAL="10683" NAME="?OnReceive@CAsyncSocket@@MEAAXH@Z" PURGE="-1" COMMENT="" />
    <EXPORT ORDINAL="10682" NAME="?OnRecalcParent@CReBar@@IEAAXXZ" PURGE="-1" COMMENT="" />
    <EXPORT ORDINAL="10681" NAME="?OnRecalcParent@COleIPFrameWnd@@IEAA_J_K_J@Z" PURGE="-1" COMMENT="" />
    <EXPORT ORDINAL="10680" NAME="?OnRecalcParent@CMFCReBar@@IEAAXXZ" PURGE="-1" COMMENT="" />
    <EXPORT ORDINAL="10679" NAME="?OnRecalcLayout@COleFrameHook@@UEAAXXZ" PURGE="-1" COMMENT="" />
    <EXPORT ORDINAL="10678" NAME="?OnReactivateAndUndo@COleServerDoc@@MEAAHXZ" PURGE="-1" COMMENT="" />
    <EXPORT ORDINAL="10749" NAME="?OnRTLChanged@CPane@@MEAAXH@Z" PURGE="-1" COMMENT="" />
    <EXPORT ORDINAL="10748" NAME="?OnRTLChanged@CMFCRibbonStatusBarPane@@MEAAXH@Z" PURGE="-1" COMMENT="" />
    <EXPORT ORDINAL="10747" NAME="?OnRTLChanged@CMFCRibbonStatusBar@@MEAAXH@Z" PURGE="-1" COMMENT="" />
    <EXPORT ORDINAL="10746" NAME="?OnRTLChanged@CMFCRibbonPanel@@MEAAXH@Z" PURGE="-1" COMMENT="" />
    <EXPORT ORDINAL="10745" NAME="?OnRTLChanged@CMFCRibbonGallery@@UEAAXH@Z" PURGE="-1" COMMENT="" />
    <EXPORT ORDINAL="10744" NAME="?OnRTLChanged@CMFCRibbonEdit@@UEAAXH@Z" PURGE="-1" COMMENT="" />
    <EXPORT ORDINAL="10743" NAME="?OnRTLChanged@CMFCRibbonCategory@@UEAAXH@Z" PURGE="-1" COMMENT="" />
    <EXPORT ORDINAL="10742" NAME="?OnRTLChanged@CMFCRibbonButtonsGroup@@MEAAXH@Z" PURGE="-1" COMMENT="" />
    <EXPORT ORDINAL="10741" NAME="?OnRTLChanged@CMFCRibbonBar@@UEAAXH@Z" PURGE="-1" COMMENT="" />
    <EXPORT ORDINAL="10736" NAME="?OnRGBChanged@CMFCCustomColorsPropertyPage@@IEAAXXZ" PURGE="-1" COMMENT="" />
    <EXPORT ORDINAL="10677" NAME="?OnRButtonUp@COleControl@@IEAAXIVCPoint@@@Z" PURGE="-1" COMMENT="" />
    <EXPORT ORDINAL="10676" NAME="?OnRButtonUp@CMFCEditBrowseCtrl@@IEAAXIVCPoint@@@Z" PURGE="-1" COMMENT="" />
    <EXPORT ORDINAL="10675" NAME="?OnRButtonUp@CMFCCaptionBar@@IEAAXIVCPoint@@@Z" PURGE="-1" COMMENT="" />
    <EXPORT ORDINAL="10674" NAME="?OnRButtonDown@COleControl@@IEAAXIVCPoint@@@Z" PURGE="-1" COMMENT="" />
    <EXPORT ORDINAL="10673" NAME="?OnRButtonDown@CMFCToolBar@@IEAAXIVCPoint@@@Z" PURGE="-1" COMMENT="" />
    <EXPORT ORDINAL="10672" NAME="?OnRButtonDown@CMFCShellTreeCtrl@@IEAAXIVCPoint@@@Z" PURGE="-1" COMMENT="" />
    <EXPORT ORDINAL="10671" NAME="?OnRButtonDown@CMFCPropertyGridCtrl@@IEAAXIVCPoint@@@Z" PURGE="-1" COMMENT="" />
    <EXPORT ORDINAL="10670" NAME="?OnRButtonDown@CMFCEditBrowseCtrl@@IEAAXIVCPoint@@@Z" PURGE="-1" COMMENT="" />
    <EXPORT ORDINAL="10669" NAME="?OnRButtonDown@CMFCBaseTabCtrl@@IEAAXIVCPoint@@@Z" PURGE="-1" COMMENT="" />
    <EXPORT ORDINAL="10668" NAME="?OnRButtonDown@CDockablePane@@IEAAXIVCPoint@@@Z" PURGE="-1" COMMENT="" />
    <EXPORT ORDINAL="10667" NAME="?OnRButtonDblClk@COleControl@@IEAAXIVCPoint@@@Z" PURGE="-1" COMMENT="" />
    <EXPORT ORDINAL="10666" NAME="?OnQuit@CHtmlView@@UEAAXXZ" PURGE="-1" COMMENT="" />
    <EXPORT ORDINAL="10665" NAME="?OnQueryUpdateItems@COleServerItem@@UEAAHXZ" PURGE="-1" COMMENT="" />
    <EXPORT ORDINAL="10664" NAME="?OnQueryNewPalette@COleFrameHook@@UEAAHXZ" PURGE="-1" COMMENT="" />
    <EXPORT ORDINAL="10663" NAME="?OnQueryNewPalette@CMFCColorPickerCtrl@@IEAAHXZ" PURGE="-1" COMMENT="" />
    <EXPORT ORDINAL="10662" NAME="?OnQueryNewPalette@CMFCColorBar@@IEAAHXZ" PURGE="-1" COMMENT="" />
    <EXPORT ORDINAL="10661" NAME="?OnQueryNewPalette@CFrameWnd@@IEAAHXZ" PURGE="-1" COMMENT="" />
    <EXPORT ORDINAL="10660" NAME="?OnQueryHitRect@COleControl@@UEAAHKPEBUtagRECT@@0JPEAK@Z" PURGE="-1" COMMENT="" />
    <EXPORT ORDINAL="10659" NAME="?OnQueryHitPoint@COleControl@@UEAAHKPEBUtagRECT@@UtagPOINT@@JPEAK@Z" PURGE="-1" COMMENT="" />
    <EXPORT ORDINAL="10658" NAME="?OnQueryEndSession@CFrameWnd@@IEAAHXZ" PURGE="-1" COMMENT="" />
    <EXPORT ORDINAL="10657" NAME="?OnQueryEndSession@CDialog@@IEAAHXZ" PURGE="-1" COMMENT="" />
    <EXPORT ORDINAL="10656" NAME="?OnQueryCenterWnd@CMiniFrameWnd@@QEAA_J_K_J@Z" PURGE="-1" COMMENT="" />
    <EXPORT ORDINAL="10655" NAME="?OnQueryCancel@CPropertyPage@@UEAAHXZ" PURGE="-1" COMMENT="" />
    <EXPORT ORDINAL="10654" NAME="?OnPropertyChanged@CMFCPropertyGridCtrl@@UEBAXPEAVCMFCPropertyGridProperty@@@Z" PURGE="-1" COMMENT="" />
    <EXPORT ORDINAL="10653" NAME="?OnPropertyChange@CHtmlView@@UEAAXPEBD@Z" PURGE="-1" COMMENT="" />
    <EXPORT ORDINAL="10652" NAME="?OnProperties@COleControl@@UEAAHPEAUtagMSG@@PEAUHWND__@@PEBUtagRECT@@@Z" PURGE="-1" COMMENT="" />
    <EXPORT ORDINAL="10651" NAME="?OnPromptReset@CMFCToolBar@@IEAA_J_K_J@Z" PURGE="-1" COMMENT="" />
    <EXPORT ORDINAL="10650" NAME="?OnProgressChange@CHtmlView@@UEAAXJJ@Z" PURGE="-1" COMMENT="" />
    <EXPORT ORDINAL="10649" NAME="?OnProgress@CAsyncMonikerFile@@MEAAXKKKPEBD@Z" PURGE="-1" COMMENT="" />
    <EXPORT ORDINAL="10648" NAME="?OnProcessDblClk@CPane@@UEAAXXZ" PURGE="-1" COMMENT="" />
    <EXPORT ORDINAL="10644" NAME="?OnPrinterChanged@CRichEditView@@MEAAXAEBVCDC@@@Z" PURGE="-1" COMMENT="" />
    <EXPORT ORDINAL="10647" NAME="?OnPrintSetup@CPrintDialog@@IEAAXXZ" PURGE="-1" COMMENT="" />
    <EXPORT ORDINAL="10646" NAME="?OnPrintItem@CMFCKeyMapDialog@@MEBAHAEAVCDC@@HHHH@Z" PURGE="-1" COMMENT="" />
    <EXPORT ORDINAL="10645" NAME="?OnPrintHeader@CMFCKeyMapDialog@@MEBAHAEAVCDC@@HH@Z" PURGE="-1" COMMENT="" />
    <EXPORT ORDINAL="10643" NAME="?OnPrintClient@CView@@IEAA_J_K_J@Z" PURGE="-1" COMMENT="" />
    <EXPORT ORDINAL="14099" NAME="?OnPrintClient@CTabView@@IEAA_J_K_J@Z" PURGE="-1" COMMENT="" />
    <EXPORT ORDINAL="10642" NAME="?OnPrintClient@CSplitterWnd@@IEAA_J_K_J@Z" PURGE="-1" COMMENT="" />
    <EXPORT ORDINAL="10641" NAME="?OnPrintClient@CScrollView@@QEAA_J_K_J@Z" PURGE="-1" COMMENT="" />
    <EXPORT ORDINAL="10640" NAME="?OnPrintClient@CPaneDialog@@QEAA_J_K_J@Z" PURGE="-1" COMMENT="" />
    <EXPORT ORDINAL="10639" NAME="?OnPrintClient@CMFCPropertyGridCtrl@@IEAA_J_K_J@Z" PURGE="-1" COMMENT="" />
    <EXPORT ORDINAL="10638" NAME="?OnPrintClient@CMFCDesktopAlertWnd@@IEAA_J_K_J@Z" PURGE="-1" COMMENT="" />
    <EXPORT ORDINAL="10637" NAME="?OnPrintClient@CMFCDesktopAlertDialog@@IEAA_J_K_J@Z" PURGE="-1" COMMENT="" />
    <EXPORT ORDINAL="10636" NAME="?OnPrintClient@CFormView@@IEAA_J_K_J@Z" PURGE="-1" COMMENT="" />
    <EXPORT ORDINAL="10635" NAME="?OnPrintClient@CCtrlView@@IEAA_J_K_J@Z" PURGE="-1" COMMENT="" />
    <EXPORT ORDINAL="10634" NAME="?OnPrintClient@CBasePane@@IEAA_J_K_J@Z" PURGE="-1" COMMENT="" />
    <EXPORT ORDINAL="10633" NAME="?OnPrint@CView@@MEAAXPEAVCDC@@PEAUCPrintInfo@@@Z" PURGE="-1" COMMENT="" />
    <EXPORT ORDINAL="10632" NAME="?OnPrint@CRichEditView@@MEAAXPEAVCDC@@PEAUCPrintInfo@@@Z" PURGE="-1" COMMENT="" />
    <EXPORT ORDINAL="10631" NAME="?OnPrint@COleDocObjectItem@@SAXPEAVCView@@PEAUCPrintInfo@@H@Z" PURGE="-1" COMMENT="" />
    <EXPORT ORDINAL="10630" NAME="?OnPrint@CMFCKeyMapDialog@@IEAAXXZ" PURGE="-1" COMMENT="" />
    <EXPORT ORDINAL="10629" NAME="?OnPrint@CEditView@@MEAAXPEAVCDC@@PEAUCPrintInfo@@@Z" PURGE="-1" COMMENT="" />
    <EXPORT ORDINAL="10627" NAME="?OnPreviewPrint@CPreviewView@@IEAAXXZ" PURGE="-1" COMMENT="" />
    <EXPORT ORDINAL="10626" NAME="?OnPreviewHandlerTranslateAccelerator@CDocument@@UEAAJPEAUtagMSG@@@Z" PURGE="-1" COMMENT="" />
    <EXPORT ORDINAL="10625" NAME="?OnPreviewHandlerQueryFocus@CDocument@@UEAAJPEAPEAUHWND__@@@Z" PURGE="-1" COMMENT="" />
    <EXPORT ORDINAL="10624" NAME="?OnPreviewClose@CPreviewView@@IEAAXXZ" PURGE="-1" COMMENT="" />
    <EXPORT ORDINAL="10628" NAME="?OnPrevPage@CPreviewView@@IEAAXXZ" PURGE="-1" COMMENT="" />
    <EXPORT ORDINAL="10622" NAME="?OnPressTaskbarThmbnailCloseButton@CMDIChildWndEx@@UEAAXXZ" PURGE="-1" COMMENT="" />
    <EXPORT ORDINAL="10621" NAME="?OnPressOtherButton@CMFCTasksPane@@UEAAXPEAVCMFCCaptionMenuButton@@PEAVCWnd@@@Z" PURGE="-1" COMMENT="" />
    <EXPORT ORDINAL="10620" NAME="?OnPressHomeButton@CMFCTasksPane@@UEAAXXZ" PURGE="-1" COMMENT="" />
    <EXPORT ORDINAL="10619" NAME="?OnPressForwardButton@CMFCTasksPane@@UEAAXXZ" PURGE="-1" COMMENT="" />
    <EXPORT ORDINAL="10618" NAME="?OnPressCloseButton@CTabbedPane@@MEAAXXZ" PURGE="-1" COMMENT="" />
    <EXPORT ORDINAL="10617" NAME="?OnPressCloseButton@CPane@@UEAAXXZ" PURGE="-1" COMMENT="" />
    <EXPORT ORDINAL="10616" NAME="?OnPressCloseButton@CDockablePane@@MEAAXXZ" PURGE="-1" COMMENT="" />
    <EXPORT ORDINAL="10615" NAME="?OnPressButtons@CPaneFrameWnd@@MEAAXI@Z" PURGE="-1" COMMENT="" />
    <EXPORT ORDINAL="10614" NAME="?OnPressButtons@CMFCTasksPaneFrameWnd@@MEAAXI@Z" PURGE="-1" COMMENT="" />
    <EXPORT ORDINAL="10613" NAME="?OnPressButtons@CMFCTasksPane@@MEAAXI@Z" PURGE="-1" COMMENT="" />
    <EXPORT ORDINAL="10612" NAME="?OnPressBackButton@CMFCTasksPane@@UEAAXXZ" PURGE="-1" COMMENT="" />
    <EXPORT ORDINAL="10611" NAME="?OnPreserveZeroBorderHelper@CToolBar@@IEAA_J_K_J@Z" PURGE="-1" COMMENT="" />
    <EXPORT ORDINAL="10610" NAME="?OnPreserveSizingPolicyHelper@CToolBar@@IEAA_J_K_J@Z" PURGE="-1" COMMENT="" />
    <EXPORT ORDINAL="10609" NAME="?OnPreparePrinting@CView@@MEAAHPEAUCPrintInfo@@@Z" PURGE="-1" COMMENT="" />
    <EXPORT ORDINAL="10608" NAME="?OnPreparePrinting@COleDocObjectItem@@SAHPEAVCView@@PEAUCPrintInfo@@H@Z" PURGE="-1" COMMENT="" />
    <EXPORT ORDINAL="10607" NAME="?OnPreparePrinting@CHtmlEditView@@UEAAHPEAUCPrintInfo@@@Z" PURGE="-1" COMMENT="" />
    <EXPORT ORDINAL="10606" NAME="?OnPreparePrinting@CEditView@@MEAAHPEAUCPrintInfo@@@Z" PURGE="-1" COMMENT="" />
    <EXPORT ORDINAL="10605" NAME="?OnPrepareDC@CView@@UEAAXPEAVCDC@@PEAUCPrintInfo@@@Z" PURGE="-1" COMMENT="" />
    <EXPORT ORDINAL="10604" NAME="?OnPrepareDC@CScrollView@@UEAAXPEAVCDC@@PEAUCPrintInfo@@@Z" PURGE="-1" COMMENT="" />
    <EXPORT ORDINAL="10603" NAME="?OnPrepareDC@CRichEditView@@UEAAXPEAVCDC@@PEAUCPrintInfo@@@Z" PURGE="-1" COMMENT="" />
    <EXPORT ORDINAL="10602" NAME="?OnPrepareDC@CPreviewView@@UEAAXPEAVCDC@@PEAUCPrintInfo@@@Z" PURGE="-1" COMMENT="" />
    <EXPORT ORDINAL="10601" NAME="?OnPrepareDC@CEditView@@UEAAXPEAVCDC@@PEAUCPrintInfo@@@Z" PURGE="-1" COMMENT="" />
    <EXPORT ORDINAL="10623" NAME="?OnPreTranslateMessage@COleFrameHook@@UEAAHPEAUtagMSG@@@Z" PURGE="-1" COMMENT="" />
    <EXPORT ORDINAL="10600" NAME="?OnPowerBroadcast@CMDIFrameWndEx@@IEAAIII@Z" PURGE="-1" COMMENT="" />
    <EXPORT ORDINAL="10599" NAME="?OnPowerBroadcast@CFrameWndEx@@QEAAIII@Z" PURGE="-1" COMMENT="" />
    <EXPORT ORDINAL="10598" NAME="?OnPostRecalcLayout@CMFCRibbonBar@@IEAA_J_K_J@Z" PURGE="-1" COMMENT="" />
    <EXPORT ORDINAL="10597" NAME="?OnPostPreviewFrame@CMDIFrameWndEx@@IEAA_J_K_J@Z" PURGE="-1" COMMENT="" />
    <EXPORT ORDINAL="10596" NAME="?OnPostPreviewFrame@CFrameWndEx@@QEAA_J_K_J@Z" PURGE="-1" COMMENT="" />
    <EXPORT ORDINAL="10595" NAME="?OnPosRectChange@XOleIPSite@COleControlSite@@UEAAJPEBUtagRECT@@@Z" PURGE="-1" COMMENT="" />
    <EXPORT ORDINAL="10594" NAME="?OnPosRectChange@XOleIPSite@COleClientItem@@UEAAJPEBUtagRECT@@@Z" PURGE="-1" COMMENT="" />
    <EXPORT ORDINAL="10593" NAME="?OnPosChange@CSmartDockingManager@@QEAAXXZ" PURGE="-1" COMMENT="" />
    <EXPORT ORDINAL="10592" NAME="?OnPopMessageString@CFrameWnd@@IEAA_J_K_J@Z" PURGE="-1" COMMENT="" />
    <EXPORT ORDINAL="10591" NAME="?OnPop@CMFCToolTipCtrl@@IEAAXPEAUtagNMHDR@@PEA_J@Z" PURGE="-1" COMMENT="" />
    <EXPORT ORDINAL="10590" NAME="?OnPickColor@CMFCImageEditorDialog@@IEAAHK@Z" PURGE="-1" COMMENT="" />
    <EXPORT ORDINAL="10589" NAME="?OnPasteNativeObject@CRichEditView@@MEAAHPEAUIStorage@@@Z" PURGE="-1" COMMENT="" />
    <EXPORT ORDINAL="10588" NAME="?OnPaste@CMFCMaskedEdit@@IEAA_J_K_J@Z" PURGE="-1" COMMENT="" />
    <EXPORT ORDINAL="10587" NAME="?OnParentNotify@CWnd@@IEAAXI_J@Z" PURGE="-1" COMMENT="" />
    <EXPORT ORDINAL="10586" NAME="?OnParaRight@CRichEditView@@IEAAXXZ" PURGE="-1" COMMENT="" />
    <EXPORT ORDINAL="10585" NAME="?OnParaLeft@CRichEditView@@IEAAXXZ" PURGE="-1" COMMENT="" />
    <EXPORT ORDINAL="10584" NAME="?OnParaCenter@CRichEditView@@IEAAXXZ" PURGE="-1" COMMENT="" />
    <EXPORT ORDINAL="10583" NAME="?OnParaAlign@CRichEditView@@QEAAXG@Z" PURGE="-1" COMMENT="" />
    <EXPORT ORDINAL="10582" NAME="?OnPaneRecalcLayout@CPaneFrameWnd@@UEAAXXZ" PURGE="-1" COMMENT="" />
    <EXPORT ORDINAL="10581" NAME="?OnPaneRecalcLayout@CMultiPaneFrameWnd@@UEAAXXZ" PURGE="-1" COMMENT="" />
    <EXPORT ORDINAL="10580" NAME="?OnPaneDividerMove@CPaneContainerManager@@UEAAHPEAVCPaneDivider@@IHAEAPEAX@Z" PURGE="-1" COMMENT="" />
    <EXPORT ORDINAL="10579" NAME="?OnPaneContextMenu@CMFCRibbonStatusBar@@MEAAXPEAVCWnd@@VCPoint@@@Z" PURGE="-1" COMMENT="" />
    <EXPORT ORDINAL="10578" NAME="?OnPaneContextMenu@CMFCRibbonBar@@MEAAXPEAVCWnd@@VCPoint@@@Z" PURGE="-1" COMMENT="" />
    <EXPORT ORDINAL="10577" NAME="?OnPaneContextMenu@CDockingManager@@QEAAXVCPoint@@@Z" PURGE="-1" COMMENT="" />
    <EXPORT ORDINAL="10576" NAME="?OnPaneContextMenu@CBasePane@@UEAAXPEAVCWnd@@VCPoint@@@Z" PURGE="-1" COMMENT="" />
    <EXPORT ORDINAL="10575" NAME="?OnPaneCheck@COleIPFrameWndEx@@IEAAHI@Z" PURGE="-1" COMMENT="" />
    <EXPORT ORDINAL="10574" NAME="?OnPaneCheck@COleDocIPFrameWndEx@@IEAAHI@Z" PURGE="-1" COMMENT="" />
    <EXPORT ORDINAL="10573" NAME="?OnPaneCheck@CMDIFrameWndEx@@IEAAHI@Z" PURGE="-1" COMMENT="" />
    <EXPORT ORDINAL="10572" NAME="?OnPaneCheck@CFrameWndEx@@QEAAHI@Z" PURGE="-1" COMMENT="" />
    <EXPORT ORDINAL="10571" NAME="?OnPaletteChanged@COleFrameHook@@UEAAXPEAVCWnd@@@Z" PURGE="-1" COMMENT="" />
    <EXPORT ORDINAL="10570" NAME="?OnPaletteChanged@CMFCColorPickerCtrl@@IEAAXPEAVCWnd@@@Z" PURGE="-1" COMMENT="" />
    <EXPORT ORDINAL="10569" NAME="?OnPaletteChanged@CMFCColorBar@@IEAAXPEAVCWnd@@@Z" PURGE="-1" COMMENT="" />
    <EXPORT ORDINAL="10568" NAME="?OnPaletteChanged@CFrameWnd@@IEAAXPEAVCWnd@@@Z" PURGE="-1" COMMENT="" />
    <EXPORT ORDINAL="10567" NAME="?OnPaint@CWnd@@IEAAXXZ" PURGE="-1" COMMENT="" />
    <EXPORT ORDINAL="10565" NAME="?OnPaint@CView@@IEAAXXZ" PURGE="-1" COMMENT="" />
    <EXPORT ORDINAL="10566" NAME="?OnPaint@CVSListBoxBase@@IEAAXXZ" PURGE="-1" COMMENT="" />
    <EXPORT ORDINAL="10564" NAME="?OnPaint@CToolBar@@IEAAXXZ" PURGE="-1" COMMENT="" />
    <EXPORT ORDINAL="10563" NAME="?OnPaint@CStatusBar@@IEAAXXZ" PURGE="-1" COMMENT="" />
    <EXPORT ORDINAL="10562" NAME="?OnPaint@CSplitterWnd@@IEAAXXZ" PURGE="-1" COMMENT="" />
    <EXPORT ORDINAL="10561" NAME="?OnPaint@CSmartDockingStandaloneGuideWnd@@IEAAXXZ" PURGE="-1" COMMENT="" />
    <EXPORT ORDINAL="10560" NAME="?OnPaint@CSmartDockingHighlighterWnd@@IEAAXXZ" PURGE="-1" COMMENT="" />
    <EXPORT ORDINAL="10559" NAME="?OnPaint@CSmartDockingGroupGuidesWnd@@QEAAXXZ" PURGE="-1" COMMENT="" />
    <EXPORT ORDINAL="10558" NAME="?OnPaint@CReBar@@IEAAXXZ" PURGE="-1" COMMENT="" />
    <EXPORT ORDINAL="10557" NAME="?OnPaint@CPaneDivider@@IEAAXXZ" PURGE="-1" COMMENT="" />
    <EXPORT ORDINAL="10556" NAME="?OnPaint@COleResizeBar@@IEAAXXZ" PURGE="-1" COMMENT="" />
    <EXPORT ORDINAL="10555" NAME="?OnPaint@COleControlContainer@@UEAAHPEAVCDC@@@Z" PURGE="-1" COMMENT="" />
    <EXPORT ORDINAL="10554" NAME="?OnPaint@COleControl@@IEAAXPEAVCDC@@@Z" PURGE="-1" COMMENT="" />
    <EXPORT ORDINAL="10553" NAME="?OnPaint@CMFCToolTipCtrl@@IEAAXXZ" PURGE="-1" COMMENT="" />
    <EXPORT ORDINAL="10552" NAME="?OnPaint@CMFCToolBarComboBoxEdit@@IEAAXXZ" PURGE="-1" COMMENT="" />
    <EXPORT ORDINAL="10551" NAME="?OnPaint@CMFCToolBarButtonCustomizeDialog@@IEAAXXZ" PURGE="-1" COMMENT="" />
    <EXPORT ORDINAL="10550" NAME="?OnPaint@CMFCTasksPane@@IEAAXXZ" PURGE="-1" COMMENT="" />
    <EXPORT ORDINAL="10549" NAME="?OnPaint@CMFCTabCtrl@@IEAAXXZ" PURGE="-1" COMMENT="" />
    <EXPORT ORDINAL="10548" NAME="?OnPaint@CMFCSpinButtonCtrl@@IEAAXXZ" PURGE="-1" COMMENT="" />
    <EXPORT ORDINAL="10547" NAME="?OnPaint@CMFCRibbonStatusBar@@IEAAXXZ" PURGE="-1" COMMENT="" />
    <EXPORT ORDINAL="10546" NAME="?OnPaint@CMFCRibbonRichEditCtrl@@IEAAXXZ" PURGE="-1" COMMENT="" />
    <EXPORT ORDINAL="10545" NAME="?OnPaint@CMFCRibbonKeyTip@@IEAAXXZ" PURGE="-1" COMMENT="" />
    <EXPORT ORDINAL="10544" NAME="?OnPaint@CMFCRibbonBar@@IEAAXXZ" PURGE="-1" COMMENT="" />
    <EXPORT ORDINAL="10543" NAME="?OnPaint@CMFCReBar@@IEAAXXZ" PURGE="-1" COMMENT="" />
    <EXPORT ORDINAL="10542" NAME="?OnPaint@CMFCPropertyGridToolTipCtrl@@IEAAXXZ" PURGE="-1" COMMENT="" />
    <EXPORT ORDINAL="10541" NAME="?OnPaint@CMFCPropertyGridCtrl@@IEAAXXZ" PURGE="-1" COMMENT="" />
    <EXPORT ORDINAL="10540" NAME="?OnPaint@CMFCPreviewCtrlImpl@@QEAAXXZ" PURGE="-1" COMMENT="" />
    <EXPORT ORDINAL="10539" NAME="?OnPaint@CMFCPopupMenu@@IEAAXXZ" PURGE="-1" COMMENT="" />
    <EXPORT ORDINAL="10538" NAME="?OnPaint@CMFCOutlookBarTabCtrl@@IEAAXXZ" PURGE="-1" COMMENT="" />
    <EXPORT ORDINAL="10537" NAME="?OnPaint@CMFCOutlookBar@@IEAAXXZ" PURGE="-1" COMMENT="" />
    <EXPORT ORDINAL="10536" NAME="?OnPaint@CMFCImageEditorDialog@@IEAAXXZ" PURGE="-1" COMMENT="" />
    <EXPORT ORDINAL="10535" NAME="?OnPaint@CMFCHeaderCtrl@@IEAAXXZ" PURGE="-1" COMMENT="" />
    <EXPORT ORDINAL="10534" NAME="?OnPaint@CMFCDropDownFrame@@IEAAXXZ" PURGE="-1" COMMENT="" />
    <EXPORT ORDINAL="10533" NAME="?OnPaint@CMFCDesktopAlertWnd@@IEAAXXZ" PURGE="-1" COMMENT="" />
    <EXPORT ORDINAL="10532" NAME="?OnPaint@CMFCDesktopAlertDialog@@IEAAXXZ" PURGE="-1" COMMENT="" />
    <EXPORT ORDINAL="10531" NAME="?OnPaint@CMFCCaptionBar@@IEAAXXZ" PURGE="-1" COMMENT="" />
    <EXPORT ORDINAL="10530" NAME="?OnPaint@CHtmlView@@IEAAXXZ" PURGE="-1" COMMENT="" />
    <EXPORT ORDINAL="10529" NAME="?OnPaint@CHtmlEditView@@QEAAXXZ" PURGE="-1" COMMENT="" />
    <EXPORT ORDINAL="10526" NAME="?OnPaint@CDockablePane@@IEAAXXZ" PURGE="-1" COMMENT="" />
    <EXPORT ORDINAL="10528" NAME="?OnPaint@CDockSite@@IEAAXXZ" PURGE="-1" COMMENT="" />
    <EXPORT ORDINAL="10527" NAME="?OnPaint@CDockBar@@IEAAXXZ" PURGE="-1" COMMENT="" />
    <EXPORT ORDINAL="10525" NAME="?OnPaint@CDialog@@IEAAXXZ" PURGE="-1" COMMENT="" />
    <EXPORT ORDINAL="10524" NAME="?OnPaint@CCtrlView@@IEAAXXZ" PURGE="-1" COMMENT="" />
    <EXPORT ORDINAL="10523" NAME="?OnPaint@CControlBar@@QEAAXXZ" PURGE="-1" COMMENT="" />
    <EXPORT ORDINAL="10522" NAME="?OnPaint@CCommonDialog@@IEAAXXZ" PURGE="-1" COMMENT="" />
    <EXPORT ORDINAL="10521" NAME="?OnPaint@CBasePane@@IEAAXXZ" PURGE="-1" COMMENT="" />
    <EXPORT ORDINAL="10520" NAME="?OnPaint@CAutoHideDockSite@@IEAAXXZ" PURGE="-1" COMMENT="" />
    <EXPORT ORDINAL="10519" NAME="?OnOverwrite@XFileDialogEvents@CFileDialog@@UEAAJPEAUIFileDialog@@PEAUIShellItem@@PEAW4FDE_OVERWRITE_RESPONSE@@@Z" PURGE="-1" COMMENT="" />
    <EXPORT ORDINAL="10518" NAME="?OnOutOfBandData@CAsyncSocket@@MEAAXH@Z" PURGE="-1" COMMENT="" />
    <EXPORT ORDINAL="10517" NAME="?OnOther@CMFCTasksPane@@IEAAXXZ" PURGE="-1" COMMENT="" />
    <EXPORT ORDINAL="10516" NAME="?OnOpenRecentFile@CWinApp@@IEAAHI@Z" PURGE="-1" COMMENT="" />
    <EXPORT ORDINAL="10515" NAME="?OnOpenEmbedding@COleServerDoc@@MEAAXPEAUIStorage@@@Z" PURGE="-1" COMMENT="" />
    <EXPORT ORDINAL="10514" NAME="?OnOpenDocument@COleLinkingDoc@@UEAAHPEBD@Z" PURGE="-1" COMMENT="" />
    <EXPORT ORDINAL="10513" NAME="?OnOpenDocument@COleDocument@@UEAAHPEBD@Z" PURGE="-1" COMMENT="" />
    <EXPORT ORDINAL="10512" NAME="?OnOpenDocument@CHtmlEditDoc@@UEAAHPEBD@Z" PURGE="-1" COMMENT="" />
    <EXPORT ORDINAL="10511" NAME="?OnOpenDocument@CDocument@@UEAAHPEBD@Z" PURGE="-1" COMMENT="" />
    <EXPORT ORDINAL="10510" NAME="?OnOpen@COleServerItem@@MEAAXXZ" PURGE="-1" COMMENT="" />
    <EXPORT ORDINAL="10509" NAME="?OnOpen@COleControl@@MEAAJHPEAUtagMSG@@@Z" PURGE="-1" COMMENT="" />
    <EXPORT ORDINAL="10500" NAME="?OnOcmCtlColorStatic@COleControl@@IEAA_J_K_J@Z" PURGE="-1" COMMENT="" />
    <EXPORT ORDINAL="10499" NAME="?OnOcmCtlColorScrollBar@COleControl@@IEAA_J_K_J@Z" PURGE="-1" COMMENT="" />
    <EXPORT ORDINAL="10498" NAME="?OnOcmCtlColorMsgBox@COleControl@@IEAA_J_K_J@Z" PURGE="-1" COMMENT="" />
    <EXPORT ORDINAL="10497" NAME="?OnOcmCtlColorListBox@COleControl@@IEAA_J_K_J@Z" PURGE="-1" COMMENT="" />
    <EXPORT ORDINAL="10496" NAME="?OnOcmCtlColorEdit@COleControl@@IEAA_J_K_J@Z" PURGE="-1" COMMENT="" />
    <EXPORT ORDINAL="10495" NAME="?OnOcmCtlColorDlg@COleControl@@IEAA_J_K_J@Z" PURGE="-1" COMMENT="" />
    <EXPORT ORDINAL="10494" NAME="?OnOcmCtlColorBtn@COleControl@@IEAA_J_K_J@Z" PURGE="-1" COMMENT="" />
    <EXPORT ORDINAL="10493" NAME="?OnObjectsChanged@COlePropertyPage@@UEAAXXZ" PURGE="-1" COMMENT="" />
    <EXPORT ORDINAL="10508" NAME="?OnOK@CPropertyPage@@UEAAXXZ" PURGE="-1" COMMENT="" />
    <EXPORT ORDINAL="10507" NAME="?OnOK@COutlookOptionsDlg@@MEAAXXZ" PURGE="-1" COMMENT="" />
    <EXPORT ORDINAL="10506" NAME="?OnOK@CMFCToolBarsToolsPropertyPage@@UEAAXXZ" PURGE="-1" COMMENT="" />
    <EXPORT ORDINAL="10505" NAME="?OnOK@CMFCToolBarButtonCustomizeDialog@@MEAAXXZ" PURGE="-1" COMMENT="" />
    <EXPORT ORDINAL="10504" NAME="?OnOK@CMFCTasksPane@@UEAAXXZ" PURGE="-1" COMMENT="" />
    <EXPORT ORDINAL="10503" NAME="?OnOK@CMFCRibbonCustomizePropertyPage@@UEAAXXZ" PURGE="-1" COMMENT="" />
    <EXPORT ORDINAL="10502" NAME="?OnOK@CDialog@@MEAAXXZ" PURGE="-1" COMMENT="" />
    <EXPORT ORDINAL="10501" NAME="?OnOK@CCommonDialog@@MEAAXXZ" PURGE="-1" COMMENT="" />
    <EXPORT ORDINAL="10492" NAME="?OnNumPageChange@CPreviewView@@IEAAXXZ" PURGE="-1" COMMENT="" />
    <EXPORT ORDINAL="10489" NAME="?OnNotify@CWnd@@MEAAH_K_JPEA_J@Z" PURGE="-1" COMMENT="" />
    <EXPORT ORDINAL="10488" NAME="?OnNotify@CSplitterWnd@@MEAAH_K_JPEA_J@Z" PURGE="-1" COMMENT="" />
    <EXPORT ORDINAL="10487" NAME="?OnNotify@CPropertyPage@@MEAAH_K_JPEA_J@Z" PURGE="-1" COMMENT="" />
    <EXPORT ORDINAL="10486" NAME="?OnNotify@CMFCTabCtrl@@MEAAH_K_JPEA_J@Z" PURGE="-1" COMMENT="" />
    <EXPORT ORDINAL="10485" NAME="?OnNotify@CMFCPropertyGridCtrl@@MEAAH_K_JPEA_J@Z" PURGE="-1" COMMENT="" />
    <EXPORT ORDINAL="10484" NAME="?OnNotify@CMFCPopupMenu@@MEAAH_K_JPEA_J@Z" PURGE="-1" COMMENT="" />
    <EXPORT ORDINAL="10483" NAME="?OnNotify@CMFCKeyMapDialog@@MEAAH_K_JPEA_J@Z" PURGE="-1" COMMENT="" />
    <EXPORT ORDINAL="10482" NAME="?OnNotify@CMFCColorPropertySheet@@MEAAH_K_JPEA_J@Z" PURGE="-1" COMMENT="" />
    <EXPORT ORDINAL="10481" NAME="?OnNotify@CFileDialog@@MEAAH_K_JPEA_J@Z" PURGE="-1" COMMENT="" />
    <EXPORT ORDINAL="10490" NAME="?OnNotRespondingDialog@COleMessageFilter@@UEAAHPEAUHTASK__@@@Z" PURGE="-1" COMMENT="" />
    <EXPORT ORDINAL="10480" NAME="?OnNoDblcliick@CMFCMousePropertyPage@@IEAAXXZ" PURGE="-1" COMMENT="" />
    <EXPORT ORDINAL="10479" NAME="?OnNextPaneCmd@CView@@IEAAHI@Z" PURGE="-1" COMMENT="" />
    <EXPORT ORDINAL="10478" NAME="?OnNextPage@CPreviewView@@IEAAXXZ" PURGE="-1" COMMENT="" />
    <EXPORT ORDINAL="10477" NAME="?OnNext@CEnumUnknown@@MEAAHPEAX@Z" PURGE="-1" COMMENT="" />
    <EXPORT ORDINAL="10476" NAME="?OnNext@CEnumOleVerb@@MEAAHPEAX@Z" PURGE="-1" COMMENT="" />
    <EXPORT ORDINAL="10475" NAME="?OnNext@CEnumFormatEtc@@MEAAHPEAX@Z" PURGE="-1" COMMENT="" />
    <EXPORT ORDINAL="10473" NAME="?OnNext@CEnumConnections@@MEAAHPEAX@Z" PURGE="-1" COMMENT="" />
    <EXPORT ORDINAL="10474" NAME="?OnNext@CEnumConnPoints@@MEAAHPEAX@Z" PURGE="-1" COMMENT="" />
    <EXPORT ORDINAL="10472" NAME="?OnNext@CEnumArray@@MEAAHPEAX@Z" PURGE="-1" COMMENT="" />
    <EXPORT ORDINAL="10471" NAME="?OnNewWindow2@CHtmlView@@UEAAXPEAPEAUIDispatch@@PEAH@Z" PURGE="-1" COMMENT="" />
    <EXPORT ORDINAL="10470" NAME="?OnNewToolbar@CMFCToolBarsListPropertyPage@@IEAAXXZ" PURGE="-1" COMMENT="" />
    <EXPORT ORDINAL="10469" NAME="?OnNewString@CMFCToolBarsListCheckBox@@IEAAXH@Z" PURGE="-1" COMMENT="" />
    <EXPORT ORDINAL="10468" NAME="?OnNewEmbedding@COleServerDoc@@MEAAXPEAUIStorage@@@Z" PURGE="-1" COMMENT="" />
    <EXPORT ORDINAL="10467" NAME="?OnNewDocument@COleServerDocEx@@MEAAHXZ" PURGE="-1" COMMENT="" />
    <EXPORT ORDINAL="10466" NAME="?OnNewDocument@COleLinkingDoc@@UEAAHXZ" PURGE="-1" COMMENT="" />
    <EXPORT ORDINAL="10465" NAME="?OnNewDocument@COleDocument@@UEAAHXZ" PURGE="-1" COMMENT="" />
    <EXPORT ORDINAL="10464" NAME="?OnNewDocument@CHtmlEditDoc@@UEAAHXZ" PURGE="-1" COMMENT="" />
    <EXPORT ORDINAL="10463" NAME="?OnNewDocument@CDocument@@UEAAHXZ" PURGE="-1" COMMENT="" />
    <EXPORT ORDINAL="10462" NAME="?OnNeedTipText@CPaneFrameWnd@@IEAAHIPEAUtagNMHDR@@PEA_J@Z" PURGE="-1" COMMENT="" />
    <EXPORT ORDINAL="10461" NAME="?OnNeedTipText@CMFCToolBar@@IEAAHIPEAUtagNMHDR@@PEA_J@Z" PURGE="-1" COMMENT="" />
    <EXPORT ORDINAL="10460" NAME="?OnNeedTipText@CMFCTasksPaneFrameWnd@@IEAAHIPEAUtagNMHDR@@PEA_J@Z" PURGE="-1" COMMENT="" />
    <EXPORT ORDINAL="10459" NAME="?OnNeedTipText@CMFCTasksPane@@IEAAHIPEAUtagNMHDR@@PEA_J@Z" PURGE="-1" COMMENT="" />
    <EXPORT ORDINAL="10458" NAME="?OnNeedTipText@CMFCRibbonPanelMenuBar@@IEAAHIPEAUtagNMHDR@@PEA_J@Z" PURGE="-1" COMMENT="" />
    <EXPORT ORDINAL="10457" NAME="?OnNeedTipText@CMFCRibbonBar@@IEAAHIPEAUtagNMHDR@@PEA_J@Z" PURGE="-1" COMMENT="" />
    <EXPORT ORDINAL="10456" NAME="?OnNeedTipText@CMFCPropertyGridCtrl@@IEAAHIPEAUtagNMHDR@@PEA_J@Z" PURGE="-1" COMMENT="" />
    <EXPORT ORDINAL="10455" NAME="?OnNeedTipText@CMFCCaptionBar@@IEAAHIPEAUtagNMHDR@@PEA_J@Z" PURGE="-1" COMMENT="" />
    <EXPORT ORDINAL="10454" NAME="?OnNeedTipText@CMFCBaseTabCtrl@@IEAAHIPEAUtagNMHDR@@PEA_J@Z" PURGE="-1" COMMENT="" />
    <EXPORT ORDINAL="10453" NAME="?OnNeedTipText@CDockablePane@@IEAAHIPEAUtagNMHDR@@PEA_J@Z" PURGE="-1" COMMENT="" />
    <EXPORT ORDINAL="10452" NAME="?OnNcRButtonUp@CMDIChildWndEx@@IEAAXIVCPoint@@@Z" PURGE="-1" COMMENT="" />
    <EXPORT ORDINAL="10451" NAME="?OnNcPaint@CToolBar@@IEAAXXZ" PURGE="-1" COMMENT="" />
    <EXPORT ORDINAL="10450" NAME="?OnNcPaint@CStatusBar@@IEAAXXZ" PURGE="-1" COMMENT="" />
    <EXPORT ORDINAL="10449" NAME="?OnNcPaint@CReBar@@IEAAXXZ" PURGE="-1" COMMENT="" />
    <EXPORT ORDINAL="10448" NAME="?OnNcPaint@CPaneFrameWnd@@IEAAXXZ" PURGE="-1" COMMENT="" />
    <EXPORT ORDINAL="10447" NAME="?OnNcPaint@COleControl@@IEAAXXZ" PURGE="-1" COMMENT="" />
    <EXPORT ORDINAL="10446" NAME="?OnNcPaint@CMFCVisualManagerWindows7@@UEAAHPEAVCWnd@@AEBVCObList@@VCRect@@@Z" PURGE="-1" COMMENT="" />
    <EXPORT ORDINAL="10445" NAME="?OnNcPaint@CMFCVisualManagerOffice2007@@UEAAHPEAVCWnd@@AEBVCObList@@VCRect@@@Z" PURGE="-1" COMMENT="" />
    <EXPORT ORDINAL="10444" NAME="?OnNcPaint@CMFCVisualManager@@UEAAHPEAVCWnd@@AEBVCObList@@VCRect@@@Z" PURGE="-1" COMMENT="" />
    <EXPORT ORDINAL="10443" NAME="?OnNcPaint@CMFCToolBar@@IEAAXXZ" PURGE="-1" COMMENT="" />
    <EXPORT ORDINAL="10442" NAME="?OnNcPaint@CMFCTasksPaneFrameWnd@@IEAAXXZ" PURGE="-1" COMMENT="" />
    <EXPORT ORDINAL="10441" NAME="?OnNcPaint@CMFCReBar@@IEAAXXZ" PURGE="-1" COMMENT="" />
    <EXPORT ORDINAL="10440" NAME="?OnNcPaint@CMFCPropertyGridCtrl@@IEAAXXZ" PURGE="-1" COMMENT="" />
    <EXPORT ORDINAL="10439" NAME="?OnNcPaint@CMFCPopupMenuBar@@IEAAXXZ" PURGE="-1" COMMENT="" />
    <EXPORT ORDINAL="10438" NAME="?OnNcPaint@CMFCOutlookBarToolBar@@QEAAXXZ" PURGE="-1" COMMENT="" />
    <EXPORT ORDINAL="10437" NAME="?OnNcPaint@CMFCEditBrowseCtrl@@IEAAXXZ" PURGE="-1" COMMENT="" />
    <EXPORT ORDINAL="10436" NAME="?OnNcPaint@CMFCColorBar@@IEAAXXZ" PURGE="-1" COMMENT="" />
    <EXPORT ORDINAL="10435" NAME="?OnNcPaint@CMFCCaptionBar@@IEAAXXZ" PURGE="-1" COMMENT="" />
    <EXPORT ORDINAL="10434" NAME="?OnNcPaint@CMDIFrameWndEx@@IEAAXXZ" PURGE="-1" COMMENT="" />
    <EXPORT ORDINAL="10433" NAME="?OnNcPaint@CMDIChildWndEx@@IEAAXXZ" PURGE="-1" COMMENT="" />
    <EXPORT ORDINAL="10432" NAME="?OnNcPaint@CFrameWndEx@@QEAAXXZ" PURGE="-1" COMMENT="" />
    <EXPORT ORDINAL="10431" NAME="?OnNcPaint@CFrameImpl@@IEAAHXZ" PURGE="-1" COMMENT="" />
    <EXPORT ORDINAL="10429" NAME="?OnNcPaint@CDockablePane@@IEAAXXZ" PURGE="-1" COMMENT="" />
    <EXPORT ORDINAL="10430" NAME="?OnNcPaint@CDockBar@@IEAAXXZ" PURGE="-1" COMMENT="" />
    <EXPORT ORDINAL="10428" NAME="?OnNcMouseMove@CPaneFrameWnd@@IEAAXIVCPoint@@@Z" PURGE="-1" COMMENT="" />
    <EXPORT ORDINAL="10427" NAME="?OnNcMouseMove@CMFCEditBrowseCtrl@@IEAAXIVCPoint@@@Z" PURGE="-1" COMMENT="" />
    <EXPORT ORDINAL="10426" NAME="?OnNcMouseMove@CMDIFrameWndEx@@IEAAXIVCPoint@@@Z" PURGE="-1" COMMENT="" />
    <EXPORT ORDINAL="10425" NAME="?OnNcMouseMove@CMDIChildWndEx@@IEAAXIVCPoint@@@Z" PURGE="-1" COMMENT="" />
    <EXPORT ORDINAL="10424" NAME="?OnNcMouseMove@CFrameWndEx@@QEAAXIVCPoint@@@Z" PURGE="-1" COMMENT="" />
    <EXPORT ORDINAL="10423" NAME="?OnNcMouseMove@CFrameImpl@@IEAAXIVCPoint@@@Z" PURGE="-1" COMMENT="" />
    <EXPORT ORDINAL="10422" NAME="?OnNcMouseMove@CDockablePane@@IEAAXIVCPoint@@@Z" PURGE="-1" COMMENT="" />
    <EXPORT ORDINAL="10421" NAME="?OnNcLButtonDown@COleControl@@IEAAXIVCPoint@@@Z" PURGE="-1" COMMENT="" />
    <EXPORT ORDINAL="10420" NAME="?OnNcLButtonDown@CMiniDockFrameWnd@@QEAAXIVCPoint@@@Z" PURGE="-1" COMMENT="" />
    <EXPORT ORDINAL="10419" NAME="?OnNcLButtonDown@CMFCPopupMenu@@IEAAXIVCPoint@@@Z" PURGE="-1" COMMENT="" />
    <EXPORT ORDINAL="10418" NAME="?OnNcLButtonDown@CDockablePane@@IEAAXIVCPoint@@@Z" PURGE="-1" COMMENT="" />
    <EXPORT ORDINAL="10417" NAME="?OnNcLButtonDblClk@CPaneFrameWnd@@IEAAXIVCPoint@@@Z" PURGE="-1" COMMENT="" />
    <EXPORT ORDINAL="10416" NAME="?OnNcLButtonDblClk@CMiniDockFrameWnd@@QEAAXIVCPoint@@@Z" PURGE="-1" COMMENT="" />
    <EXPORT ORDINAL="10415" NAME="?OnNcLButtonDblClk@CMFCEditBrowseCtrl@@IEAAXIVCPoint@@@Z" PURGE="-1" COMMENT="" />
    <EXPORT ORDINAL="10414" NAME="?OnNcHitTest@CToolBar@@IEAA_JVCPoint@@@Z" PURGE="-1" COMMENT="" />
    <EXPORT ORDINAL="10413" NAME="?OnNcHitTest@CStatusBar@@IEAA_JVCPoint@@@Z" PURGE="-1" COMMENT="" />
    <EXPORT ORDINAL="10412" NAME="?OnNcHitTest@CPaneFrameWnd@@IEAA_JVCPoint@@@Z" PURGE="-1" COMMENT="" />
    <EXPORT ORDINAL="10411" NAME="?OnNcHitTest@COleControl@@IEAA_JVCPoint@@@Z" PURGE="-1" COMMENT="" />
    <EXPORT ORDINAL="10410" NAME="?OnNcHitTest@CMiniFrameWnd@@QEAA_JVCPoint@@@Z" PURGE="-1" COMMENT="" />
    <EXPORT ORDINAL="10409" NAME="?OnNcHitTest@CMFCToolBar@@IEAA_JVCPoint@@@Z" PURGE="-1" COMMENT="" />
    <EXPORT ORDINAL="10408" NAME="?OnNcHitTest@CMFCStatusBar@@IEAA_JVCPoint@@@Z" PURGE="-1" COMMENT="" />
    <EXPORT ORDINAL="10407" NAME="?OnNcHitTest@CMFCRibbonStatusBar@@IEAA_JVCPoint@@@Z" PURGE="-1" COMMENT="" />
    <EXPORT ORDINAL="10406" NAME="?OnNcHitTest@CMFCPopupMenu@@IEAA_JVCPoint@@@Z" PURGE="-1" COMMENT="" />
    <EXPORT ORDINAL="10405" NAME="?OnNcHitTest@CMFCEditBrowseCtrl@@IEAA_JVCPoint@@@Z" PURGE="-1" COMMENT="" />
    <EXPORT ORDINAL="10404" NAME="?OnNcHitTest@CMDIFrameWndEx@@IEAA_JVCPoint@@@Z" PURGE="-1" COMMENT="" />
    <EXPORT ORDINAL="10403" NAME="?OnNcHitTest@CMDIChildWndEx@@IEAA_JVCPoint@@@Z" PURGE="-1" COMMENT="" />
    <EXPORT ORDINAL="10402" NAME="?OnNcHitTest@CFrameWndEx@@QEAA_JVCPoint@@@Z" PURGE="-1" COMMENT="" />
    <EXPORT ORDINAL="10401" NAME="?OnNcHitTest@CFrameImpl@@IEAAIVCPoint@@@Z" PURGE="-1" COMMENT="" />
    <EXPORT ORDINAL="10400" NAME="?OnNcHitTest@CDockablePane@@IEAA_JVCPoint@@@Z" PURGE="-1" COMMENT="" />
    <EXPORT ORDINAL="10399" NAME="?OnNcDestroy@CWnd@@IEAAXXZ" PURGE="-1" COMMENT="" />
    <EXPORT ORDINAL="10398" NAME="?OnNcDestroy@CPaneFrameWnd@@IEAAXXZ" PURGE="-1" COMMENT="" />
    <EXPORT ORDINAL="10397" NAME="?OnNcDestroy@CPaneDivider@@IEAAXXZ" PURGE="-1" COMMENT="" />
    <EXPORT ORDINAL="10396" NAME="?OnNcDestroy@CPane@@IEAAXXZ" PURGE="-1" COMMENT="" />
    <EXPORT ORDINAL="10395" NAME="?OnNcDestroy@CMFCPreviewCtrlImpl@@QEAAXXZ" PURGE="-1" COMMENT="" />
    <EXPORT ORDINAL="10394" NAME="?OnNcDestroy@CMFCOutlookBarPaneAdapter@@IEAAXXZ" PURGE="-1" COMMENT="" />
    <EXPORT ORDINAL="10393" NAME="?OnNcDestroy@CMFCOutlookBarPane@@IEAAXXZ" PURGE="-1" COMMENT="" />
    <EXPORT ORDINAL="10392" NAME="?OnNcDestroy@CMFCDesktopAlertWnd@@IEAAXXZ" PURGE="-1" COMMENT="" />
    <EXPORT ORDINAL="10391" NAME="?OnNcDestroy@CMFCAutoHideBar@@IEAAXXZ" PURGE="-1" COMMENT="" />
    <EXPORT ORDINAL="10390" NAME="?OnNcDestroy@CListView@@QEAAXXZ" PURGE="-1" COMMENT="" />
    <EXPORT ORDINAL="10389" NAME="?OnNcDestroy@CListCtrl@@IEAAXXZ" PURGE="-1" COMMENT="" />
    <EXPORT ORDINAL="10388" NAME="?OnNcDestroy@CDockSite@@IEAAXXZ" PURGE="-1" COMMENT="" />
    <EXPORT ORDINAL="10387" NAME="?OnNcDestroy@CBaseTabbedPane@@IEAAXXZ" PURGE="-1" COMMENT="" />
    <EXPORT ORDINAL="10386" NAME="?OnNcCreate@CToolBar@@IEAAHPEAUtagCREATESTRUCTA@@@Z" PURGE="-1" COMMENT="" />
    <EXPORT ORDINAL="10385" NAME="?OnNcCreate@CSplitterWnd@@IEAAHPEAUtagCREATESTRUCTA@@@Z" PURGE="-1" COMMENT="" />
    <EXPORT ORDINAL="10384" NAME="?OnNcCreate@CReBar@@IEAAHPEAUtagCREATESTRUCTA@@@Z" PURGE="-1" COMMENT="" />
    <EXPORT ORDINAL="10383" NAME="?OnNcCreate@CPropertySheet@@IEAAHPEAUtagCREATESTRUCTA@@@Z" PURGE="-1" COMMENT="" />
    <EXPORT ORDINAL="10382" NAME="?OnNcCreate@CPaneFrameWnd@@IEAAHPEAUtagCREATESTRUCTA@@@Z" PURGE="-1" COMMENT="" />
    <EXPORT ORDINAL="10381" NAME="?OnNcCreate@COleControl@@IEAAHPEAUtagCREATESTRUCTA@@@Z" PURGE="-1" COMMENT="" />
    <EXPORT ORDINAL="10380" NAME="?OnNcCreate@CMiniFrameWnd@@QEAAHPEAUtagCREATESTRUCTA@@@Z" PURGE="-1" COMMENT="" />
    <EXPORT ORDINAL="10379" NAME="?OnNcCreate@CMFCReBar@@IEAAHPEAUtagCREATESTRUCTA@@@Z" PURGE="-1" COMMENT="" />
    <EXPORT ORDINAL="10378" NAME="?OnNcCreate@CMDIChildWnd@@IEAAHPEAUtagCREATESTRUCTA@@@Z" PURGE="-1" COMMENT="" />
    <EXPORT ORDINAL="10377" NAME="?OnNcCalcSize@CVSListBoxEditCtrl@@IEAAXHPEAUtagNCCALCSIZE_PARAMS@@@Z" PURGE="-1" COMMENT="" />
    <EXPORT ORDINAL="10376" NAME="?OnNcCalcSize@CToolBar@@IEAAXHPEAUtagNCCALCSIZE_PARAMS@@@Z" PURGE="-1" COMMENT="" />
    <EXPORT ORDINAL="10375" NAME="?OnNcCalcSize@CStatusBar@@IEAAXHPEAUtagNCCALCSIZE_PARAMS@@@Z" PURGE="-1" COMMENT="" />
    <EXPORT ORDINAL="10374" NAME="?OnNcCalcSize@CReBar@@IEAAXHPEAUtagNCCALCSIZE_PARAMS@@@Z" PURGE="-1" COMMENT="" />
    <EXPORT ORDINAL="10373" NAME="?OnNcCalcSize@CPaneFrameWnd@@IEAAXHPEAUtagNCCALCSIZE_PARAMS@@@Z" PURGE="-1" COMMENT="" />
    <EXPORT ORDINAL="10372" NAME="?OnNcCalcSize@COleControl@@IEAAXHPEAUtagNCCALCSIZE_PARAMS@@@Z" PURGE="-1" COMMENT="" />
    <EXPORT ORDINAL="10371" NAME="?OnNcCalcSize@CMFCToolBar@@IEAAXHPEAUtagNCCALCSIZE_PARAMS@@@Z" PURGE="-1" COMMENT="" />
    <EXPORT ORDINAL="10370" NAME="?OnNcCalcSize@CMFCReBar@@IEAAXHPEAUtagNCCALCSIZE_PARAMS@@@Z" PURGE="-1" COMMENT="" />
    <EXPORT ORDINAL="10369" NAME="?OnNcCalcSize@CMFCPropertyGridCtrl@@IEAAXHPEAUtagNCCALCSIZE_PARAMS@@@Z" PURGE="-1" COMMENT="" />
    <EXPORT ORDINAL="10368" NAME="?OnNcCalcSize@CMFCPopupMenuBar@@IEAAXHPEAUtagNCCALCSIZE_PARAMS@@@Z" PURGE="-1" COMMENT="" />
    <EXPORT ORDINAL="10367" NAME="?OnNcCalcSize@CMFCOutlookBarToolBar@@QEAAXHPEAUtagNCCALCSIZE_PARAMS@@@Z" PURGE="-1" COMMENT="" />
    <EXPORT ORDINAL="10366" NAME="?OnNcCalcSize@CMFCOutlookBarPane@@IEAAXHPEAUtagNCCALCSIZE_PARAMS@@@Z" PURGE="-1" COMMENT="" />
    <EXPORT ORDINAL="10365" NAME="?OnNcCalcSize@CMFCEditBrowseCtrl@@IEAAXHPEAUtagNCCALCSIZE_PARAMS@@@Z" PURGE="-1" COMMENT="" />
    <EXPORT ORDINAL="10364" NAME="?OnNcCalcSize@CMFCColorBar@@IEAAXHPEAUtagNCCALCSIZE_PARAMS@@@Z" PURGE="-1" COMMENT="" />
    <EXPORT ORDINAL="10363" NAME="?OnNcCalcSize@CMFCCaptionBar@@IEAAXHPEAUtagNCCALCSIZE_PARAMS@@@Z" PURGE="-1" COMMENT="" />
    <EXPORT ORDINAL="10362" NAME="?OnNcCalcSize@CMDIFrameWndEx@@IEAAXHPEAUtagNCCALCSIZE_PARAMS@@@Z" PURGE="-1" COMMENT="" />
    <EXPORT ORDINAL="10361" NAME="?OnNcCalcSize@CMDIChildWndEx@@IEAAXHPEAUtagNCCALCSIZE_PARAMS@@@Z" PURGE="-1" COMMENT="" />
    <EXPORT ORDINAL="10360" NAME="?OnNcCalcSize@CFrameWndEx@@QEAAXHPEAUtagNCCALCSIZE_PARAMS@@@Z" PURGE="-1" COMMENT="" />
    <EXPORT ORDINAL="10359" NAME="?OnNcCalcSize@CFrameImpl@@IEAAHHPEAUtagNCCALCSIZE_PARAMS@@@Z" PURGE="-1" COMMENT="" />
    <EXPORT ORDINAL="10357" NAME="?OnNcCalcSize@CDockablePane@@IEAAXHPEAUtagNCCALCSIZE_PARAMS@@@Z" PURGE="-1" COMMENT="" />
    <EXPORT ORDINAL="10358" NAME="?OnNcCalcSize@CDockBar@@IEAAXHPEAUtagNCCALCSIZE_PARAMS@@@Z" PURGE="-1" COMMENT="" />
    <EXPORT ORDINAL="10356" NAME="?OnNcActivate@CPaneFrameWnd@@IEAAHH@Z" PURGE="-1" COMMENT="" />
    <EXPORT ORDINAL="10355" NAME="?OnNcActivate@CMiniFrameWnd@@QEAAHH@Z" PURGE="-1" COMMENT="" />
    <EXPORT ORDINAL="10354" NAME="?OnNcActivate@CMFCVisualManagerWindows7@@UEAAHPEAVCWnd@@H@Z" PURGE="-1" COMMENT="" />
    <EXPORT ORDINAL="10353" NAME="?OnNcActivate@CMFCVisualManagerOffice2007@@UEAAHPEAVCWnd@@H@Z" PURGE="-1" COMMENT="" />
    <EXPORT ORDINAL="10352" NAME="?OnNcActivate@CMFCVisualManager@@UEAAHPEAVCWnd@@H@Z" PURGE="-1" COMMENT="" />
    <EXPORT ORDINAL="10351" NAME="?OnNcActivate@CMFCPropertyPage@@IEAAHH@Z" PURGE="-1" COMMENT="" />
    <EXPORT ORDINAL="10350" NAME="?OnNcActivate@CMDIFrameWndEx@@IEAAHH@Z" PURGE="-1" COMMENT="" />
    <EXPORT ORDINAL="10349" NAME="?OnNcActivate@CMDIChildWndEx@@IEAAHH@Z" PURGE="-1" COMMENT="" />
    <EXPORT ORDINAL="10348" NAME="?OnNcActivate@CMDIChildWnd@@IEAAHH@Z" PURGE="-1" COMMENT="" />
    <EXPORT ORDINAL="10347" NAME="?OnNcActivate@CFrameWndEx@@QEAAHH@Z" PURGE="-1" COMMENT="" />
    <EXPORT ORDINAL="10346" NAME="?OnNcActivate@CFrameWnd@@IEAAHH@Z" PURGE="-1" COMMENT="" />
    <EXPORT ORDINAL="10345" NAME="?OnNcActivate@CFrameImpl@@IEAAHH@Z" PURGE="-1" COMMENT="" />
    <EXPORT ORDINAL="10344" NAME="?OnNcActivate@CDialogImpl@@IEAAXAEAH@Z" PURGE="-1" COMMENT="" />
    <EXPORT ORDINAL="10343" NAME="?OnNcActivate@CDialogEx@@IEAAHH@Z" PURGE="-1" COMMENT="" />
    <EXPORT ORDINAL="10342" NAME="?OnNavigateError@CHtmlView@@UEAAXPEBD0KPEAH@Z" PURGE="-1" COMMENT="" />
    <EXPORT ORDINAL="10339" NAME="?OnNavigateComplete@CMultiPageDHtmlDialog@@MEAAXPEAUIDispatch@@PEBD@Z" PURGE="-1" COMMENT="" />
    <EXPORT ORDINAL="10338" NAME="?OnNavigateComplete@CDHtmlDialog@@UEAAXPEAUIDispatch@@PEBD@Z" PURGE="-1" COMMENT="" />
    <EXPORT ORDINAL="10341" NAME="?OnNavigateComplete2@CHtmlView@@UEAAXPEBD@Z" PURGE="-1" COMMENT="" />
    <EXPORT ORDINAL="10340" NAME="?OnNavigateComplete2@CHtmlEditView@@UEAAXPEBD@Z" PURGE="-1" COMMENT="" />
    <EXPORT ORDINAL="10491" NAME="?OnNTCtlColor@CWnd@@IEAA_J_K_J@Z" PURGE="-1" COMMENT="" />
    <EXPORT ORDINAL="10337" NAME="?OnMoving@CPaneFrameWnd@@IEAAXIPEAUtagRECT@@@Z" PURGE="-1" COMMENT="" />
    <EXPORT ORDINAL="10336" NAME="?OnMoveUp@COutlookOptionsDlg@@IEAAXXZ" PURGE="-1" COMMENT="" />
    <EXPORT ORDINAL="10335" NAME="?OnMoveTabComplete@CMDIClientAreaWnd@@IEAA_J_K_J@Z" PURGE="-1" COMMENT="" />
    <EXPORT ORDINAL="10334" NAME="?OnMovePane@CPaneFrameWnd@@UEAAXPEAVCPane@@VCPoint@@@Z" PURGE="-1" COMMENT="" />
    <EXPORT ORDINAL="10333" NAME="?OnMoveMiniFrame@COleIPFrameWndEx@@UEAAHPEAVCWnd@@@Z" PURGE="-1" COMMENT="" />
    <EXPORT ORDINAL="10332" NAME="?OnMoveMiniFrame@COleDocIPFrameWndEx@@UEAAHPEAVCWnd@@@Z" PURGE="-1" COMMENT="" />
    <EXPORT ORDINAL="10331" NAME="?OnMoveMiniFrame@COleCntrFrameWndEx@@UEAAHPEAVCWnd@@@Z" PURGE="-1" COMMENT="" />
    <EXPORT ORDINAL="10330" NAME="?OnMoveMiniFrame@CMDIFrameWndEx@@UEAAHPEAVCWnd@@@Z" PURGE="-1" COMMENT="" />
    <EXPORT ORDINAL="10329" NAME="?OnMoveMiniFrame@CMDIChildWndEx@@UEAAHPEAVCWnd@@@Z" PURGE="-1" COMMENT="" />
    <EXPORT ORDINAL="10328" NAME="?OnMoveMiniFrame@CFrameWndEx@@UEAAHPEAVCWnd@@@Z" PURGE="-1" COMMENT="" />
    <EXPORT ORDINAL="10327" NAME="?OnMoveMiniFrame@CDockingManager@@UEAAHPEAVCWnd@@@Z" PURGE="-1" COMMENT="" />
    <EXPORT ORDINAL="10326" NAME="?OnMoveInternalPaneDivider@CPaneContainer@@UEAAHHAEAPEAX@Z" PURGE="-1" COMMENT="" />
    <EXPORT ORDINAL="10325" NAME="?OnMoveDown@COutlookOptionsDlg@@IEAAXXZ" PURGE="-1" COMMENT="" />
    <EXPORT ORDINAL="10324" NAME="?OnMove@CRecordView@@UEAAHI@Z" PURGE="-1" COMMENT="" />
    <EXPORT ORDINAL="10323" NAME="?OnMove@COleDBRecordView@@UEAAHI@Z" PURGE="-1" COMMENT="" />
    <EXPORT ORDINAL="10322" NAME="?OnMove@COleControl@@IEAAXHH@Z" PURGE="-1" COMMENT="" />
    <EXPORT ORDINAL="10321" NAME="?OnMove@CMFCToolBarSpinEditBoxButton@@MEAAXXZ" PURGE="-1" COMMENT="" />
    <EXPORT ORDINAL="10320" NAME="?OnMove@CMFCToolBarEditBoxButton@@UEAAXXZ" PURGE="-1" COMMENT="" />
    <EXPORT ORDINAL="10319" NAME="?OnMove@CMFCToolBarDateTimeCtrl@@UEAAXXZ" PURGE="-1" COMMENT="" />
    <EXPORT ORDINAL="10318" NAME="?OnMove@CMFCToolBarComboBoxButton@@UEAAXXZ" PURGE="-1" COMMENT="" />
    <EXPORT ORDINAL="10317" NAME="?OnMouseWheel@CSplitterWnd@@IEAAHIFVCPoint@@@Z" PURGE="-1" COMMENT="" />
    <EXPORT ORDINAL="10316" NAME="?OnMouseWheel@CScrollView@@QEAAHIFVCPoint@@@Z" PURGE="-1" COMMENT="" />
    <EXPORT ORDINAL="10315" NAME="?OnMouseWheel@CMFCTasksPane@@IEAAHIFVCPoint@@@Z" PURGE="-1" COMMENT="" />
    <EXPORT ORDINAL="10314" NAME="?OnMouseWheel@CMFCRibbonPanelMenu@@IEAAHIFVCPoint@@@Z" PURGE="-1" COMMENT="" />
    <EXPORT ORDINAL="10313" NAME="?OnMouseWheel@CMFCRibbonBar@@IEAAHIFVCPoint@@@Z" PURGE="-1" COMMENT="" />
    <EXPORT ORDINAL="10312" NAME="?OnMouseWheel@CMFCPropertyGridCtrl@@IEAAHIFVCPoint@@@Z" PURGE="-1" COMMENT="" />
    <EXPORT ORDINAL="10311" NAME="?OnMouseWheel@CMFCPopupMenu@@IEAAHIFVCPoint@@@Z" PURGE="-1" COMMENT="" />
    <EXPORT ORDINAL="10310" NAME="?OnMouseMove@CSplitterWnd@@IEAAXIVCPoint@@@Z" PURGE="-1" COMMENT="" />
    <EXPORT ORDINAL="10309" NAME="?OnMouseMove@CSmartDockingManager@@QEAAXVCPoint@@@Z" PURGE="-1" COMMENT="" />
    <EXPORT ORDINAL="10308" NAME="?OnMouseMove@CScreenWnd@@IEAAXIVCPoint@@@Z" PURGE="-1" COMMENT="" />
    <EXPORT ORDINAL="10307" NAME="?OnMouseMove@CRibbonCategoryScroll@@EEAAXVCPoint@@@Z" PURGE="-1" COMMENT="" />
    <EXPORT ORDINAL="10306" NAME="?OnMouseMove@CPaneFrameWnd@@IEAAXIVCPoint@@@Z" PURGE="-1" COMMENT="" />
    <EXPORT ORDINAL="10305" NAME="?OnMouseMove@CPaneDivider@@IEAAXIVCPoint@@@Z" PURGE="-1" COMMENT="" />
    <EXPORT ORDINAL="10304" NAME="?OnMouseMove@CPane@@IEAAXIVCPoint@@@Z" PURGE="-1" COMMENT="" />
    <EXPORT ORDINAL="10303" NAME="?OnMouseMove@COleControl@@IEAAXIVCPoint@@@Z" PURGE="-1" COMMENT="" />
    <EXPORT ORDINAL="10302" NAME="?OnMouseMove@CMFCToolBarEditCtrl@@IEAAXIVCPoint@@@Z" PURGE="-1" COMMENT="" />
    <EXPORT ORDINAL="10301" NAME="?OnMouseMove@CMFCToolBarComboBoxEdit@@IEAAXIVCPoint@@@Z" PURGE="-1" COMMENT="" />
    <EXPORT ORDINAL="10300" NAME="?OnMouseMove@CMFCToolBar@@IEAAXIVCPoint@@@Z" PURGE="-1" COMMENT="" />
    <EXPORT ORDINAL="10299" NAME="?OnMouseMove@CMFCTasksPane@@IEAAXIVCPoint@@@Z" PURGE="-1" COMMENT="" />
    <EXPORT ORDINAL="10298" NAME="?OnMouseMove@CMFCTabCtrl@@IEAAXIVCPoint@@@Z" PURGE="-1" COMMENT="" />
    <EXPORT ORDINAL="10297" NAME="?OnMouseMove@CMFCSpinButtonCtrl@@IEAAXIVCPoint@@@Z" PURGE="-1" COMMENT="" />
    <EXPORT ORDINAL="10296" NAME="?OnMouseMove@CMFCRibbonSlider@@MEAAXVCPoint@@@Z" PURGE="-1" COMMENT="" />
    <EXPORT ORDINAL="10295" NAME="?OnMouseMove@CMFCRibbonPanelMenuBar@@IEAAXIVCPoint@@@Z" PURGE="-1" COMMENT="" />
    <EXPORT ORDINAL="10294" NAME="?OnMouseMove@CMFCRibbonLinkCtrl@@UEAAXVCPoint@@@Z" PURGE="-1" COMMENT="" />
    <EXPORT ORDINAL="10293" NAME="?OnMouseMove@CMFCRibbonCategory@@UEAAXVCPoint@@@Z" PURGE="-1" COMMENT="" />
    <EXPORT ORDINAL="10292" NAME="?OnMouseMove@CMFCRibbonButton@@MEAAXVCPoint@@@Z" PURGE="-1" COMMENT="" />
    <EXPORT ORDINAL="10291" NAME="?OnMouseMove@CMFCRibbonBar@@IEAAXIVCPoint@@@Z" PURGE="-1" COMMENT="" />
    <EXPORT ORDINAL="10290" NAME="?OnMouseMove@CMFCReBar@@IEAAXIVCPoint@@@Z" PURGE="-1" COMMENT="" />
    <EXPORT ORDINAL="10289" NAME="?OnMouseMove@CMFCProperySheetListBox@@AEAAXIVCPoint@@@Z" PURGE="-1" COMMENT="" />
    <EXPORT ORDINAL="10288" NAME="?OnMouseMove@CMFCPropertyGridCtrl@@IEAAXIVCPoint@@@Z" PURGE="-1" COMMENT="" />
    <EXPORT ORDINAL="10287" NAME="?OnMouseMove@CMFCPopupMenuBar@@IEAAXIVCPoint@@@Z" PURGE="-1" COMMENT="" />
    <EXPORT ORDINAL="10286" NAME="?OnMouseMove@CMFCPopupMenu@@IEAAXIVCPoint@@@Z" PURGE="-1" COMMENT="" />
    <EXPORT ORDINAL="10285" NAME="?OnMouseMove@CMFCOutlookBarTabCtrl@@IEAAXIVCPoint@@@Z" PURGE="-1" COMMENT="" />
    <EXPORT ORDINAL="10284" NAME="?OnMouseMove@CMFCImagePaintArea@@IEAAXIVCPoint@@@Z" PURGE="-1" COMMENT="" />
    <EXPORT ORDINAL="10283" NAME="?OnMouseMove@CMFCHeaderCtrl@@IEAAXIVCPoint@@@Z" PURGE="-1" COMMENT="" />
    <EXPORT ORDINAL="10282" NAME="?OnMouseMove@CMFCEditBrowseCtrl@@IEAAXIVCPoint@@@Z" PURGE="-1" COMMENT="" />
    <EXPORT ORDINAL="10281" NAME="?OnMouseMove@CMFCDropDownToolBar@@QEAAXIVCPoint@@@Z" PURGE="-1" COMMENT="" />
    <EXPORT ORDINAL="10280" NAME="?OnMouseMove@CMFCDesktopAlertWnd@@IEAAXIVCPoint@@@Z" PURGE="-1" COMMENT="" />
    <EXPORT ORDINAL="10279" NAME="?OnMouseMove@CMFCColorPickerCtrl@@IEAAXIVCPoint@@@Z" PURGE="-1" COMMENT="" />
    <EXPORT ORDINAL="10278" NAME="?OnMouseMove@CMFCColorDialog@@IEAAXIVCPoint@@@Z" PURGE="-1" COMMENT="" />
    <EXPORT ORDINAL="10277" NAME="?OnMouseMove@CMFCColorButton@@IEAAXIVCPoint@@@Z" PURGE="-1" COMMENT="" />
    <EXPORT ORDINAL="10276" NAME="?OnMouseMove@CMFCColorBar@@IEAAXIVCPoint@@@Z" PURGE="-1" COMMENT="" />
    <EXPORT ORDINAL="10275" NAME="?OnMouseMove@CMFCCaptionBar@@IEAAXIVCPoint@@@Z" PURGE="-1" COMMENT="" />
    <EXPORT ORDINAL="10274" NAME="?OnMouseMove@CMFCButton@@IEAAXIVCPoint@@@Z" PURGE="-1" COMMENT="" />
    <EXPORT ORDINAL="10273" NAME="?OnMouseMove@CMFCBaseTabCtrl@@IEAAXIVCPoint@@@Z" PURGE="-1" COMMENT="" />
    <EXPORT ORDINAL="10272" NAME="?OnMouseMove@CMFCAutoHideBar@@IEAAXIVCPoint@@@Z" PURGE="-1" COMMENT="" />
    <EXPORT ORDINAL="10271" NAME="?OnMouseMove@CMDIFrameWndEx@@IEAAXIVCPoint@@@Z" PURGE="-1" COMMENT="" />
    <EXPORT ORDINAL="10270" NAME="?OnMouseMove@CMDIChildWndEx@@IEAAXIVCPoint@@@Z" PURGE="-1" COMMENT="" />
    <EXPORT ORDINAL="10269" NAME="?OnMouseMove@CFrameWndEx@@QEAAXIVCPoint@@@Z" PURGE="-1" COMMENT="" />
    <EXPORT ORDINAL="10268" NAME="?OnMouseMove@CFrameImpl@@IEAAXVCPoint@@@Z" PURGE="-1" COMMENT="" />
    <EXPORT ORDINAL="10267" NAME="?OnMouseMove@CDockablePane@@IEAAXIVCPoint@@@Z" PURGE="-1" COMMENT="" />
    <EXPORT ORDINAL="10266" NAME="?OnMouseLeave@CMFCToolBarEditCtrl@@IEAAXXZ" PURGE="-1" COMMENT="" />
    <EXPORT ORDINAL="10265" NAME="?OnMouseLeave@CMFCToolBarComboBoxEdit@@IEAAXXZ" PURGE="-1" COMMENT="" />
    <EXPORT ORDINAL="10264" NAME="?OnMouseLeave@CMFCToolBar@@IEAAXXZ" PURGE="-1" COMMENT="" />
    <EXPORT ORDINAL="10263" NAME="?OnMouseLeave@CMFCSpinButtonCtrl@@IEAAXXZ" PURGE="-1" COMMENT="" />
    <EXPORT ORDINAL="10262" NAME="?OnMouseLeave@CMFCRibbonRichEditCtrl@@IEAAXXZ" PURGE="-1" COMMENT="" />
    <EXPORT ORDINAL="10261" NAME="?OnMouseLeave@CMFCRibbonPanelMenuBar@@IEAAXXZ" PURGE="-1" COMMENT="" />
    <EXPORT ORDINAL="10260" NAME="?OnMouseLeave@CMFCRibbonBar@@IEAAXXZ" PURGE="-1" COMMENT="" />
    <EXPORT ORDINAL="10259" NAME="?OnMouseLeave@CMFCProperySheetListBox@@AEAAXXZ" PURGE="-1" COMMENT="" />
    <EXPORT ORDINAL="10258" NAME="?OnMouseLeave@CMFCHeaderCtrl@@IEAAXXZ" PURGE="-1" COMMENT="" />
    <EXPORT ORDINAL="10257" NAME="?OnMouseLeave@CMFCColorBar@@IEAAXXZ" PURGE="-1" COMMENT="" />
    <EXPORT ORDINAL="10256" NAME="?OnMouseLeave@CMFCCaptionBar@@IEAAXXZ" PURGE="-1" COMMENT="" />
    <EXPORT ORDINAL="10255" NAME="?OnMouseLeave@CMFCAutoHideBar@@IEAAXXZ" PURGE="-1" COMMENT="" />
    <EXPORT ORDINAL="10254" NAME="?OnMouseActivate@CView@@IEAAHPEAVCWnd@@II@Z" PURGE="-1" COMMENT="" />
    <EXPORT ORDINAL="10253" NAME="?OnMouseActivate@CTabView@@IEAAHPEAVCWnd@@II@Z" PURGE="-1" COMMENT="" />
    <EXPORT ORDINAL="10252" NAME="?OnMouseActivate@CPaneFrameWnd@@IEAAHPEAVCWnd@@II@Z" PURGE="-1" COMMENT="" />
    <EXPORT ORDINAL="10251" NAME="?OnMouseActivate@COleControl@@IEAAHPEAVCWnd@@II@Z" PURGE="-1" COMMENT="" />
    <EXPORT ORDINAL="10250" NAME="?OnMouseActivate@CMiniDockFrameWnd@@QEAAHPEAVCWnd@@II@Z" PURGE="-1" COMMENT="" />
    <EXPORT ORDINAL="10249" NAME="?OnMouseActivate@CMFCRibbonKeyTip@@IEAAHPEAVCWnd@@II@Z" PURGE="-1" COMMENT="" />
    <EXPORT ORDINAL="10248" NAME="?OnMouseActivate@CMFCPopupMenu@@IEAAHPEAVCWnd@@II@Z" PURGE="-1" COMMENT="" />
    <EXPORT ORDINAL="10247" NAME="?OnMouseActivate@CMFCDropDownFrame@@IEAAHPEAVCWnd@@II@Z" PURGE="-1" COMMENT="" />
    <EXPORT ORDINAL="10246" NAME="?OnMouseActivate@CMDITabProxyWnd@@IEAAHPEAVCWnd@@II@Z" PURGE="-1" COMMENT="" />
    <EXPORT ORDINAL="10245" NAME="?OnMouseActivate@CMDIChildWnd@@IEAAHPEAVCWnd@@II@Z" PURGE="-1" COMMENT="" />
    <EXPORT ORDINAL="10244" NAME="?OnMouseActivate@CControlBar@@QEAAHPEAVCWnd@@II@Z" PURGE="-1" COMMENT="" />
    <EXPORT ORDINAL="10243" NAME="?OnMnemonic@XOleControl@COleControl@@UEAAJPEAUtagMSG@@@Z" PURGE="-1" COMMENT="" />
    <EXPORT ORDINAL="10242" NAME="?OnMnemonic@COleControl@@UEAAXPEAUtagMSG@@@Z" PURGE="-1" COMMENT="" />
    <EXPORT ORDINAL="10241" NAME="?OnMinimize@CMFCWindowsManagerDialog@@IEAAXXZ" PURGE="-1" COMMENT="" />
    <EXPORT ORDINAL="10240" NAME="?OnMessagePending@CSocket@@MEAAHXZ" PURGE="-1" COMMENT="" />
    <EXPORT ORDINAL="10239" NAME="?OnMessagePending@COleMessageFilter@@UEAAHPEBUtagMSG@@@Z" PURGE="-1" COMMENT="" />
    <EXPORT ORDINAL="10238" NAME="?OnMenuSelect@COleFrameHook@@UEAAHIIPEAUHMENU__@@@Z" PURGE="-1" COMMENT="" />
    <EXPORT ORDINAL="10237" NAME="?OnMenuSelect@COleControl@@IEAAXIIPEAUHMENU__@@@Z" PURGE="-1" COMMENT="" />
    <EXPORT ORDINAL="10236" NAME="?OnMenuSelect@CFrameWnd@@IEAAXIIPEAUHMENU__@@@Z" PURGE="-1" COMMENT="" />
    <EXPORT ORDINAL="10235" NAME="?OnMenuKey@CMFCRibbonRecentFilesList@@MEAAHI@Z" PURGE="-1" COMMENT="" />
    <EXPORT ORDINAL="10234" NAME="?OnMenuChar@COleIPFrameWndEx@@IEAA_JIIPEAVCMenu@@@Z" PURGE="-1" COMMENT="" />
    <EXPORT ORDINAL="10233" NAME="?OnMenuChar@COleDocIPFrameWndEx@@IEAA_JIIPEAVCMenu@@@Z" PURGE="-1" COMMENT="" />
    <EXPORT ORDINAL="10232" NAME="?OnMenuChar@CMDIFrameWndEx@@IEAA_JIIPEAVCMenu@@@Z" PURGE="-1" COMMENT="" />
    <EXPORT ORDINAL="10231" NAME="?OnMenuChar@CMDIFrameWnd@@IEAA_JIIPEAVCMenu@@@Z" PURGE="-1" COMMENT="" />
    <EXPORT ORDINAL="10230" NAME="?OnMenuChar@CFrameWndEx@@QEAA_JIIPEAVCMenu@@@Z" PURGE="-1" COMMENT="" />
    <EXPORT ORDINAL="10229" NAME="?OnMenuChar@CFrameWnd@@IEAA_JIIPEAVCMenu@@@Z" PURGE="-1" COMMENT="" />
    <EXPORT ORDINAL="10228" NAME="?OnMenuChar@CFrameImpl@@IEAAHI@Z" PURGE="-1" COMMENT="" />
    <EXPORT ORDINAL="10227" NAME="?OnMenuBar@CHtmlView@@UEAAXH@Z" PURGE="-1" COMMENT="" />
    <EXPORT ORDINAL="10226" NAME="?OnMeasureItem@CWnd@@IEAAXHPEAUtagMEASUREITEMSTRUCT@@@Z" PURGE="-1" COMMENT="" />
    <EXPORT ORDINAL="10216" NAME="?OnMapPropertyToPage@COleControl@@UEAAHJPEAU_GUID@@PEAH@Z" PURGE="-1" COMMENT="" />
    <EXPORT ORDINAL="10225" NAME="?OnMDIWindowCmd@CMDIFrameWnd@@IEAAHI@Z" PURGE="-1" COMMENT="" />
    <EXPORT ORDINAL="10224" NAME="?OnMDIRefreshMenu@CMDIClientAreaWnd@@IEAA_J_K_J@Z" PURGE="-1" COMMENT="" />
    <EXPORT ORDINAL="10223" NAME="?OnMDINext@CMDIClientAreaWnd@@IEAA_J_K_J@Z" PURGE="-1" COMMENT="" />
    <EXPORT ORDINAL="10222" NAME="?OnMDIDestroy@CMDIClientAreaWnd@@IEAA_J_K_J@Z" PURGE="-1" COMMENT="" />
    <EXPORT ORDINAL="10221" NAME="?OnMDIActivate@CMDIChildWndEx@@IEAAXHPEAVCWnd@@0@Z" PURGE="-1" COMMENT="" />
    <EXPORT ORDINAL="10220" NAME="?OnMDIActivate@CMDIChildWnd@@IEAAXHPEAVCWnd@@0@Z" PURGE="-1" COMMENT="" />
    <EXPORT ORDINAL="10219" NAME="?OnMButtonUp@COleControl@@IEAAXIVCPoint@@@Z" PURGE="-1" COMMENT="" />
    <EXPORT ORDINAL="10218" NAME="?OnMButtonDown@COleControl@@IEAAXIVCPoint@@@Z" PURGE="-1" COMMENT="" />
    <EXPORT ORDINAL="10217" NAME="?OnMButtonDblClk@COleControl@@IEAAXIVCPoint@@@Z" PURGE="-1" COMMENT="" />
    <EXPORT ORDINAL="10215" NAME="?OnLuminance@CMFCCustomColorsPropertyPage@@IEAAXXZ" PURGE="-1" COMMENT="" />
    <EXPORT ORDINAL="10214" NAME="?OnLowResource@CAsyncMonikerFile@@MEAAXXZ" PURGE="-1" COMMENT="" />
    <EXPORT ORDINAL="10213" NAME="?OnLoadFrame@CFrameImpl@@IEAAXXZ" PURGE="-1" COMMENT="" />
    <EXPORT ORDINAL="10212" NAME="?OnLoadDocumentFromStream@COleDocument@@MEAAJPEAUIStream@@K@Z" PURGE="-1" COMMENT="" />
    <EXPORT ORDINAL="10211" NAME="?OnLoadDocumentFromStream@CDocument@@UEAAJPEAUIStream@@K@Z" PURGE="-1" COMMENT="" />
    <EXPORT ORDINAL="10074" NAME="?OnLargeIcons@CMFCToolBarsOptionsPropertyPage@@IEAAXXZ" PURGE="-1" COMMENT="" />
    <EXPORT ORDINAL="10210" NAME="?OnLButtonUp@CSplitterWnd@@IEAAXIVCPoint@@@Z" PURGE="-1" COMMENT="" />
    <EXPORT ORDINAL="10209" NAME="?OnLButtonUp@CPaneFrameWnd@@IEAAXIVCPoint@@@Z" PURGE="-1" COMMENT="" />
    <EXPORT ORDINAL="10208" NAME="?OnLButtonUp@CPaneDivider@@IEAAXIVCPoint@@@Z" PURGE="-1" COMMENT="" />
    <EXPORT ORDINAL="10207" NAME="?OnLButtonUp@CPane@@IEAAXIVCPoint@@@Z" PURGE="-1" COMMENT="" />
    <EXPORT ORDINAL="10206" NAME="?OnLButtonUp@COleControl@@IEAAXIVCPoint@@@Z" PURGE="-1" COMMENT="" />
    <EXPORT ORDINAL="10205" NAME="?OnLButtonUp@CMFCToolBar@@IEAAXIVCPoint@@@Z" PURGE="-1" COMMENT="" />
    <EXPORT ORDINAL="10204" NAME="?OnLButtonUp@CMFCTasksPane@@IEAAXIVCPoint@@@Z" PURGE="-1" COMMENT="" />
    <EXPORT ORDINAL="10203" NAME="?OnLButtonUp@CMFCTabCtrl@@IEAAXIVCPoint@@@Z" PURGE="-1" COMMENT="" />
    <EXPORT ORDINAL="10202" NAME="?OnLButtonUp@CMFCSpinButtonCtrl@@IEAAXIVCPoint@@@Z" PURGE="-1" COMMENT="" />
    <EXPORT ORDINAL="10201" NAME="?OnLButtonUp@CMFCRibbonSlider@@MEAAXVCPoint@@@Z" PURGE="-1" COMMENT="" />
    <EXPORT ORDINAL="10200" NAME="?OnLButtonUp@CMFCRibbonPanelMenuBar@@IEAAXIVCPoint@@@Z" PURGE="-1" COMMENT="" />
    <EXPORT ORDINAL="10199" NAME="?OnLButtonUp@CMFCRibbonEdit@@UEAAXVCPoint@@@Z" PURGE="-1" COMMENT="" />
    <EXPORT ORDINAL="10198" NAME="?OnLButtonUp@CMFCRibbonContextCaption@@MEAAXVCPoint@@@Z" PURGE="-1" COMMENT="" />
    <EXPORT ORDINAL="10197" NAME="?OnLButtonUp@CMFCRibbonComboBox@@MEAAXVCPoint@@@Z" PURGE="-1" COMMENT="" />
    <EXPORT ORDINAL="10196" NAME="?OnLButtonUp@CMFCRibbonCategory@@UEAAXVCPoint@@@Z" PURGE="-1" COMMENT="" />
    <EXPORT ORDINAL="10195" NAME="?OnLButtonUp@CMFCRibbonCaptionButton@@MEAAXVCPoint@@@Z" PURGE="-1" COMMENT="" />
    <EXPORT ORDINAL="10194" NAME="?OnLButtonUp@CMFCRibbonButton@@MEAAXVCPoint@@@Z" PURGE="-1" COMMENT="" />
    <EXPORT ORDINAL="10193" NAME="?OnLButtonUp@CMFCRibbonBar@@IEAAXIVCPoint@@@Z" PURGE="-1" COMMENT="" />
    <EXPORT ORDINAL="10192" NAME="?OnLButtonUp@CMFCReBar@@IEAAXIVCPoint@@@Z" PURGE="-1" COMMENT="" />
    <EXPORT ORDINAL="10191" NAME="?OnLButtonUp@CMFCPropertyGridCtrl@@IEAAXIVCPoint@@@Z" PURGE="-1" COMMENT="" />
    <EXPORT ORDINAL="10190" NAME="?OnLButtonUp@CMFCPopupMenuBar@@IEAAXIVCPoint@@@Z" PURGE="-1" COMMENT="" />
    <EXPORT ORDINAL="10189" NAME="?OnLButtonUp@CMFCPopupMenu@@IEAAXIVCPoint@@@Z" PURGE="-1" COMMENT="" />
    <EXPORT ORDINAL="10188" NAME="?OnLButtonUp@CMFCOutlookBarTabCtrl@@IEAAXIVCPoint@@@Z" PURGE="-1" COMMENT="" />
    <EXPORT ORDINAL="10187" NAME="?OnLButtonUp@CMFCOutlookBarPane@@IEAAXIVCPoint@@@Z" PURGE="-1" COMMENT="" />
    <EXPORT ORDINAL="10186" NAME="?OnLButtonUp@CMFCMenuButton@@IEAAXIVCPoint@@@Z" PURGE="-1" COMMENT="" />
    <EXPORT ORDINAL="10185" NAME="?OnLButtonUp@CMFCMaskedEdit@@IEAAXIVCPoint@@@Z" PURGE="-1" COMMENT="" />
    <EXPORT ORDINAL="10184" NAME="?OnLButtonUp@CMFCImagePaintArea@@IEAAXIVCPoint@@@Z" PURGE="-1" COMMENT="" />
    <EXPORT ORDINAL="10183" NAME="?OnLButtonUp@CMFCHeaderCtrl@@IEAAXIVCPoint@@@Z" PURGE="-1" COMMENT="" />
    <EXPORT ORDINAL="10182" NAME="?OnLButtonUp@CMFCEditBrowseCtrl@@IEAAXIVCPoint@@@Z" PURGE="-1" COMMENT="" />
    <EXPORT ORDINAL="10181" NAME="?OnLButtonUp@CMFCDropDownToolBar@@QEAAXIVCPoint@@@Z" PURGE="-1" COMMENT="" />
    <EXPORT ORDINAL="10180" NAME="?OnLButtonUp@CMFCDesktopAlertWnd@@IEAAXIVCPoint@@@Z" PURGE="-1" COMMENT="" />
    <EXPORT ORDINAL="10179" NAME="?OnLButtonUp@CMFCColorPickerCtrl@@IEAAXIVCPoint@@@Z" PURGE="-1" COMMENT="" />
    <EXPORT ORDINAL="10178" NAME="?OnLButtonUp@CMFCColorBar@@IEAAXIVCPoint@@@Z" PURGE="-1" COMMENT="" />
    <EXPORT ORDINAL="10177" NAME="?OnLButtonUp@CMFCCaptionBar@@IEAAXIVCPoint@@@Z" PURGE="-1" COMMENT="" />
    <EXPORT ORDINAL="10176" NAME="?OnLButtonUp@CMFCButton@@IEAAXIVCPoint@@@Z" PURGE="-1" COMMENT="" />
    <EXPORT ORDINAL="10175" NAME="?OnLButtonUp@CMFCBaseTabCtrl@@IEAAXIVCPoint@@@Z" PURGE="-1" COMMENT="" />
    <EXPORT ORDINAL="10174" NAME="?OnLButtonUp@CMDIFrameWndEx@@IEAAXIVCPoint@@@Z" PURGE="-1" COMMENT="" />
    <EXPORT ORDINAL="10173" NAME="?OnLButtonUp@CMDIChildWndEx@@IEAAXIVCPoint@@@Z" PURGE="-1" COMMENT="" />
    <EXPORT ORDINAL="10172" NAME="?OnLButtonUp@CFrameWndEx@@QEAAXIVCPoint@@@Z" PURGE="-1" COMMENT="" />
    <EXPORT ORDINAL="10171" NAME="?OnLButtonUp@CFrameImpl@@IEAAXVCPoint@@@Z" PURGE="-1" COMMENT="" />
    <EXPORT ORDINAL="10170" NAME="?OnLButtonUp@CDockablePane@@IEAAXIVCPoint@@@Z" PURGE="-1" COMMENT="" />
    <EXPORT ORDINAL="10169" NAME="?OnLButtonDown@CSplitterWnd@@IEAAXIVCPoint@@@Z" PURGE="-1" COMMENT="" />
    <EXPORT ORDINAL="10168" NAME="?OnLButtonDown@CScreenWnd@@IEAAXIVCPoint@@@Z" PURGE="-1" COMMENT="" />
    <EXPORT ORDINAL="10167" NAME="?OnLButtonDown@CPreviewView@@IEAAXIVCPoint@@@Z" PURGE="-1" COMMENT="" />
    <EXPORT ORDINAL="10166" NAME="?OnLButtonDown@CPaneFrameWnd@@IEAAXIVCPoint@@@Z" PURGE="-1" COMMENT="" />
    <EXPORT ORDINAL="10165" NAME="?OnLButtonDown@CPaneDivider@@IEAAXIVCPoint@@@Z" PURGE="-1" COMMENT="" />
    <EXPORT ORDINAL="10164" NAME="?OnLButtonDown@CPaneDialog@@QEAAXIVCPoint@@@Z" PURGE="-1" COMMENT="" />
    <EXPORT ORDINAL="10163" NAME="?OnLButtonDown@CPane@@IEAAXIVCPoint@@@Z" PURGE="-1" COMMENT="" />
    <EXPORT ORDINAL="10162" NAME="?OnLButtonDown@COleResizeBar@@IEAAXIVCPoint@@@Z" PURGE="-1" COMMENT="" />
    <EXPORT ORDINAL="10161" NAME="?OnLButtonDown@COleControl@@IEAAXIVCPoint@@@Z" PURGE="-1" COMMENT="" />
    <EXPORT ORDINAL="10160" NAME="?OnLButtonDown@CMFCToolBarsListCheckBox@@IEAAXIVCPoint@@@Z" PURGE="-1" COMMENT="" />
    <EXPORT ORDINAL="10159" NAME="?OnLButtonDown@CMFCToolBarsCommandsListBox@@IEAAXIVCPoint@@@Z" PURGE="-1" COMMENT="" />
    <EXPORT ORDINAL="10158" NAME="?OnLButtonDown@CMFCToolBarButtonsListButton@@IEAAXIVCPoint@@@Z" PURGE="-1" COMMENT="" />
    <EXPORT ORDINAL="10157" NAME="?OnLButtonDown@CMFCToolBar@@IEAAXIVCPoint@@@Z" PURGE="-1" COMMENT="" />
    <EXPORT ORDINAL="10156" NAME="?OnLButtonDown@CMFCTasksPane@@IEAAXIVCPoint@@@Z" PURGE="-1" COMMENT="" />
    <EXPORT ORDINAL="10155" NAME="?OnLButtonDown@CMFCTabCtrl@@IEAAXIVCPoint@@@Z" PURGE="-1" COMMENT="" />
    <EXPORT ORDINAL="10154" NAME="?OnLButtonDown@CMFCSpinButtonCtrl@@IEAAXIVCPoint@@@Z" PURGE="-1" COMMENT="" />
    <EXPORT ORDINAL="10153" NAME="?OnLButtonDown@CMFCRibbonTab@@UEAAXVCPoint@@@Z" PURGE="-1" COMMENT="" />
    <EXPORT ORDINAL="10152" NAME="?OnLButtonDown@CMFCRibbonSlider@@MEAAXVCPoint@@@Z" PURGE="-1" COMMENT="" />
    <EXPORT ORDINAL="10151" NAME="?OnLButtonDown@CMFCRibbonPanelMenuBar@@IEAAXIVCPoint@@@Z" PURGE="-1" COMMENT="" />
    <EXPORT ORDINAL="10150" NAME="?OnLButtonDown@CMFCRibbonPanelMenu@@IEAAXIVCPoint@@@Z" PURGE="-1" COMMENT="" />
    <EXPORT ORDINAL="10149" NAME="?OnLButtonDown@CMFCRibbonGalleryIcon@@MEAAXVCPoint@@@Z" PURGE="-1" COMMENT="" />
    <EXPORT ORDINAL="10148" NAME="?OnLButtonDown@CMFCRibbonEdit@@UEAAXVCPoint@@@Z" PURGE="-1" COMMENT="" />
    <EXPORT ORDINAL="10147" NAME="?OnLButtonDown@CMFCRibbonDefaultPanelButton@@UEAAXVCPoint@@@Z" PURGE="-1" COMMENT="" />
    <EXPORT ORDINAL="10146" NAME="?OnLButtonDown@CMFCRibbonComboBox@@MEAAXVCPoint@@@Z" PURGE="-1" COMMENT="" />
    <EXPORT ORDINAL="10145" NAME="?OnLButtonDown@CMFCRibbonCategory@@UEAAPEAVCMFCRibbonBaseElement@@VCPoint@@@Z" PURGE="-1" COMMENT="" />
    <EXPORT ORDINAL="10144" NAME="?OnLButtonDown@CMFCRibbonButton@@MEAAXVCPoint@@@Z" PURGE="-1" COMMENT="" />
    <EXPORT ORDINAL="10143" NAME="?OnLButtonDown@CMFCRibbonBaseElement@@MEAAXVCPoint@@@Z" PURGE="-1" COMMENT="" />
    <EXPORT ORDINAL="10142" NAME="?OnLButtonDown@CMFCRibbonBar@@IEAAXIVCPoint@@@Z" PURGE="-1" COMMENT="" />
    <EXPORT ORDINAL="10141" NAME="?OnLButtonDown@CMFCRibbonApplicationButton@@MEAAXVCPoint@@@Z" PURGE="-1" COMMENT="" />
    <EXPORT ORDINAL="10140" NAME="?OnLButtonDown@CMFCReBar@@IEAAXIVCPoint@@@Z" PURGE="-1" COMMENT="" />
    <EXPORT ORDINAL="10139" NAME="?OnLButtonDown@CMFCPropertyGridCtrl@@IEAAXIVCPoint@@@Z" PURGE="-1" COMMENT="" />
    <EXPORT ORDINAL="10138" NAME="?OnLButtonDown@CMFCPopupMenuBar@@IEAAXIVCPoint@@@Z" PURGE="-1" COMMENT="" />
    <EXPORT ORDINAL="10137" NAME="?OnLButtonDown@CMFCPopupMenu@@IEAAXIVCPoint@@@Z" PURGE="-1" COMMENT="" />
    <EXPORT ORDINAL="10136" NAME="?OnLButtonDown@CMFCOutlookBarTabCtrl@@IEAAXIVCPoint@@@Z" PURGE="-1" COMMENT="" />
    <EXPORT ORDINAL="10135" NAME="?OnLButtonDown@CMFCMenuButton@@IEAAXIVCPoint@@@Z" PURGE="-1" COMMENT="" />
    <EXPORT ORDINAL="10134" NAME="?OnLButtonDown@CMFCMenuBar@@IEAAXIVCPoint@@@Z" PURGE="-1" COMMENT="" />
    <EXPORT ORDINAL="10133" NAME="?OnLButtonDown@CMFCImagePaintArea@@IEAAXIVCPoint@@@Z" PURGE="-1" COMMENT="" />
    <EXPORT ORDINAL="10132" NAME="?OnLButtonDown@CMFCHeaderCtrl@@IEAAXIVCPoint@@@Z" PURGE="-1" COMMENT="" />
    <EXPORT ORDINAL="10131" NAME="?OnLButtonDown@CMFCEditBrowseCtrl@@IEAAXIVCPoint@@@Z" PURGE="-1" COMMENT="" />
    <EXPORT ORDINAL="10130" NAME="?OnLButtonDown@CMFCDesktopAlertWnd@@IEAAXIVCPoint@@@Z" PURGE="-1" COMMENT="" />
    <EXPORT ORDINAL="10129" NAME="?OnLButtonDown@CMFCDesktopAlertDialog@@IEAAXIVCPoint@@@Z" PURGE="-1" COMMENT="" />
    <EXPORT ORDINAL="10128" NAME="?OnLButtonDown@CMFCColorPickerCtrl@@IEAAXIVCPoint@@@Z" PURGE="-1" COMMENT="" />
    <EXPORT ORDINAL="10127" NAME="?OnLButtonDown@CMFCColorDialog@@IEAAXIVCPoint@@@Z" PURGE="-1" COMMENT="" />
    <EXPORT ORDINAL="10126" NAME="?OnLButtonDown@CMFCColorButton@@IEAAXIVCPoint@@@Z" PURGE="-1" COMMENT="" />
    <EXPORT ORDINAL="10125" NAME="?OnLButtonDown@CMFCColorBar@@IEAAXIVCPoint@@@Z" PURGE="-1" COMMENT="" />
    <EXPORT ORDINAL="10124" NAME="?OnLButtonDown@CMFCCaptionBar@@IEAAXIVCPoint@@@Z" PURGE="-1" COMMENT="" />
    <EXPORT ORDINAL="10123" NAME="?OnLButtonDown@CMFCButton@@IEAAXIVCPoint@@@Z" PURGE="-1" COMMENT="" />
    <EXPORT ORDINAL="10122" NAME="?OnLButtonDown@CMFCBaseTabCtrl@@IEAAXIVCPoint@@@Z" PURGE="-1" COMMENT="" />
    <EXPORT ORDINAL="10121" NAME="?OnLButtonDown@CMFCAutoHideBar@@IEAAXIVCPoint@@@Z" PURGE="-1" COMMENT="" />
    <EXPORT ORDINAL="10120" NAME="?OnLButtonDown@CMDIFrameWndEx@@IEAAXIVCPoint@@@Z" PURGE="-1" COMMENT="" />
    <EXPORT ORDINAL="10119" NAME="?OnLButtonDown@CMDIChildWndEx@@IEAAXIVCPoint@@@Z" PURGE="-1" COMMENT="" />
    <EXPORT ORDINAL="10118" NAME="?OnLButtonDown@CFrameWndEx@@QEAAXIVCPoint@@@Z" PURGE="-1" COMMENT="" />
    <EXPORT ORDINAL="10117" NAME="?OnLButtonDown@CFrameImpl@@IEAAXVCPoint@@@Z" PURGE="-1" COMMENT="" />
    <EXPORT ORDINAL="10116" NAME="?OnLButtonDown@CDockablePane@@IEAAXIVCPoint@@@Z" PURGE="-1" COMMENT="" />
    <EXPORT ORDINAL="10115" NAME="?OnLButtonDown@CControlBar@@QEAAXIVCPoint@@@Z" PURGE="-1" COMMENT="" />
    <EXPORT ORDINAL="10114" NAME="?OnLButtonDown@CCheckListBox@@IEAAXIVCPoint@@@Z" PURGE="-1" COMMENT="" />
    <EXPORT ORDINAL="10113" NAME="?OnLButtonDblClk@CSplitterWnd@@IEAAXIVCPoint@@@Z" PURGE="-1" COMMENT="" />
    <EXPORT ORDINAL="10112" NAME="?OnLButtonDblClk@CPaneFrameWnd@@IEAAXIVCPoint@@@Z" PURGE="-1" COMMENT="" />
    <EXPORT ORDINAL="10111" NAME="?OnLButtonDblClk@CPaneDialog@@QEAAXIVCPoint@@@Z" PURGE="-1" COMMENT="" />
    <EXPORT ORDINAL="10110" NAME="?OnLButtonDblClk@CPane@@IEAAXIVCPoint@@@Z" PURGE="-1" COMMENT="" />
    <EXPORT ORDINAL="10109" NAME="?OnLButtonDblClk@COleControl@@IEAAXIVCPoint@@@Z" PURGE="-1" COMMENT="" />
    <EXPORT ORDINAL="10108" NAME="?OnLButtonDblClk@CMultiPaneFrameWnd@@IEAAXIVCPoint@@@Z" PURGE="-1" COMMENT="" />
    <EXPORT ORDINAL="10107" NAME="?OnLButtonDblClk@CMFCToolBarsListCheckBox@@IEAAXIVCPoint@@@Z" PURGE="-1" COMMENT="" />
    <EXPORT ORDINAL="10106" NAME="?OnLButtonDblClk@CMFCToolBar@@IEAAXIVCPoint@@@Z" PURGE="-1" COMMENT="" />
    <EXPORT ORDINAL="10105" NAME="?OnLButtonDblClk@CMFCTabCtrl@@IEAAXIVCPoint@@@Z" PURGE="-1" COMMENT="" />
    <EXPORT ORDINAL="10104" NAME="?OnLButtonDblClk@CMFCStatusBar@@IEAAXIVCPoint@@@Z" PURGE="-1" COMMENT="" />
    <EXPORT ORDINAL="10103" NAME="?OnLButtonDblClk@CMFCRibbonTab@@UEAAXVCPoint@@@Z" PURGE="-1" COMMENT="" />
    <EXPORT ORDINAL="10102" NAME="?OnLButtonDblClk@CMFCRibbonPanelMenuBar@@IEAAXIVCPoint@@@Z" PURGE="-1" COMMENT="" />
    <EXPORT ORDINAL="10101" NAME="?OnLButtonDblClk@CMFCRibbonBar@@IEAAXIVCPoint@@@Z" PURGE="-1" COMMENT="" />
    <EXPORT ORDINAL="10100" NAME="?OnLButtonDblClk@CMFCRibbonApplicationButton@@MEAAXVCPoint@@@Z" PURGE="-1" COMMENT="" />
    <EXPORT ORDINAL="10099" NAME="?OnLButtonDblClk@CMFCPropertyGridCtrl@@IEAAXIVCPoint@@@Z" PURGE="-1" COMMENT="" />
    <EXPORT ORDINAL="10098" NAME="?OnLButtonDblClk@CMFCPopupMenuBar@@IEAAXIVCPoint@@@Z" PURGE="-1" COMMENT="" />
    <EXPORT ORDINAL="10097" NAME="?OnLButtonDblClk@CMFCMenuButton@@IEAAXIVCPoint@@@Z" PURGE="-1" COMMENT="" />
    <EXPORT ORDINAL="10096" NAME="?OnLButtonDblClk@CMFCMenuBar@@IEAAXIVCPoint@@@Z" PURGE="-1" COMMENT="" />
    <EXPORT ORDINAL="10095" NAME="?OnLButtonDblClk@CMFCColorPickerCtrl@@IEAAXIVCPoint@@@Z" PURGE="-1" COMMENT="" />
    <EXPORT ORDINAL="10094" NAME="?OnLButtonDblClk@CMFCColorBar@@IEAAXIVCPoint@@@Z" PURGE="-1" COMMENT="" />
    <EXPORT ORDINAL="10093" NAME="?OnLButtonDblClk@CMFCButton@@IEAAXIVCPoint@@@Z" PURGE="-1" COMMENT="" />
    <EXPORT ORDINAL="10092" NAME="?OnLButtonDblClk@CMFCBaseTabCtrl@@IEAAXIVCPoint@@@Z" PURGE="-1" COMMENT="" />
    <EXPORT ORDINAL="10091" NAME="?OnLButtonDblClk@CDockablePane@@IEAAXIVCPoint@@@Z" PURGE="-1" COMMENT="" />
    <EXPORT ORDINAL="10090" NAME="?OnLButtonDblClk@CControlBar@@QEAAXIVCPoint@@@Z" PURGE="-1" COMMENT="" />
    <EXPORT ORDINAL="10089" NAME="?OnLButtonDblClk@CCheckListBox@@IEAAXIVCPoint@@@Z" PURGE="-1" COMMENT="" />
    <EXPORT ORDINAL="10088" NAME="?OnLBSetItemHeight@CCheckListBox@@IEAA_J_K_J@Z" PURGE="-1" COMMENT="" />
    <EXPORT ORDINAL="10087" NAME="?OnLBSetItemData@CCheckListBox@@IEAA_J_K_J@Z" PURGE="-1" COMMENT="" />
    <EXPORT ORDINAL="10086" NAME="?OnLBSelectString@CCheckListBox@@IEAA_J_K_J@Z" PURGE="-1" COMMENT="" />
    <EXPORT ORDINAL="10085" NAME="?OnLBSelChangedNotify@CFileDialog@@MEAAXIII@Z" PURGE="-1" COMMENT="" />
    <EXPORT ORDINAL="10084" NAME="?OnLBResetContent@CMFCToolBarsListCheckBox@@IEAA_J_K_J@Z" PURGE="-1" COMMENT="" />
    <EXPORT ORDINAL="10083" NAME="?OnLBInsertString@CMFCToolBarsListCheckBox@@IEAA_J_K_J@Z" PURGE="-1" COMMENT="" />
    <EXPORT ORDINAL="10082" NAME="?OnLBInsertString@CCheckListBox@@IEAA_J_K_J@Z" PURGE="-1" COMMENT="" />
    <EXPORT ORDINAL="10081" NAME="?OnLBGetText@CCheckListBox@@IEAA_J_K_J@Z" PURGE="-1" COMMENT="" />
    <EXPORT ORDINAL="10080" NAME="?OnLBGetItemData@CCheckListBox@@IEAA_J_K_J@Z" PURGE="-1" COMMENT="" />
    <EXPORT ORDINAL="10079" NAME="?OnLBFindStringExact@CCheckListBox@@IEAA_J_K_J@Z" PURGE="-1" COMMENT="" />
    <EXPORT ORDINAL="10078" NAME="?OnLBFindString@CCheckListBox@@IEAA_J_K_J@Z" PURGE="-1" COMMENT="" />
    <EXPORT ORDINAL="10077" NAME="?OnLBDeleteString@CMFCToolBarsListCheckBox@@IEAA_J_K_J@Z" PURGE="-1" COMMENT="" />
    <EXPORT ORDINAL="10076" NAME="?OnLBAddString@CMFCToolBarsListCheckBox@@IEAA_J_K_J@Z" PURGE="-1" COMMENT="" />
    <EXPORT ORDINAL="10075" NAME="?OnLBAddString@CCheckListBox@@IEAA_J_K_J@Z" PURGE="-1" COMMENT="" />
    <EXPORT ORDINAL="10073" NAME="?OnKillRollUpTimer@CPaneFrameWnd@@UEAAXXZ" PURGE="-1" COMMENT="" />
    <EXPORT ORDINAL="10072" NAME="?OnKillRollUpTimer@CMultiPaneFrameWnd@@UEAAXXZ" PURGE="-1" COMMENT="" />
    <EXPORT ORDINAL="10071" NAME="?OnKillFocus@COleControl@@IEAAXPEAVCWnd@@@Z" PURGE="-1" COMMENT="" />
    <EXPORT ORDINAL="10070" NAME="?OnKillFocus@CMFCToolBarEditCtrl@@IEAAXPEAVCWnd@@@Z" PURGE="-1" COMMENT="" />
    <EXPORT ORDINAL="10069" NAME="?OnKillFocus@CMFCToolBarComboBoxEdit@@IEAAXPEAVCWnd@@@Z" PURGE="-1" COMMENT="" />
    <EXPORT ORDINAL="10068" NAME="?OnKillFocus@CMFCToolBar@@IEAAXPEAVCWnd@@@Z" PURGE="-1" COMMENT="" />
    <EXPORT ORDINAL="10067" NAME="?OnKillFocus@CMFCRibbonRichEditCtrl@@IEAAXPEAVCWnd@@@Z" PURGE="-1" COMMENT="" />
    <EXPORT ORDINAL="10066" NAME="?OnKillFocus@CMFCRibbonBar@@IEAAXPEAVCWnd@@@Z" PURGE="-1" COMMENT="" />
    <EXPORT ORDINAL="10065" NAME="?OnKillFocus@CMFCPropertyGridCtrl@@IEAAXPEAVCWnd@@@Z" PURGE="-1" COMMENT="" />
    <EXPORT ORDINAL="10064" NAME="?OnKillFocus@CMFCMenuButton@@IEAAXPEAVCWnd@@@Z" PURGE="-1" COMMENT="" />
    <EXPORT ORDINAL="10062" NAME="?OnKillFocus@CMFCColorPickerCtrl@@IEAAXPEAVCWnd@@@Z" PURGE="-1" COMMENT="" />
    <EXPORT ORDINAL="10061" NAME="?OnKillFocus@CMFCButton@@IEAAXPEAVCWnd@@@Z" PURGE="-1" COMMENT="" />
    <EXPORT ORDINAL="10060" NAME="?OnKillFocus@CMFCAcceleratorKeyAssignCtrl@@IEAAXPEAVCWnd@@@Z" PURGE="-1" COMMENT="" />
    <EXPORT ORDINAL="10059" NAME="?OnKillActive@CPropertyPage@@UEAAHXZ" PURGE="-1" COMMENT="" />
    <EXPORT ORDINAL="10058" NAME="?OnKillActive@CMFCToolBarsToolsPropertyPage@@UEAAHXZ" PURGE="-1" COMMENT="" />
    <EXPORT ORDINAL="10057" NAME="?OnKickIdle@CPropertySheet@@IEAA_J_K_J@Z" PURGE="-1" COMMENT="" />
    <EXPORT ORDINAL="10056" NAME="?OnKickIdle@CMFCImageEditorDialog@@IEAA_J_K_J@Z" PURGE="-1" COMMENT="" />
    <EXPORT ORDINAL="10055" NAME="?OnKeyUpEvent@COleControl@@UEAAXGG@Z" PURGE="-1" COMMENT="" />
    <EXPORT ORDINAL="10054" NAME="?OnKeyUp@COleControl@@IEAAXIII@Z" PURGE="-1" COMMENT="" />
    <EXPORT ORDINAL="10053" NAME="?OnKeyPressEvent@COleControl@@UEAAXG@Z" PURGE="-1" COMMENT="" />
    <EXPORT ORDINAL="10052" NAME="?OnKeyDownEvent@COleControl@@UEAAXGG@Z" PURGE="-1" COMMENT="" />
    <EXPORT ORDINAL="10051" NAME="?OnKeyDown@CVSListBoxEditCtrl@@IEAAXIII@Z" PURGE="-1" COMMENT="" />
    <EXPORT ORDINAL="10050" NAME="?OnKeyDown@CVSListBox@@IEAAXPEAUtagNMHDR@@PEA_J@Z" PURGE="-1" COMMENT="" />
    <EXPORT ORDINAL="10049" NAME="?OnKeyDown@CSplitterWnd@@IEAAXIII@Z" PURGE="-1" COMMENT="" />
    <EXPORT ORDINAL="10048" NAME="?OnKeyDown@CRichEditView@@IEAAXIII@Z" PURGE="-1" COMMENT="" />
    <EXPORT ORDINAL="10047" NAME="?OnKeyDown@COleControl@@IEAAXIII@Z" PURGE="-1" COMMENT="" />
    <EXPORT ORDINAL="10046" NAME="?OnKeyDown@CMFCToolBarsListCheckBox@@IEAAXIII@Z" PURGE="-1" COMMENT="" />
    <EXPORT ORDINAL="10045" NAME="?OnKeyDown@CMFCToolBarButtonsListButton@@IEAAXIII@Z" PURGE="-1" COMMENT="" />
    <EXPORT ORDINAL="10044" NAME="?OnKeyDown@CMFCRibbonPanelMenu@@IEAAXIII@Z" PURGE="-1" COMMENT="" />
    <EXPORT ORDINAL="10043" NAME="?OnKeyDown@CMFCPropertyGridCtrl@@IEAAXIII@Z" PURGE="-1" COMMENT="" />
    <EXPORT ORDINAL="10042" NAME="?OnKeyDown@CMFCPopupMenu@@IEAAXIII@Z" PURGE="-1" COMMENT="" />
    <EXPORT ORDINAL="10041" NAME="?OnKeyDown@CMFCMenuButton@@IEAAXIII@Z" PURGE="-1" COMMENT="" />
    <EXPORT ORDINAL="10040" NAME="?OnKeyDown@CMFCMaskedEdit@@IEAAXIII@Z" PURGE="-1" COMMENT="" />
    <EXPORT ORDINAL="10039" NAME="?OnKeyDown@CMFCDropDownListBox@@IEAAXIII@Z" PURGE="-1" COMMENT="" />
    <EXPORT ORDINAL="10038" NAME="?OnKeyDown@CMFCColorPickerCtrl@@IEAAXIII@Z" PURGE="-1" COMMENT="" />
    <EXPORT ORDINAL="10037" NAME="?OnKeyDown@CMFCColorButton@@IEAAXIII@Z" PURGE="-1" COMMENT="" />
    <EXPORT ORDINAL="10036" NAME="?OnKeyDown@CCheckListBox@@IEAAXIII@Z" PURGE="-1" COMMENT="" />
    <EXPORT ORDINAL="10035" NAME="?OnKey@CVSListBoxBase@@UEAAXGE@Z" PURGE="-1" COMMENT="" />
    <EXPORT ORDINAL="10034" NAME="?OnKey@CMFCRibbonTab@@UEAAHH@Z" PURGE="-1" COMMENT="" />
    <EXPORT ORDINAL="10033" NAME="?OnKey@CMFCRibbonPanelMenuBar@@UEAAHI@Z" PURGE="-1" COMMENT="" />
    <EXPORT ORDINAL="10032" NAME="?OnKey@CMFCRibbonPanel@@UEAAHI@Z" PURGE="-1" COMMENT="" />
    <EXPORT ORDINAL="10031" NAME="?OnKey@CMFCRibbonGallery@@MEAAHH@Z" PURGE="-1" COMMENT="" />
    <EXPORT ORDINAL="10030" NAME="?OnKey@CMFCRibbonEdit@@UEAAHH@Z" PURGE="-1" COMMENT="" />
    <EXPORT ORDINAL="10029" NAME="?OnKey@CMFCRibbonDefaultPanelButton@@UEAAHH@Z" PURGE="-1" COMMENT="" />
    <EXPORT ORDINAL="10028" NAME="?OnKey@CMFCRibbonCategory@@UEAAHI@Z" PURGE="-1" COMMENT="" />
    <EXPORT ORDINAL="10027" NAME="?OnKey@CMFCRibbonButton@@MEAAHH@Z" PURGE="-1" COMMENT="" />
    <EXPORT ORDINAL="10026" NAME="?OnKey@CMFCRibbonBaseElement@@UEAAHH@Z" PURGE="-1" COMMENT="" />
    <EXPORT ORDINAL="10025" NAME="?OnKey@CMFCRibbonApplicationButton@@MEAAHH@Z" PURGE="-1" COMMENT="" />
    <EXPORT ORDINAL="10024" NAME="?OnKey@CMFCPopupMenuBar@@MEAAHI@Z" PURGE="-1" COMMENT="" />
    <EXPORT ORDINAL="10023" NAME="?OnKey@CMFCColorBar@@MEAAHI@Z" PURGE="-1" COMMENT="" />
    <EXPORT ORDINAL="10022" NAME="?OnKey@CDockContext@@QEAAXHH@Z" PURGE="-1" COMMENT="" />
    <EXPORT ORDINAL="10019" NAME="?OnItemexpanding@CMFCShellTreeCtrl@@IEAAXPEAUtagNMHDR@@PEA_J@Z" PURGE="-1" COMMENT="" />
    <EXPORT ORDINAL="10018" NAME="?OnItemchangedListViews@CMFCMousePropertyPage@@IEAAXPEAUtagNMHDR@@PEA_J@Z" PURGE="-1" COMMENT="" />
    <EXPORT ORDINAL="10021" NAME="?OnItemSelected@XFileDialogControlEvents@CFileDialog@@UEAAJPEAUIFileDialogCustomize@@KK@Z" PURGE="-1" COMMENT="" />
    <EXPORT ORDINAL="10020" NAME="?OnItemSelected@CFileDialog@@MEAAXKK@Z" PURGE="-1" COMMENT="" />
    <EXPORT ORDINAL="10017" NAME="?OnItemChanged@CVSListBox@@IEAAXPEAUtagNMHDR@@PEA_J@Z" PURGE="-1" COMMENT="" />
    <EXPORT ORDINAL="10016" NAME="?OnInvertTracker@CSplitterWnd@@MEAAXAEBVCRect@@@Z" PURGE="-1" COMMENT="" />
    <EXPORT ORDINAL="10015" NAME="?OnInsertRow@CDockSite@@UEAAXPEAU__POSITION@@@Z" PURGE="-1" COMMENT="" />
    <EXPORT ORDINAL="10014" NAME="?OnInsertPane@CDockingPanesRow@@MEAAXPEAVCPane@@@Z" PURGE="-1" COMMENT="" />
    <EXPORT ORDINAL="10013" NAME="?OnInsertObject@CRichEditView@@IEAAXXZ" PURGE="-1" COMMENT="" />
    <EXPORT ORDINAL="10012" NAME="?OnInsertMenus@COleDocObjectItem@@UEAAXPEAVCMenu@@PEAUtagOleMenuGroupWidths@@@Z" PURGE="-1" COMMENT="" />
    <EXPORT ORDINAL="10011" NAME="?OnInsertMenus@COleClientItem@@UEAAXPEAVCMenu@@PEAUtagOleMenuGroupWidths@@@Z" PURGE="-1" COMMENT="" />
    <EXPORT ORDINAL="10010" NAME="?OnInsertItem@CMFCKeyMapDialog@@MEAAXPEAVCMFCToolBarButton@@H@Z" PURGE="-1" COMMENT="" />
    <EXPORT ORDINAL="9998" NAME="?OnInitialUpdate@CView@@UEAAXXZ" PURGE="-1" COMMENT="" />
    <EXPORT ORDINAL="9997" NAME="?OnInitialUpdate@CTabView@@UEAAXXZ" PURGE="-1" COMMENT="" />
    <EXPORT ORDINAL="9996" NAME="?OnInitialUpdate@CRichEditView@@MEAAXXZ" PURGE="-1" COMMENT="" />
    <EXPORT ORDINAL="9995" NAME="?OnInitialUpdate@CRecordView@@UEAAXXZ" PURGE="-1" COMMENT="" />
    <EXPORT ORDINAL="9994" NAME="?OnInitialUpdate@COleDBRecordView@@UEAAXXZ" PURGE="-1" COMMENT="" />
    <EXPORT ORDINAL="9993" NAME="?OnInitialUpdate@CFormView@@UEAAXXZ" PURGE="-1" COMMENT="" />
    <EXPORT ORDINAL="9992" NAME="?OnInitialUpdate@CControlBar@@QEAAXXZ" PURGE="-1" COMMENT="" />
    <EXPORT ORDINAL="9991" NAME="?OnInitialDirectoryOptions@CMFCToolBarsToolsPropertyPage@@IEAAXXZ" PURGE="-1" COMMENT="" />
    <EXPORT ORDINAL="10003" NAME="?OnInitMenuPopup@COleFrameHook@@UEAAHPEAVCMenu@@HH@Z" PURGE="-1" COMMENT="" />
    <EXPORT ORDINAL="10002" NAME="?OnInitMenuPopup@COleControl@@IEAAXPEAVCMenu@@IH@Z" PURGE="-1" COMMENT="" />
    <EXPORT ORDINAL="10001" NAME="?OnInitMenuPopup@CFrameWnd@@IEAAXPEAVCMenu@@IH@Z" PURGE="-1" COMMENT="" />
    <EXPORT ORDINAL="10000" NAME="?OnInitMenu@COleFrameHook@@UEAAXPEAVCMenu@@@Z" PURGE="-1" COMMENT="" />
    <EXPORT ORDINAL="9999" NAME="?OnInitMenu@CFrameWnd@@IEAAXPEAVCMenu@@@Z" PURGE="-1" COMMENT="" />
    <EXPORT ORDINAL="9990" NAME="?OnInitFromData@COleServerItem@@UEAAHPEAVCOleDataObject@@H@Z" PURGE="-1" COMMENT="" />
    <EXPORT ORDINAL="9989" NAME="?OnInitDone@CFileDialog@@MEAAXXZ" PURGE="-1" COMMENT="" />
    <EXPORT ORDINAL="9988" NAME="?OnInitDialog@CPropertySheet@@UEAAHXZ" PURGE="-1" COMMENT="" />
    <EXPORT ORDINAL="9987" NAME="?OnInitDialog@COutlookOptionsDlg@@MEAAHXZ" PURGE="-1" COMMENT="" />
    <EXPORT ORDINAL="9986" NAME="?OnInitDialog@COlePropertyPage@@UEAAHXZ" PURGE="-1" COMMENT="" />
    <EXPORT ORDINAL="9985" NAME="?OnInitDialog@COlePropertiesDialog@@UEAAHXZ" PURGE="-1" COMMENT="" />
    <EXPORT ORDINAL="9984" NAME="?OnInitDialog@CMFCWindowsManagerDialog@@MEAAHXZ" PURGE="-1" COMMENT="" />
    <EXPORT ORDINAL="9983" NAME="?OnInitDialog@CMFCToolBarsToolsPropertyPage@@MEAAHXZ" PURGE="-1" COMMENT="" />
    <EXPORT ORDINAL="9982" NAME="?OnInitDialog@CMFCToolBarsOptionsPropertyPage@@MEAAHXZ" PURGE="-1" COMMENT="" />
    <EXPORT ORDINAL="9981" NAME="?OnInitDialog@CMFCToolBarsMenuPropertyPage@@MEAAHXZ" PURGE="-1" COMMENT="" />
    <EXPORT ORDINAL="9980" NAME="?OnInitDialog@CMFCToolBarsListPropertyPage@@MEAAHXZ" PURGE="-1" COMMENT="" />
    <EXPORT ORDINAL="9979" NAME="?OnInitDialog@CMFCToolBarsKeyboardPropertyPage@@MEAAHXZ" PURGE="-1" COMMENT="" />
    <EXPORT ORDINAL="9978" NAME="?OnInitDialog@CMFCToolBarsCustomizeDialog@@UEAAHXZ" PURGE="-1" COMMENT="" />
    <EXPORT ORDINAL="9977" NAME="?OnInitDialog@CMFCToolBarsCommandsPropertyPage@@MEAAHXZ" PURGE="-1" COMMENT="" />
    <EXPORT ORDINAL="9976" NAME="?OnInitDialog@CMFCToolBarNameDialog@@MEAAHXZ" PURGE="-1" COMMENT="" />
    <EXPORT ORDINAL="9975" NAME="?OnInitDialog@CMFCToolBarButtonCustomizeDialog@@MEAAHXZ" PURGE="-1" COMMENT="" />
    <EXPORT ORDINAL="9974" NAME="?OnInitDialog@CMFCStandardColorsPropertyPage@@MEAAHXZ" PURGE="-1" COMMENT="" />
    <EXPORT ORDINAL="9973" NAME="?OnInitDialog@CMFCRibbonKeyboardCustomizeDialog@@MEAAHXZ" PURGE="-1" COMMENT="" />
    <EXPORT ORDINAL="9972" NAME="?OnInitDialog@CMFCRibbonCustomizePropertyPage@@MEAAHXZ" PURGE="-1" COMMENT="" />
    <EXPORT ORDINAL="9971" NAME="?OnInitDialog@CMFCPropertySheet@@UEAAHXZ" PURGE="-1" COMMENT="" />
    <EXPORT ORDINAL="9970" NAME="?OnInitDialog@CMFCPropertyPage@@MEAAHXZ" PURGE="-1" COMMENT="" />
    <EXPORT ORDINAL="9969" NAME="?OnInitDialog@CMFCMousePropertyPage@@MEAAHXZ" PURGE="-1" COMMENT="" />
    <EXPORT ORDINAL="9968" NAME="?OnInitDialog@CMFCKeyMapDialog@@MEAAHXZ" PURGE="-1" COMMENT="" />
    <EXPORT ORDINAL="9967" NAME="?OnInitDialog@CMFCImageEditorDialog@@MEAAHXZ" PURGE="-1" COMMENT="" />
    <EXPORT ORDINAL="9966" NAME="?OnInitDialog@CMFCDesktopAlertDialog@@MEAAHXZ" PURGE="-1" COMMENT="" />
    <EXPORT ORDINAL="9965" NAME="?OnInitDialog@CMFCCustomColorsPropertyPage@@MEAAHXZ" PURGE="-1" COMMENT="" />
    <EXPORT ORDINAL="9964" NAME="?OnInitDialog@CMFCColorPropertySheet@@UEAAHXZ" PURGE="-1" COMMENT="" />
    <EXPORT ORDINAL="9963" NAME="?OnInitDialog@CMFCColorDialog@@MEAAHXZ" PURGE="-1" COMMENT="" />
    <EXPORT ORDINAL="9962" NAME="?OnInitDialog@CDialog@@UEAAHXZ" PURGE="-1" COMMENT="" />
    <EXPORT ORDINAL="9961" NAME="?OnInitDialog@CDHtmlDialog@@UEAAHXZ" PURGE="-1" COMMENT="" />
    <EXPORT ORDINAL="9960" NAME="?OnInitControl@CVSListBox@@IEAA_J_K_J@Z" PURGE="-1" COMMENT="" />
    <EXPORT ORDINAL="9959" NAME="?OnInitControl@CMFCShellTreeCtrl@@IEAA_J_K_J@Z" PURGE="-1" COMMENT="" />
    <EXPORT ORDINAL="9958" NAME="?OnInitControl@CMFCShellListCtrl@@IEAA_J_K_J@Z" PURGE="-1" COMMENT="" />
    <EXPORT ORDINAL="9957" NAME="?OnInitControl@CMFCPropertyGridCtrl@@IEAA_J_K_J@Z" PURGE="-1" COMMENT="" />
    <EXPORT ORDINAL="9956" NAME="?OnInitControl@CMFCMenuButton@@IEAA_J_K_J@Z" PURGE="-1" COMMENT="" />
    <EXPORT ORDINAL="9955" NAME="?OnInitControl@CMFCMaskedEdit@@IEAA_J_K_J@Z" PURGE="-1" COMMENT="" />
    <EXPORT ORDINAL="9954" NAME="?OnInitControl@CMFCLinkCtrl@@IEAA_J_K_J@Z" PURGE="-1" COMMENT="" />
    <EXPORT ORDINAL="9953" NAME="?OnInitControl@CMFCFontComboBox@@IEAA_J_K_J@Z" PURGE="-1" COMMENT="" />
    <EXPORT ORDINAL="9952" NAME="?OnInitControl@CMFCEditBrowseCtrl@@IEAA_J_K_J@Z" PURGE="-1" COMMENT="" />
    <EXPORT ORDINAL="9951" NAME="?OnInitControl@CMFCColorButton@@IEAA_J_K_J@Z" PURGE="-1" COMMENT="" />
    <EXPORT ORDINAL="9950" NAME="?OnInitControl@CMFCButton@@IEAA_J_K_J@Z" PURGE="-1" COMMENT="" />
    <EXPORT ORDINAL="9949" NAME="?OnInactiveSetCursor@XPointerInactive@COleControl@@UEAAJPEBUtagRECT@@JJKH@Z" PURGE="-1" COMMENT="" />
    <EXPORT ORDINAL="9948" NAME="?OnInactiveSetCursor@COleControl@@UEAAHPEBUtagRECT@@JJKH@Z" PURGE="-1" COMMENT="" />
    <EXPORT ORDINAL="9947" NAME="?OnInactiveMouseMove@XPointerInactive@COleControl@@UEAAJPEBUtagRECT@@JJK@Z" PURGE="-1" COMMENT="" />
    <EXPORT ORDINAL="9946" NAME="?OnInactiveMouseMove@COleControl@@UEAAXPEBUtagRECT@@JJK@Z" PURGE="-1" COMMENT="" />
    <EXPORT ORDINAL="10009" NAME="?OnInPlaceDeactivateEx@XOleIPSite@COleControlSite@@UEAAJH@Z" PURGE="-1" COMMENT="" />
    <EXPORT ORDINAL="10008" NAME="?OnInPlaceDeactivate@XOleIPSite@COleControlSite@@UEAAJXZ" PURGE="-1" COMMENT="" />
    <EXPORT ORDINAL="10007" NAME="?OnInPlaceDeactivate@XOleIPSite@COleClientItem@@UEAAJXZ" PURGE="-1" COMMENT="" />
    <EXPORT ORDINAL="10006" NAME="?OnInPlaceActivateEx@XOleIPSite@COleControlSite@@UEAAJPEAHK@Z" PURGE="-1" COMMENT="" />
    <EXPORT ORDINAL="10005" NAME="?OnInPlaceActivate@XOleIPSite@COleControlSite@@UEAAJXZ" PURGE="-1" COMMENT="" />
    <EXPORT ORDINAL="10004" NAME="?OnInPlaceActivate@XOleIPSite@COleClientItem@@UEAAJXZ" PURGE="-1" COMMENT="" />
    <EXPORT ORDINAL="9945" NAME="?OnImageText@CMFCToolBarButtonCustomizeDialog@@IEAAXXZ" PURGE="-1" COMMENT="" />
    <EXPORT ORDINAL="9944" NAME="?OnImageList@CMFCToolBarButtonCustomizeDialog@@IEAAXXZ" PURGE="-1" COMMENT="" />
    <EXPORT ORDINAL="9943" NAME="?OnImage@CMFCToolBarButtonCustomizeDialog@@IEAAXXZ" PURGE="-1" COMMENT="" />
    <EXPORT ORDINAL="9942" NAME="?OnIllegalFileName@CMFCEditBrowseCtrl@@UEAAHAEAV?$CStringT@DV?$StrTraitMFC_DLL@DV?$ChTraitsCRT@D@ATL@@@@@ATL@@@Z" PURGE="-1" COMMENT="" />
    <EXPORT ORDINAL="9941" NAME="?OnIdleUpdateCmdUI@CPaneFrameWnd@@IEAA_J_K_J@Z" PURGE="-1" COMMENT="" />
    <EXPORT ORDINAL="9940" NAME="?OnIdleUpdateCmdUI@COleIPFrameWndEx@@IEAA_J_K_J@Z" PURGE="-1" COMMENT="" />
    <EXPORT ORDINAL="9939" NAME="?OnIdleUpdateCmdUI@COleIPFrameWnd@@IEAAXXZ" PURGE="-1" COMMENT="" />
    <EXPORT ORDINAL="9938" NAME="?OnIdleUpdateCmdUI@COleDocIPFrameWndEx@@IEAA_J_K_J@Z" PURGE="-1" COMMENT="" />
    <EXPORT ORDINAL="9937" NAME="?OnIdleUpdateCmdUI@COleCntrFrameWndEx@@IEAAXXZ" PURGE="-1" COMMENT="" />
    <EXPORT ORDINAL="9936" NAME="?OnIdleUpdateCmdUI@COleCntrFrameWnd@@QEAAXXZ" PURGE="-1" COMMENT="" />
    <EXPORT ORDINAL="9935" NAME="?OnIdleUpdateCmdUI@CMultiPaneFrameWnd@@IEAA_J_K_J@Z" PURGE="-1" COMMENT="" />
    <EXPORT ORDINAL="9934" NAME="?OnIdleUpdateCmdUI@CMFCTasksPaneToolBar@@IEAA_J_K_J@Z" PURGE="-1" COMMENT="" />
    <EXPORT ORDINAL="9933" NAME="?OnIdleUpdateCmdUI@CMFCPopupMenuBar@@IEAA_J_K_J@Z" PURGE="-1" COMMENT="" />
    <EXPORT ORDINAL="9932" NAME="?OnIdleUpdateCmdUI@CMDIFrameWndEx@@IEAA_J_K_J@Z" PURGE="-1" COMMENT="" />
    <EXPORT ORDINAL="9931" NAME="?OnIdleUpdateCmdUI@CMDIFrameWnd@@IEAAXXZ" PURGE="-1" COMMENT="" />
    <EXPORT ORDINAL="9930" NAME="?OnIdleUpdateCmdUI@CMDIChildWndEx@@IEAA_J_K_J@Z" PURGE="-1" COMMENT="" />
    <EXPORT ORDINAL="9929" NAME="?OnIdleUpdateCmdUI@CFrameWndEx@@QEAA_J_K_J@Z" PURGE="-1" COMMENT="" />
    <EXPORT ORDINAL="9928" NAME="?OnIdleUpdateCmdUI@CFrameWnd@@IEAAXXZ" PURGE="-1" COMMENT="" />
    <EXPORT ORDINAL="9927" NAME="?OnIdleUpdateCmdUI@CControlBar@@QEAA_J_K_J@Z" PURGE="-1" COMMENT="" />
    <EXPORT ORDINAL="9926" NAME="?OnIdleUpdateCmdUI@CBasePane@@IEAA_J_K_J@Z" PURGE="-1" COMMENT="" />
    <EXPORT ORDINAL="9925" NAME="?OnIdle@CWinThread@@UEAAHJ@Z" PURGE="-1" COMMENT="" />
    <EXPORT ORDINAL="9924" NAME="?OnIdle@CWinApp@@UEAAHJ@Z" PURGE="-1" COMMENT="" />
    <EXPORT ORDINAL="9923" NAME="?OnIdle@COleDocument@@UEAAXXZ" PURGE="-1" COMMENT="" />
    <EXPORT ORDINAL="9922" NAME="?OnIdle@CDocument@@UEAAXXZ" PURGE="-1" COMMENT="" />
    <EXPORT ORDINAL="9921" NAME="?OnIdle@CDocTemplate@@UEAAXXZ" PURGE="-1" COMMENT="" />
    <EXPORT ORDINAL="9914" NAME="?OnHome@CMFCTasksPane@@IEAAXXZ" PURGE="-1" COMMENT="" />
    <EXPORT ORDINAL="9912" NAME="?OnHighlightRarelyUsedMenuItems@CMFCVisualManagerWindows@@UEAAXPEAVCDC@@VCRect@@@Z" PURGE="-1" COMMENT="" />
    <EXPORT ORDINAL="9911" NAME="?OnHighlightRarelyUsedMenuItems@CMFCVisualManagerVS2008@@UEAAXPEAVCDC@@VCRect@@@Z" PURGE="-1" COMMENT="" />
    <EXPORT ORDINAL="9910" NAME="?OnHighlightRarelyUsedMenuItems@CMFCVisualManagerOfficeXP@@MEAAXPEAVCDC@@VCRect@@@Z" PURGE="-1" COMMENT="" />
    <EXPORT ORDINAL="9909" NAME="?OnHighlightRarelyUsedMenuItems@CMFCVisualManagerOffice2007@@UEAAXPEAVCDC@@VCRect@@@Z" PURGE="-1" COMMENT="" />
    <EXPORT ORDINAL="9908" NAME="?OnHighlightRarelyUsedMenuItems@CMFCVisualManagerOffice2003@@UEAAXPEAVCDC@@VCRect@@@Z" PURGE="-1" COMMENT="" />
    <EXPORT ORDINAL="9907" NAME="?OnHighlightRarelyUsedMenuItems@CMFCVisualManager@@UEAAXPEAVCDC@@VCRect@@@Z" PURGE="-1" COMMENT="" />
    <EXPORT ORDINAL="9906" NAME="?OnHighlightQuickCustomizeMenuButton@CMFCVisualManagerOfficeXP@@MEAAXPEAVCDC@@PEAVCMFCToolBarMenuButton@@VCRect@@@Z" PURGE="-1" COMMENT="" />
    <EXPORT ORDINAL="9905" NAME="?OnHighlightQuickCustomizeMenuButton@CMFCVisualManagerOffice2003@@UEAAXPEAVCDC@@PEAVCMFCToolBarMenuButton@@VCRect@@@Z" PURGE="-1" COMMENT="" />
    <EXPORT ORDINAL="9903" NAME="?OnHighlightMenuItem@CMFCVisualManagerWindows@@UEAAXPEAVCDC@@PEAVCMFCToolBarMenuButton@@VCRect@@AEAK@Z" PURGE="-1" COMMENT="" />
    <EXPORT ORDINAL="9904" NAME="?OnHighlightMenuItem@CMFCVisualManagerWindows7@@UEAAXPEAVCDC@@PEAVCMFCToolBarMenuButton@@VCRect@@AEAK@Z" PURGE="-1" COMMENT="" />
    <EXPORT ORDINAL="9902" NAME="?OnHighlightMenuItem@CMFCVisualManagerVS2008@@UEAAXPEAVCDC@@PEAVCMFCToolBarMenuButton@@VCRect@@AEAK@Z" PURGE="-1" COMMENT="" />
    <EXPORT ORDINAL="9901" NAME="?OnHighlightMenuItem@CMFCVisualManagerOfficeXP@@MEAAXPEAVCDC@@PEAVCMFCToolBarMenuButton@@VCRect@@AEAK@Z" PURGE="-1" COMMENT="" />
    <EXPORT ORDINAL="9900" NAME="?OnHighlightMenuItem@CMFCVisualManagerOffice2007@@UEAAXPEAVCDC@@PEAVCMFCToolBarMenuButton@@VCRect@@AEAK@Z" PURGE="-1" COMMENT="" />
    <EXPORT ORDINAL="9899" NAME="?OnHighlightMenuItem@CMFCVisualManager@@UEAAXPEAVCDC@@PEAVCMFCToolBarMenuButton@@VCRect@@AEAK@Z" PURGE="-1" COMMENT="" />
    <EXPORT ORDINAL="9898" NAME="?OnHighlight@CMFCRibbonGalleryIcon@@MEAAXH@Z" PURGE="-1" COMMENT="" />
    <EXPORT ORDINAL="9897" NAME="?OnHighlight@CMFCRibbonEdit@@UEAAXH@Z" PURGE="-1" COMMENT="" />
    <EXPORT ORDINAL="9896" NAME="?OnHideUI@CHtmlView@@UEAAJXZ" PURGE="-1" COMMENT="" />
    <EXPORT ORDINAL="9895" NAME="?OnHideToolBars@COleControl@@UEAAXXZ" PURGE="-1" COMMENT="" />
    <EXPORT ORDINAL="9894" NAME="?OnHideMenuBar@CFrameWnd@@MEAAXXZ" PURGE="-1" COMMENT="" />
    <EXPORT ORDINAL="9893" NAME="?OnHide@COleServerItem@@MEAAXXZ" PURGE="-1" COMMENT="" />
    <EXPORT ORDINAL="9892" NAME="?OnHide@COleControl@@MEAAJXZ" PURGE="-1" COMMENT="" />
    <EXPORT ORDINAL="9891" NAME="?OnHide@CDocObjectServerItem@@MEAAXXZ" PURGE="-1" COMMENT="" />
    <EXPORT ORDINAL="9890" NAME="?OnHexColor@CMFCStandardColorsPropertyPage@@IEAAXXZ" PURGE="-1" COMMENT="" />
    <EXPORT ORDINAL="9889" NAME="?OnHelpUsing@CWnd@@QEAAXXZ" PURGE="-1" COMMENT="" />
    <EXPORT ORDINAL="9888" NAME="?OnHelpUsing@CWinApp@@IEAAXXZ" PURGE="-1" COMMENT="" />
    <EXPORT ORDINAL="9887" NAME="?OnHelpPromptAddr@CFrameWnd@@IEAA_J_K_J@Z" PURGE="-1" COMMENT="" />
    <EXPORT ORDINAL="9886" NAME="?OnHelpInfo@CWnd@@IEAAHPEAUtagHELPINFO@@@Z" PURGE="-1" COMMENT="" />
    <EXPORT ORDINAL="9885" NAME="?OnHelpInfo@CMFCWindowsManagerDialog@@IEAAHPEAUtagHELPINFO@@@Z" PURGE="-1" COMMENT="" />
    <EXPORT ORDINAL="9884" NAME="?OnHelpInfo@CMFCToolBarsCustomizeDialog@@IEAAHPEAUtagHELPINFO@@@Z" PURGE="-1" COMMENT="" />
    <EXPORT ORDINAL="9883" NAME="?OnHelpInfo@CCommonDialog@@IEAAHPEAUtagHELPINFO@@@Z" PURGE="-1" COMMENT="" />
    <EXPORT ORDINAL="9882" NAME="?OnHelpIndex@CWnd@@QEAAXXZ" PURGE="-1" COMMENT="" />
    <EXPORT ORDINAL="9881" NAME="?OnHelpIndex@CWinApp@@IEAAXXZ" PURGE="-1" COMMENT="" />
    <EXPORT ORDINAL="9880" NAME="?OnHelpHitTest@CMFCToolBar@@IEAA_J_K_J@Z" PURGE="-1" COMMENT="" />
    <EXPORT ORDINAL="9879" NAME="?OnHelpHitTest@CFrameWnd@@IEAA_J_K_J@Z" PURGE="-1" COMMENT="" />
    <EXPORT ORDINAL="9878" NAME="?OnHelpHitTest@CDialog@@IEAA_J_K_J@Z" PURGE="-1" COMMENT="" />
    <EXPORT ORDINAL="9877" NAME="?OnHelpHitTest@CControlBar@@QEAA_J_K_J@Z" PURGE="-1" COMMENT="" />
    <EXPORT ORDINAL="9876" NAME="?OnHelpHitTest@CBasePane@@IEAA_J_K_J@Z" PURGE="-1" COMMENT="" />
    <EXPORT ORDINAL="9875" NAME="?OnHelpFinder@CWnd@@QEAAXXZ" PURGE="-1" COMMENT="" />
    <EXPORT ORDINAL="9874" NAME="?OnHelpFinder@CWinApp@@IEAAXXZ" PURGE="-1" COMMENT="" />
    <EXPORT ORDINAL="9873" NAME="?OnHelp@XFileDialogEvents@CFileDialog@@UEAAJPEAUIFileDialog@@@Z" PURGE="-1" COMMENT="" />
    <EXPORT ORDINAL="9872" NAME="?OnHelp@CWnd@@QEAAXXZ" PURGE="-1" COMMENT="" />
    <EXPORT ORDINAL="9871" NAME="?OnHelp@CWinApp@@IEAAXXZ" PURGE="-1" COMMENT="" />
    <EXPORT ORDINAL="9870" NAME="?OnHelp@COlePropertyPage@@UEAAHPEBD@Z" PURGE="-1" COMMENT="" />
    <EXPORT ORDINAL="9869" NAME="?OnHelp@CFrameWnd@@IEAAXXZ" PURGE="-1" COMMENT="" />
    <EXPORT ORDINAL="9868" NAME="?OnHeightChange@CReBar@@IEAAXPEAUtagNMHDR@@PEA_J@Z" PURGE="-1" COMMENT="" />
    <EXPORT ORDINAL="9867" NAME="?OnHeightChange@CMFCReBar@@IEAAXPEAUtagNMHDR@@PEA_J@Z" PURGE="-1" COMMENT="" />
    <EXPORT ORDINAL="9866" NAME="?OnHeaderTrack@CMFCPropertyGridCtrl@@IEAAXPEAUtagNMHDR@@PEA_J@Z" PURGE="-1" COMMENT="" />
    <EXPORT ORDINAL="9865" NAME="?OnHeaderItemChanged@CMFCPropertyGridCtrl@@IEAAXPEAUtagNMHDR@@PEA_J@Z" PURGE="-1" COMMENT="" />
    <EXPORT ORDINAL="9864" NAME="?OnHeaderEndTrack@CMFCPropertyGridCtrl@@IEAAXPEAUtagNMHDR@@PEA_J@Z" PURGE="-1" COMMENT="" />
    <EXPORT ORDINAL="9863" NAME="?OnHasPriorityTrim@CAnimationController@@UEAAHPEAVCAnimationGroup@@0W4__MIDL___MIDL_itf_UIAnimation_0000_0008_0001@@@Z" PURGE="-1" COMMENT="" />
    <EXPORT ORDINAL="9862" NAME="?OnHasPriorityConclude@CAnimationController@@UEAAHPEAVCAnimationGroup@@0W4__MIDL___MIDL_itf_UIAnimation_0000_0008_0001@@@Z" PURGE="-1" COMMENT="" />
    <EXPORT ORDINAL="9861" NAME="?OnHasPriorityCompress@CAnimationController@@UEAAHPEAVCAnimationGroup@@0W4__MIDL___MIDL_itf_UIAnimation_0000_0008_0001@@@Z" PURGE="-1" COMMENT="" />
