<?xml version="1.0" encoding="UTF-8"?>
<LIBRARY NAME="mfc110.dll" PATH="mfc110.dll" DATE="?" VERSION="?">
    <EXPORT ORDINAL="14334" NAME="?wndTopMost@CWnd@@2V1@B" PURGE="-1" COMMENT="" />
    <EXPORT ORDINAL="14333" NAME="?wndTop@CWnd@@2V1@B" PURGE="-1" COMMENT="" />
    <EXPORT ORDINAL="14332" NAME="?wndNoTopMost@CWnd@@2V1@B" PURGE="-1" COMMENT="" />
    <EXPORT ORDINAL="14331" NAME="?wndBottom@CWnd@@2V1@B" PURGE="-1" COMMENT="" />
    <EXPORT ORDINAL="13975" NAME="?sizeDefault@CScrollView@@2UtagSIZE@@B" PURGE="-1" COMMENT="" />
    <EXPORT ORDINAL="12271" NAME="?rectDefault@CFrameWnd@@2VCRect@@B" PURGE="-1" COMMENT="" />
    <EXPORT ORDINAL="12041" NAME="?put_accValue@XAccessible@CWnd@@UAGJUtagVARIANT@@PA_W@Z" PURGE="-1" COMMENT="" />
    <EXPORT ORDINAL="12040" NAME="?put_accValue@CWnd@@UAEJUtagVARIANT@@PA_W@Z" PURGE="-1" COMMENT="" />
    <EXPORT ORDINAL="12039" NAME="?put_accName@XAccessible@CWnd@@UAGJUtagVARIANT@@PA_W@Z" PURGE="-1" COMMENT="" />
    <EXPORT ORDINAL="12038" NAME="?put_accName@CWnd@@UAEJUtagVARIANT@@PA_W@Z" PURGE="-1" COMMENT="" />
    <EXPORT ORDINAL="8685" NAME="?nScrollInterval@COleDropTarget@@1IA" PURGE="-1" COMMENT="" />
    <EXPORT ORDINAL="8684" NAME="?nScrollInset@COleDropTarget@@1HA" PURGE="-1" COMMENT="" />
    <EXPORT ORDINAL="8683" NAME="?nScrollDelay@COleDropTarget@@1IA" PURGE="-1" COMMENT="" />
    <EXPORT ORDINAL="8657" NAME="?nMaxSize@CEditView@@2IB" PURGE="-1" COMMENT="" />
    <EXPORT ORDINAL="8641" NAME="?nDragMinDist@COleDropSource@@1IA" PURGE="-1" COMMENT="" />
    <EXPORT ORDINAL="8640" NAME="?nDragDelay@COleDropSource@@1IA" PURGE="-1" COMMENT="" />
    <EXPORT ORDINAL="8521" NAME="?m_uiShowBarDelay@CMFCDropDownToolbarButton@@2IA" PURGE="-1" COMMENT="" />
    <EXPORT ORDINAL="8520" NAME="?m_uiPopupTimerDelay@CMFCPopupMenuBar@@1IA" PURGE="-1" COMMENT="" />
    <EXPORT ORDINAL="8517" NAME="?m_strStylePrefix@CMFCVisualManagerOffice2007@@1V?$CStringT@DV?$StrTraitMFC_DLL@DV?$ChTraitsCRT@D@ATL@@@@@ATL@@A" PURGE="-1" COMMENT="" />
    <EXPORT ORDINAL="8516" NAME="?m_strClipboardFormatName@CMFCToolBarButton@@2V?$CStringT@DV?$StrTraitMFC_DLL@DV?$ChTraitsCRT@D@ATL@@@@@ATL@@A" PURGE="-1" COMMENT="" />
    <EXPORT ORDINAL="8515" NAME="?m_strClassName@CMFCRibbonKeyTip@@1V?$CStringT@DV?$StrTraitMFC_DLL@DV?$ChTraitsCRT@D@ATL@@@@@ATL@@A" PURGE="-1" COMMENT="" />
    <EXPORT ORDINAL="8514" NAME="?m_strClassName@CMFCPropertyGridToolTipCtrl@@1V?$CStringT@DV?$StrTraitMFC_DLL@DV?$ChTraitsCRT@D@ATL@@@@@ATL@@A" PURGE="-1" COMMENT="" />
    <EXPORT ORDINAL="8513" NAME="?m_strClassName@CMFCDropDownFrame@@1V?$CStringT@DV?$StrTraitMFC_DLL@DV?$ChTraitsCRT@D@ATL@@@@@ATL@@A" PURGE="-1" COMMENT="" />
    <EXPORT ORDINAL="8512" NAME="?m_sizeMenuImage@CMFCToolBar@@1VCSize@@A" PURGE="-1" COMMENT="" />
    <EXPORT ORDINAL="8511" NAME="?m_sizeMenuButton@CMFCToolBar@@1VCSize@@A" PURGE="-1" COMMENT="" />
    <EXPORT ORDINAL="8510" NAME="?m_sizeImage@CMFCToolBar@@1VCSize@@A" PURGE="-1" COMMENT="" />
    <EXPORT ORDINAL="8509" NAME="?m_sizeDragSensitivity@CDockablePane@@1VCSize@@A" PURGE="-1" COMMENT="" />
    <EXPORT ORDINAL="8508" NAME="?m_sizeCurImage@CMFCToolBar@@1VCSize@@A" PURGE="-1" COMMENT="" />
    <EXPORT ORDINAL="8507" NAME="?m_sizeCurButton@CMFCToolBar@@1VCSize@@A" PURGE="-1" COMMENT="" />
    <EXPORT ORDINAL="8506" NAME="?m_sizeButton@CMFCToolBar@@1VCSize@@A" PURGE="-1" COMMENT="" />
    <EXPORT ORDINAL="8499" NAME="?m_ptMenuLastPos@CMFCToolBarsMenuPropertyPage@@1VCPoint@@A" PURGE="-1" COMMENT="" />
    <EXPORT ORDINAL="8503" NAME="?m_pWndToolBar@CMFCCustomizeMenuButton@@1PAVCMFCToolBar@@A" PURGE="-1" COMMENT="" />
    <EXPORT ORDINAL="8501" NAME="?m_pVisManager@CMFCVisualManager@@1PAV1@A" PURGE="-1" COMMENT="" />
    <EXPORT ORDINAL="8500" NAME="?m_pUserImages@CMFCToolBar@@1PAVCMFCToolBarImages@@A" PURGE="-1" COMMENT="" />
    <EXPORT ORDINAL="8498" NAME="?m_pTabWndRTC@CTabbedPane@@2PAUCRuntimeClass@@A" PURGE="-1" COMMENT="" />
    <EXPORT ORDINAL="8497" NAME="?m_pSliderRTC@CPaneDivider@@2PAUCRuntimeClass@@A" PURGE="-1" COMMENT="" />
    <EXPORT ORDINAL="8496" NAME="?m_pSelToolbar@CMFCToolBar@@1PAV1@A" PURGE="-1" COMMENT="" />
    <EXPORT ORDINAL="8495" NAME="?m_pRTIDefault@CSettingsStoreSP@@1PAUCRuntimeClass@@A" PURGE="-1" COMMENT="" />
    <EXPORT ORDINAL="8494" NAME="?m_pRTIDefault@CMFCVisualManager@@1PAUCRuntimeClass@@A" PURGE="-1" COMMENT="" />
    <EXPORT ORDINAL="8493" NAME="?m_pParentWndForSerialize@CPaneFrameWnd@@1PAVCFrameWnd@@A" PURGE="-1" COMMENT="" />
    <EXPORT ORDINAL="8492" NAME="?m_pMenuDlgImpl@CDialogImpl@@1PAV1@A" PURGE="-1" COMMENT="" />
    <EXPORT ORDINAL="8491" NAME="?m_pLastHookedToolbar@CMFCToolBar@@1PAV1@A" PURGE="-1" COMMENT="" />
    <EXPORT ORDINAL="8488" NAME="?m_pCurrent@CMFCRibbonMiniToolBar@@1PAV1@A" PURGE="-1" COMMENT="" />
    <EXPORT ORDINAL="8487" NAME="?m_pContextMenu2@CMFCShellTreeCtrl@@1PAUIContextMenu2@@A" PURGE="-1" COMMENT="" />
    <EXPORT ORDINAL="8486" NAME="?m_pContextMenu2@CMFCShellListCtrl@@1PAUIContextMenu2@@A" PURGE="-1" COMMENT="" />
    <EXPORT ORDINAL="8485" NAME="?m_pContainerManagerRTC@CPaneDivider@@2PAUCRuntimeClass@@A" PURGE="-1" COMMENT="" />
    <EXPORT ORDINAL="8484" NAME="?m_pAutoHideToolbarRTC@CDockingManager@@2PAUCRuntimeClass@@A" PURGE="-1" COMMENT="" />
    <EXPORT ORDINAL="8483" NAME="?m_pAutoHideButtonRTS@CMFCAutoHideBar@@2PAUCRuntimeClass@@A" PURGE="-1" COMMENT="" />
    <EXPORT ORDINAL="8482" NAME="?m_pActivePopupMenu@CMFCPopupMenu@@1PAV1@A" PURGE="-1" COMMENT="" />
    <EXPORT ORDINAL="8481" NAME="?m_nTopOffsetY@CSmartDockingStandaloneGuide@@1HB" PURGE="-1" COMMENT="" />
    <EXPORT ORDINAL="8480" NAME="?m_nTimeOutBeforeToolBarDock@CDockingManager@@2IA" PURGE="-1" COMMENT="" />
    <EXPORT ORDINAL="8479" NAME="?m_nTimeOutBeforeDockingBarDock@CDockingManager@@2IA" PURGE="-1" COMMENT="" />
    <EXPORT ORDINAL="8478" NAME="?m_nTimeOutBeforeAutoHide@CDockablePane@@2HA" PURGE="-1" COMMENT="" />
    <EXPORT ORDINAL="8477" NAME="?m_nTextSizeNoIcon@CMFCAutoHideButton@@2HA" PURGE="-1" COMMENT="" />
    <EXPORT ORDINAL="8476" NAME="?m_nTextMargin@CMFCAutoHideButton@@2HA" PURGE="-1" COMMENT="" />
    <EXPORT ORDINAL="8475" NAME="?m_nStartCount@CMFCCmdUsageCount@@1IA" PURGE="-1" COMMENT="" />
    <EXPORT ORDINAL="8474" NAME="?m_nSlideSteps@CDockablePane@@2HA" PURGE="-1" COMMENT="" />
    <EXPORT ORDINAL="8473" NAME="?m_nSlideDefaultTimeOut@CDockablePane@@1HA" PURGE="-1" COMMENT="" />
    <EXPORT ORDINAL="8472" NAME="?m_nShowAHWndDelay@CMFCAutoHideBar@@2HA" PURGE="-1" COMMENT="" />
    <EXPORT ORDINAL="8471" NAME="?m_nScrollTimerDuration@CMFCTasksPane@@1HB" PURGE="-1" COMMENT="" />
    <EXPORT ORDINAL="8470" NAME="?m_nRollTimeOut@CPaneFrameWnd@@2IA" PURGE="-1" COMMENT="" />
    <EXPORT ORDINAL="8469" NAME="?m_nRightOffsetX@CSmartDockingStandaloneGuide@@1HB" PURGE="-1" COMMENT="" />
    <EXPORT ORDINAL="8468" NAME="?m_nNextPanelID@CMFCRibbonPanel@@1IA" PURGE="-1" COMMENT="" />
    <EXPORT ORDINAL="8467" NAME="?m_nMinWidth@CMFCPopupMenu@@1HA" PURGE="-1" COMMENT="" />
    <EXPORT ORDINAL="8466" NAME="?m_nMinUsagePercentage@CMFCCmdUsageCount@@1IA" PURGE="-1" COMMENT="" />
    <EXPORT ORDINAL="8465" NAME="?m_nMarginSize@CMFCAutoHideButton@@2HA" PURGE="-1" COMMENT="" />
    <EXPORT ORDINAL="8464" NAME="?m_nLeftOffsetX@CSmartDockingStandaloneGuide@@1HB" PURGE="-1" COMMENT="" />
    <EXPORT ORDINAL="8463" NAME="?m_nLastCommandIndex@CMFCPopupMenuBar@@1HA" PURGE="-1" COMMENT="" />
    <EXPORT ORDINAL="8462" NAME="?m_nLastAnimTime@CMFCTasksPane@@1JA" PURGE="-1" COMMENT="" />
    <EXPORT ORDINAL="8461" NAME="?m_nGrayImagePercentage@CMFCToolBar@@1HA" PURGE="-1" COMMENT="" />
    <EXPORT ORDINAL="8460" NAME="?m_nFontHeight@CMFCToolBarFontComboBox@@2HA" PURGE="-1" COMMENT="" />
    <EXPORT ORDINAL="8459" NAME="?m_nFadedImageAlpha@CMFCToolBarImages@@1EA" PURGE="-1" COMMENT="" />
    <EXPORT ORDINAL="8458" NAME="?m_nExtraSpace@CAutoHideDockSite@@1HA" PURGE="-1" COMMENT="" />
    <EXPORT ORDINAL="8457" NAME="?m_nDockSensitivity@CDockingManager@@2HA" PURGE="-1" COMMENT="" />
    <EXPORT ORDINAL="8456" NAME="?m_nDisabledImageAlpha@CMFCToolBarImages@@1EA" PURGE="-1" COMMENT="" />
    <EXPORT ORDINAL="8455" NAME="?m_nDefaultWidth@CPaneDivider@@2HA" PURGE="-1" COMMENT="" />
    <EXPORT ORDINAL="8454" NAME="?m_nCount@CMFCToolBarFontComboBox@@1HA" PURGE="-1" COMMENT="" />
    <EXPORT ORDINAL="8453" NAME="?m_nButtonMarginVert@CMFCCaptionButton@@2HA" PURGE="-1" COMMENT="" />
    <EXPORT ORDINAL="8452" NAME="?m_nButtonMargin@CMFCCaptionButton@@2HA" PURGE="-1" COMMENT="" />
    <EXPORT ORDINAL="8451" NAME="?m_nBottomOffsetY@CSmartDockingStandaloneGuide@@1HB" PURGE="-1" COMMENT="" />
    <EXPORT ORDINAL="8450" NAME="?m_nBorderSize@CMFCAutoHideButton@@2HA" PURGE="-1" COMMENT="" />
    <EXPORT ORDINAL="8449" NAME="?m_nAnimTimerDuration@CMFCTasksPane@@1HB" PURGE="-1" COMMENT="" />
    <EXPORT ORDINAL="8448" NAME="?m_nAccelSize@CKeyboardManager@@1HA" PURGE="-1" COMMENT="" />
    <EXPORT ORDINAL="8447" NAME="?m_nAccelDefaultSize@CKeyboardManager@@1HA" PURGE="-1" COMMENT="" />
    <EXPORT ORDINAL="8445" NAME="?m_mapSelectedItems@CMFCRibbonGallery@@1V?$CMap@IIHH@@A" PURGE="-1" COMMENT="" />
    <EXPORT ORDINAL="8444" NAME="?m_mapPresentIDs@CMFCCustomizeMenuButton@@2V?$CMap@IIHH@@A" PURGE="-1" COMMENT="" />
    <EXPORT ORDINAL="8443" NAME="?m_mapFloatingBars@CPaneFrameWnd@@1V?$CMap@IIPAUHWND__@@PAU1@@@A" PURGE="-1" COMMENT="" />
    <EXPORT ORDINAL="8442" NAME="?m_mapDocIcons@CMFCTabCtrl@@1V?$CMap@IIPAUHICON__@@PAU1@@@A" PURGE="-1" COMMENT="" />
    <EXPORT ORDINAL="8441" NAME="?m_lstUnpermittedCommands@CMFCToolBar@@1V?$CList@II@@A" PURGE="-1" COMMENT="" />
    <EXPORT ORDINAL="8440" NAME="?m_lstTabbedControlBars@CTabbedPane@@1V?$CList@PAUHWND__@@PAU1@@@A" PURGE="-1" COMMENT="" />
    <EXPORT ORDINAL="8439" NAME="?m_lstProtectedCommands@CMFCToolBarButton@@1V?$CList@II@@A" PURGE="-1" COMMENT="" />
    <EXPORT ORDINAL="8438" NAME="?m_lstFrames@CFrameImpl@@1V?$CList@PAVCFrameWnd@@PAV1@@@A" PURGE="-1" COMMENT="" />
    <EXPORT ORDINAL="8437" NAME="?m_lstFonts@CMFCToolBarFontComboBox@@1VCObList@@A" PURGE="-1" COMMENT="" />
    <EXPORT ORDINAL="8436" NAME="?m_lstBasicCommands@CMFCToolBar@@1V?$CList@II@@A" PURGE="-1" COMMENT="" />
    <EXPORT ORDINAL="8435" NAME="?m_lpAccelDefault@CKeyboardManager@@1PAUtagACCEL@@A" PURGE="-1" COMMENT="" />
    <EXPORT ORDINAL="8434" NAME="?m_lpAccel@CKeyboardManager@@1PAUtagACCEL@@A" PURGE="-1" COMMENT="" />
    <EXPORT ORDINAL="8422" NAME="?m_hookMouseHelp@CMFCToolBar@@1PAUHHOOK__@@A" PURGE="-1" COMMENT="" />
    <EXPORT ORDINAL="8421" NAME="?m_hookMouse@CDialogImpl@@1PAUHHOOK__@@A" PURGE="-1" COMMENT="" />
    <EXPORT ORDINAL="8420" NAME="?m_hinstRes@CMFCVisualManagerOffice2007@@1PAUHINSTANCE__@@A" PURGE="-1" COMMENT="" />
    <EXPORT ORDINAL="8417" NAME="?m_hAccelLast@CKeyboardManager@@1PAUHACCEL__@@A" PURGE="-1" COMMENT="" />
    <EXPORT ORDINAL="8416" NAME="?m_hAccelDefaultLast@CKeyboardManager@@1PAUHACCEL__@@A" PURGE="-1" COMMENT="" />
    <EXPORT ORDINAL="8415" NAME="?m_dwExcludeStyle@CMDIChildWndEx@@2KA" PURGE="-1" COMMENT="" />
    <EXPORT ORDINAL="8414" NAME="?m_dwDefaultTaskbarTabPropertyFlags@CMDIChildWndEx@@2KA" PURGE="-1" COMMENT="" />
    <EXPORT ORDINAL="8412" NAME="?m_dockModeGlobal@CDockingManager@@1W4AFX_DOCK_TYPE@@A" PURGE="-1" COMMENT="" />
    <EXPORT ORDINAL="8408" NAME="?m_dblLargeImageRatio@CMFCToolBar@@2NA" PURGE="-1" COMMENT="" />
    <EXPORT ORDINAL="8407" NAME="?m_csImage@CMFCOutlookBarPane@@1VCSize@@A" PURGE="-1" COMMENT="" />
    <EXPORT ORDINAL="8403" NAME="?m_clrTextHot@CMFCToolBar@@1KA" PURGE="-1" COMMENT="" />
    <EXPORT ORDINAL="8402" NAME="?m_cFormat@CMFCToolBarButton@@2GA" PURGE="-1" COMMENT="" />
    <EXPORT ORDINAL="8401" NAME="?m_bWrapText@CMFCToolBarButton@@2HA" PURGE="-1" COMMENT="" />
    <EXPORT ORDINAL="8400" NAME="?m_bWinXPThemeWasChecked@CMFCButton@@1HA" PURGE="-1" COMMENT="" />
    <EXPORT ORDINAL="8399" NAME="?m_bWinXPTheme@CMFCButton@@1HA" PURGE="-1" COMMENT="" />
    <EXPORT ORDINAL="8398" NAME="?m_bUseSaveBits@CPaneFrameWnd@@2HA" PURGE="-1" COMMENT="" />
    <EXPORT ORDINAL="8397" NAME="?m_bUseMenuHandle@CMFCRibbonButton@@2HA" PURGE="-1" COMMENT="" />
    <EXPORT ORDINAL="8396" NAME="?m_bUseMemoryDC@CMemDC@@2HA" PURGE="-1" COMMENT="" />
    <EXPORT ORDINAL="8395" NAME="?m_bUseGlobalTheme@CMFCVisualManagerOffice2003@@1HA" PURGE="-1" COMMENT="" />
    <EXPORT ORDINAL="8394" NAME="?m_bUpdateImages@CMFCToolBarButton@@2HA" PURGE="-1" COMMENT="" />
    <EXPORT ORDINAL="8393" NAME="?m_bTabsAlwaysTop@CTabbedPane@@2HA" PURGE="-1" COMMENT="" />
    <EXPORT ORDINAL="8392" NAME="?m_bStatusBarOfficeXPLook@CMFCVisualManagerOffice2003@@1HA" PURGE="-1" COMMENT="" />
    <EXPORT ORDINAL="8391" NAME="?m_bShowTooltips@CMFCToolBar@@1HA" PURGE="-1" COMMENT="" />
    <EXPORT ORDINAL="8390" NAME="?m_bShowShortcutKeys@CMFCToolBar@@1HA" PURGE="-1" COMMENT="" />
    <EXPORT ORDINAL="8389" NAME="?m_bShowAllMenusDelay@CMFCMenuBar@@1HA" PURGE="-1" COMMENT="" />
    <EXPORT ORDINAL="8388" NAME="?m_bShowAllCommands@CMFCMenuBar@@1HA" PURGE="-1" COMMENT="" />
    <EXPORT ORDINAL="8387" NAME="?m_bSetTooltipTopmost@CBasePane@@2HA" PURGE="-1" COMMENT="" />
    <EXPORT ORDINAL="8386" NAME="?m_bSendMenuSelectMsg@CMFCPopupMenu@@1HA" PURGE="-1" COMMENT="" />
    <EXPORT ORDINAL="8384" NAME="?m_bScaleLargeImages@CPreviewViewEx@@1HA" PURGE="-1" COMMENT="" />
    <EXPORT ORDINAL="8383" NAME="?m_bSavingState@CDockingManager@@2HA" PURGE="-1" COMMENT="" />
    <EXPORT ORDINAL="8385" NAME="?m_bSDParamsModified@CDockingManager@@1HA" PURGE="-1" COMMENT="" />
    <EXPORT ORDINAL="8382" NAME="?m_bRoundedAutohideButtons@CMFCVisualManagerVS2005@@2HA" PURGE="-1" COMMENT="" />
    <EXPORT ORDINAL="8381" NAME="?m_bRetainInternalSliderPosition@CPaneContainer@@2HA" PURGE="-1" COMMENT="" />
    <EXPORT ORDINAL="8380" NAME="?m_bRestoringDockState@CDockingManager@@2HA" PURGE="-1" COMMENT="" />
    <EXPORT ORDINAL="8379" NAME="?m_bRecentlyUsedOld@CMFCCustomizeMenuButton@@2HA" PURGE="-1" COMMENT="" />
    <EXPORT ORDINAL="8378" NAME="?m_bRecentlyUsedMenus@CMFCMenuBar@@1HA" PURGE="-1" COMMENT="" />
    <EXPORT ORDINAL="8377" NAME="?m_bOverlappingTabs@CMFCAutoHideButton@@2HA" PURGE="-1" COMMENT="" />
    <EXPORT ORDINAL="8376" NAME="?m_bMultiThreaded@CMFCToolBarImages@@2HA" PURGE="-1" COMMENT="" />
    <EXPORT ORDINAL="8375" NAME="?m_bMultiThreaded@CBasePane@@2HA" PURGE="-1" COMMENT="" />
    <EXPORT ORDINAL="8374" NAME="?m_bMenuSound@CMFCPopupMenu@@1HA" PURGE="-1" COMMENT="" />
    <EXPORT ORDINAL="8373" NAME="?m_bMenuShadows@CMFCMenuBar@@1HA" PURGE="-1" COMMENT="" />
    <EXPORT ORDINAL="8372" NAME="?m_bMaintainPercentage@CPaneContainer@@2HA" PURGE="-1" COMMENT="" />
    <EXPORT ORDINAL="8371" NAME="?m_bLargeIcons@CMFCToolBar@@1HA" PURGE="-1" COMMENT="" />
    <EXPORT ORDINAL="8370" NAME="?m_bIsTabsAutoColor@CTabbedPane@@1HA" PURGE="-1" COMMENT="" />
    <EXPORT ORDINAL="8369" NAME="?m_bIsRTL@CMFCToolBarImages@@1HA" PURGE="-1" COMMENT="" />
    <EXPORT ORDINAL="8368" NAME="?m_bIsDrawOnGlass@CMFCToolBarImages@@2HA" PURGE="-1" COMMENT="" />
    <EXPORT ORDINAL="8367" NAME="?m_bIgnoreLargeIconsMode@CMFCCustomizeButton@@2HA" PURGE="-1" COMMENT="" />
    <EXPORT ORDINAL="8366" NAME="?m_bIgnoreEnabledAlignment@CDockingManager@@2HA" PURGE="-1" COMMENT="" />
    <EXPORT ORDINAL="8365" NAME="?m_bHighlightDisabledItems@CMFCMenuBar@@1HA" PURGE="-1" COMMENT="" />
    <EXPORT ORDINAL="8364" NAME="?m_bHideInAutoHideMode@CDockablePane@@2HA" PURGE="-1" COMMENT="" />
    <EXPORT ORDINAL="8362" NAME="?m_bHandleMinSize@CPane@@2HA" PURGE="-1" COMMENT="" />
    <EXPORT ORDINAL="8361" NAME="?m_bFullScreenMode@CDockingManager@@2HA" PURGE="-1" COMMENT="" />
    <EXPORT ORDINAL="8360" NAME="?m_bForceShadow@CMFCPopupMenu@@1HA" PURGE="-1" COMMENT="" />
    <EXPORT ORDINAL="8359" NAME="?m_bForceMenuFocus@CMFCPopupMenu@@1HA" PURGE="-1" COMMENT="" />
    <EXPORT ORDINAL="8358" NAME="?m_bFlat@CMFCToolBarEditBoxButton@@1HA" PURGE="-1" COMMENT="" />
    <EXPORT ORDINAL="8357" NAME="?m_bFlat@CMFCToolBarComboBoxButton@@1HA" PURGE="-1" COMMENT="" />
    <EXPORT ORDINAL="8356" NAME="?m_bExtCharTranslation@CMFCToolBar@@2HA" PURGE="-1" COMMENT="" />
    <EXPORT ORDINAL="8355" NAME="?m_bEnableFloatingBars@CMDIChildWndEx@@2HA" PURGE="-1" COMMENT="" />
    <EXPORT ORDINAL="8354" NAME="?m_bEnableAnimation@CMFCOutlookBarTabCtrl@@1HA" PURGE="-1" COMMENT="" />
    <EXPORT ORDINAL="8353" NAME="?m_bEnableActivate@CMFCTabCtrl@@2HA" PURGE="-1" COMMENT="" />
    <EXPORT ORDINAL="8352" NAME="?m_bDrawUsingFont@CMFCRibbonFontComboBox@@2HA" PURGE="-1" COMMENT="" />
    <EXPORT ORDINAL="8351" NAME="?m_bDrawUsingFont@CMFCFontComboBox@@2HA" PURGE="-1" COMMENT="" />
    <EXPORT ORDINAL="8350" NAME="?m_bDontScaleImages@CMFCToolBar@@2HA" PURGE="-1" COMMENT="" />
    <EXPORT ORDINAL="8349" NAME="?m_bDockBarMenu@CDockingManager@@1HA" PURGE="-1" COMMENT="" />
    <EXPORT ORDINAL="8348" NAME="?m_bDisableTrueColorAlpha@CMFCToolBarImages@@2HA" PURGE="-1" COMMENT="" />
    <EXPORT ORDINAL="8347" NAME="?m_bDisableSetRedraw@CMDIFrameWndEx@@2HA" PURGE="-1" COMMENT="" />
    <EXPORT ORDINAL="8346" NAME="?m_bDisableRecalcLayout@CDockingManager@@2HA" PURGE="-1" COMMENT="" />
    <EXPORT ORDINAL="8345" NAME="?m_bDisableLabelsEdit@CMFCToolBar@@2HA" PURGE="-1" COMMENT="" />
    <EXPORT ORDINAL="8344" NAME="?m_bDisableAnimation@CDockablePane@@2HA" PURGE="-1" COMMENT="" />
    <EXPORT ORDINAL="8343" NAME="?m_bDefaultWinXPColors@CMFCVisualManagerOffice2003@@1HA" PURGE="-1" COMMENT="" />
    <EXPORT ORDINAL="8341" NAME="?m_bCustomizeMode@CMFCToolBar@@1HA" PURGE="-1" COMMENT="" />
    <EXPORT ORDINAL="8340" NAME="?m_bControlBarExtraPixel@CFrameImpl@@2HA" PURGE="-1" COMMENT="" />
    <EXPORT ORDINAL="8339" NAME="?m_bCenterVert@CMFCToolBarComboBoxButton@@1HA" PURGE="-1" COMMENT="" />
    <EXPORT ORDINAL="8337" NAME="?m_bAutoGrayInactiveImages@CMFCToolBar@@1HA" PURGE="-1" COMMENT="" />
    <EXPORT ORDINAL="8336" NAME="?m_bAutoFreeRes@CMFCVisualManagerOffice2007@@1HA" PURGE="-1" COMMENT="" />
    <EXPORT ORDINAL="8335" NAME="?m_bAlwaysShowEmptyToolsEntry@CMFCPopupMenu@@1HA" PURGE="-1" COMMENT="" />
    <EXPORT ORDINAL="8334" NAME="?m_bAlwaysCallOwnerDraw@CMFCToolBarMenuButton@@2HA" PURGE="-1" COMMENT="" />
    <EXPORT ORDINAL="8333" NAME="?m_bAltCustomizeMode@CMFCToolBar@@1HA" PURGE="-1" COMMENT="" />
    <EXPORT ORDINAL="8332" NAME="?m_bAltCustomization@CMFCToolBar@@1HA" PURGE="-1" COMMENT="" />
    <EXPORT ORDINAL="8331" NAME="?m_bAllAccelerators@CKeyboardManager@@1HA" PURGE="-1" COMMENT="" />
    <EXPORT ORDINAL="8330" NAME="?m_b3DTabsXPTheme@CMFCVisualManagerWindows@@2HA" PURGE="-1" COMMENT="" />
    <EXPORT ORDINAL="8329" NAME="?m_arTabsAutoColors@CTabbedPane@@1V?$CArray@KK@@A" PURGE="-1" COMMENT="" />
    <EXPORT ORDINAL="8326" NAME="?m_ahSlideModeGlobal@CDockingManager@@2IA" PURGE="-1" COMMENT="" />
    <EXPORT ORDINAL="8522" NAME="?m_UsageCount@CMFCToolBar@@1VCMFCCmdUsageCount@@A" PURGE="-1" COMMENT="" />
    <EXPORT ORDINAL="8519" NAME="?m_StyleTabWnd@CTabbedPane@@2W4Style@CMFCTabCtrl@@A" PURGE="-1" COMMENT="" />
    <EXPORT ORDINAL="8518" NAME="?m_Style@CMFCVisualManagerOffice2007@@1W4Style@1@A" PURGE="-1" COMMENT="" />
    <EXPORT ORDINAL="8505" NAME="?m_SDParams@CDockingManager@@1VCSmartDockingInfo@@A" PURGE="-1" COMMENT="" />
    <EXPORT ORDINAL="8446" NAME="?m_MenuImages@CMFCToolBar@@1VCMFCToolBarImages@@A" PURGE="-1" COMMENT="" />
    <EXPORT ORDINAL="8433" NAME="?m_LargeImages@CMFCToolBar@@1VCMFCToolBarImages@@A" PURGE="-1" COMMENT="" />
    <EXPORT ORDINAL="8432" NAME="?m_LargeDisabledImages@CMFCToolBar@@1VCMFCToolBarImages@@A" PURGE="-1" COMMENT="" />
    <EXPORT ORDINAL="8431" NAME="?m_LargeColdImages@CMFCToolBar@@1VCMFCToolBarImages@@A" PURGE="-1" COMMENT="" />
    <EXPORT ORDINAL="8430" NAME="?m_ImagesWhite@CMenuImages@@1VCMFCToolBarImages@@A" PURGE="-1" COMMENT="" />
    <EXPORT ORDINAL="8429" NAME="?m_ImagesLtGray@CMenuImages@@1VCMFCToolBarImages@@A" PURGE="-1" COMMENT="" />
    <EXPORT ORDINAL="8428" NAME="?m_ImagesGray@CMenuImages@@1VCMFCToolBarImages@@A" PURGE="-1" COMMENT="" />
    <EXPORT ORDINAL="8427" NAME="?m_ImagesDkGray@CMenuImages@@1VCMFCToolBarImages@@A" PURGE="-1" COMMENT="" />
    <EXPORT ORDINAL="8425" NAME="?m_ImagesBlack@CMenuImages@@1VCMFCToolBarImages@@A" PURGE="-1" COMMENT="" />
    <EXPORT ORDINAL="8426" NAME="?m_ImagesBlack2@CMenuImages@@1VCMFCToolBarImages@@A" PURGE="-1" COMMENT="" />
    <EXPORT ORDINAL="8424" NAME="?m_Images@CMFCToolBar@@1VCMFCToolBarImages@@A" PURGE="-1" COMMENT="" />
    <EXPORT ORDINAL="8423" NAME="?m_Images@CMFCOutlookBarPane@@1VCMFCToolBarImages@@A" PURGE="-1" COMMENT="" />
    <EXPORT ORDINAL="8413" NAME="?m_DropSource@CMFCToolBar@@1VCMFCToolBarDropSource@@A" PURGE="-1" COMMENT="" />
    <EXPORT ORDINAL="8411" NAME="?m_DisabledMenuImages@CMFCToolBar@@1VCMFCToolBarImages@@A" PURGE="-1" COMMENT="" />
    <EXPORT ORDINAL="8410" NAME="?m_DisabledImages@CMFCToolBar@@1VCMFCToolBarImages@@A" PURGE="-1" COMMENT="" />
    <EXPORT ORDINAL="8409" NAME="?m_DefaultImages@CMFCToolBar@@1V?$CMap@IIHH@@A" PURGE="-1" COMMENT="" />
    <EXPORT ORDINAL="8406" NAME="?m_ColorsByID@CMFCColorMenuButton@@1V?$CMap@IIKK@@A" PURGE="-1" COMMENT="" />
    <EXPORT ORDINAL="8405" NAME="?m_ColorNames@CMFCColorBar@@1V?$CMap@KKV?$CStringT@DV?$StrTraitMFC_DLL@DV?$ChTraitsCRT@D@ATL@@@@@ATL@@PBD@@A" PURGE="-1" COMMENT="" />
    <EXPORT ORDINAL="8404" NAME="?m_ColdImages@CMFCToolBar@@1VCMFCToolBarImages@@A" PURGE="-1" COMMENT="" />
    <EXPORT ORDINAL="8328" NAME="?m_AnimationType@CMFCPopupMenu@@1W4ANIMATION_TYPE@1@A" PURGE="-1" COMMENT="" />
    <EXPORT ORDINAL="8327" NAME="?m_AnimationSpeed@CMFCPopupMenu@@1IA" PURGE="-1" COMMENT="" />
    <EXPORT ORDINAL="8171" NAME="?lMaxSize@CRichEditView@@2KA" PURGE="-1" COMMENT="" />
    <EXPORT ORDINAL="7672" NAME="?hFileNull@CFile@@2QAXA" PURGE="-1" COMMENT="" />
    <EXPORT ORDINAL="4890" NAME="?get_accValue@XAccessible@CWnd@@UAGJUtagVARIANT@@PAPA_W@Z" PURGE="-1" COMMENT="" />
    <EXPORT ORDINAL="4889" NAME="?get_accValue@CWnd@@UAEJUtagVARIANT@@PAPA_W@Z" PURGE="-1" COMMENT="" />
    <EXPORT ORDINAL="4888" NAME="?get_accValue@CMFCPropertyGridCtrl@@UAEJUtagVARIANT@@PAPA_W@Z" PURGE="-1" COMMENT="" />
    <EXPORT ORDINAL="4887" NAME="?get_accValue@CBasePane@@UAEJUtagVARIANT@@PAPA_W@Z" PURGE="-1" COMMENT="" />
    <EXPORT ORDINAL="4886" NAME="?get_accState@XAccessible@CWnd@@UAGJUtagVARIANT@@PAU3@@Z" PURGE="-1" COMMENT="" />
    <EXPORT ORDINAL="4885" NAME="?get_accState@CWnd@@UAEJUtagVARIANT@@PAU2@@Z" PURGE="-1" COMMENT="" />
    <EXPORT ORDINAL="4884" NAME="?get_accState@CMFCPropertyGridCtrl@@UAEJUtagVARIANT@@PAU2@@Z" PURGE="-1" COMMENT="" />
    <EXPORT ORDINAL="14467" NAME="?get_accState@CMFCPopupMenuBar@@UAEJUtagVARIANT@@PAU2@@Z" PURGE="-1" COMMENT="" />
    <EXPORT ORDINAL="14466" NAME="?get_accState@CMFCPopupMenu@@MAEJUtagVARIANT@@PAU2@@Z" PURGE="-1" COMMENT="" />
    <EXPORT ORDINAL="4883" NAME="?get_accState@CMFCButton@@UAEJUtagVARIANT@@PAU2@@Z" PURGE="-1" COMMENT="" />
    <EXPORT ORDINAL="4882" NAME="?get_accState@CCheckListBox@@MAEJUtagVARIANT@@PAU2@@Z" PURGE="-1" COMMENT="" />
    <EXPORT ORDINAL="4881" NAME="?get_accState@CBasePane@@UAEJUtagVARIANT@@PAU2@@Z" PURGE="-1" COMMENT="" />
    <EXPORT ORDINAL="4880" NAME="?get_accSelection@XAccessible@CWnd@@UAGJPAUtagVARIANT@@@Z" PURGE="-1" COMMENT="" />
    <EXPORT ORDINAL="4879" NAME="?get_accSelection@CWnd@@UAEJPAUtagVARIANT@@@Z" PURGE="-1" COMMENT="" />
    <EXPORT ORDINAL="4878" NAME="?get_accSelection@CMFCPropertyGridCtrl@@UAEJPAUtagVARIANT@@@Z" PURGE="-1" COMMENT="" />
    <EXPORT ORDINAL="4877" NAME="?get_accSelection@CBasePane@@UAEJPAUtagVARIANT@@@Z" PURGE="-1" COMMENT="" />
    <EXPORT ORDINAL="4876" NAME="?get_accRole@XAccessible@CWnd@@UAGJUtagVARIANT@@PAU3@@Z" PURGE="-1" COMMENT="" />
    <EXPORT ORDINAL="4875" NAME="?get_accRole@CWnd@@UAEJUtagVARIANT@@PAU2@@Z" PURGE="-1" COMMENT="" />
    <EXPORT ORDINAL="4874" NAME="?get_accRole@CMFCPropertyGridCtrl@@UAEJUtagVARIANT@@PAU2@@Z" PURGE="-1" COMMENT="" />
    <EXPORT ORDINAL="14465" NAME="?get_accRole@CMFCPopupMenuBar@@UAEJUtagVARIANT@@PAU2@@Z" PURGE="-1" COMMENT="" />
    <EXPORT ORDINAL="14464" NAME="?get_accRole@CMFCPopupMenu@@MAEJUtagVARIANT@@PAU2@@Z" PURGE="-1" COMMENT="" />
    <EXPORT ORDINAL="4873" NAME="?get_accRole@CCheckListBox@@MAEJUtagVARIANT@@PAU2@@Z" PURGE="-1" COMMENT="" />
    <EXPORT ORDINAL="4872" NAME="?get_accRole@CBasePane@@UAEJUtagVARIANT@@PAU2@@Z" PURGE="-1" COMMENT="" />
    <EXPORT ORDINAL="4871" NAME="?get_accParent@XAccessible@CWnd@@UAGJPAPAUIDispatch@@@Z" PURGE="-1" COMMENT="" />
    <EXPORT ORDINAL="4870" NAME="?get_accParent@CWnd@@UAEJPAPAUIDispatch@@@Z" PURGE="-1" COMMENT="" />
    <EXPORT ORDINAL="14463" NAME="?get_accParent@CMFCPopupMenu@@MAEJPAPAUIDispatch@@@Z" PURGE="-1" COMMENT="" />
    <EXPORT ORDINAL="4869" NAME="?get_accParent@CBasePane@@UAEJPAPAUIDispatch@@@Z" PURGE="-1" COMMENT="" />
    <EXPORT ORDINAL="4868" NAME="?get_accName@XAccessible@CWnd@@UAGJUtagVARIANT@@PAPA_W@Z" PURGE="-1" COMMENT="" />
    <EXPORT ORDINAL="4867" NAME="?get_accName@CWnd@@UAEJUtagVARIANT@@PAPA_W@Z" PURGE="-1" COMMENT="" />
    <EXPORT ORDINAL="4866" NAME="?get_accName@CToolBar@@UAEJUtagVARIANT@@PAPA_W@Z" PURGE="-1" COMMENT="" />
    <EXPORT ORDINAL="4865" NAME="?get_accName@CMFCPropertyGridCtrl@@UAEJUtagVARIANT@@PAPA_W@Z" PURGE="-1" COMMENT="" />
    <EXPORT ORDINAL="14462" NAME="?get_accName@CMFCPopupMenu@@MAEJUtagVARIANT@@PAPA_W@Z" PURGE="-1" COMMENT="" />
    <EXPORT ORDINAL="4864" NAME="?get_accName@CBasePane@@UAEJUtagVARIANT@@PAPA_W@Z" PURGE="-1" COMMENT="" />
    <EXPORT ORDINAL="4863" NAME="?get_accKeyboardShortcut@XAccessible@CWnd@@UAGJUtagVARIANT@@PAPA_W@Z" PURGE="-1" COMMENT="" />
    <EXPORT ORDINAL="4862" NAME="?get_accKeyboardShortcut@CWnd@@UAEJUtagVARIANT@@PAPA_W@Z" PURGE="-1" COMMENT="" />
    <EXPORT ORDINAL="4861" NAME="?get_accKeyboardShortcut@CMFCPropertyGridCtrl@@UAEJUtagVARIANT@@PAPA_W@Z" PURGE="-1" COMMENT="" />
    <EXPORT ORDINAL="4860" NAME="?get_accKeyboardShortcut@CBasePane@@UAEJUtagVARIANT@@PAPA_W@Z" PURGE="-1" COMMENT="" />
    <EXPORT ORDINAL="4859" NAME="?get_accHelpTopic@XAccessible@CWnd@@UAGJPAPA_WUtagVARIANT@@PAJ@Z" PURGE="-1" COMMENT="" />
    <EXPORT ORDINAL="4858" NAME="?get_accHelpTopic@CWnd@@UAEJPAPA_WUtagVARIANT@@PAJ@Z" PURGE="-1" COMMENT="" />
    <EXPORT ORDINAL="4857" NAME="?get_accHelpTopic@CMFCPropertyGridCtrl@@UAEJPAPA_WUtagVARIANT@@PAJ@Z" PURGE="-1" COMMENT="" />
    <EXPORT ORDINAL="4856" NAME="?get_accHelpTopic@CBasePane@@UAEJPAPA_WUtagVARIANT@@PAJ@Z" PURGE="-1" COMMENT="" />
    <EXPORT ORDINAL="4855" NAME="?get_accHelp@XAccessible@CWnd@@UAGJUtagVARIANT@@PAPA_W@Z" PURGE="-1" COMMENT="" />
    <EXPORT ORDINAL="4854" NAME="?get_accHelp@CWnd@@UAEJUtagVARIANT@@PAPA_W@Z" PURGE="-1" COMMENT="" />
    <EXPORT ORDINAL="4853" NAME="?get_accHelp@CMFCPropertyGridCtrl@@UAEJUtagVARIANT@@PAPA_W@Z" PURGE="-1" COMMENT="" />
    <EXPORT ORDINAL="4852" NAME="?get_accHelp@CBasePane@@UAEJUtagVARIANT@@PAPA_W@Z" PURGE="-1" COMMENT="" />
    <EXPORT ORDINAL="4851" NAME="?get_accFocus@XAccessible@CWnd@@UAGJPAUtagVARIANT@@@Z" PURGE="-1" COMMENT="" />
    <EXPORT ORDINAL="4850" NAME="?get_accFocus@CWnd@@UAEJPAUtagVARIANT@@@Z" PURGE="-1" COMMENT="" />
    <EXPORT ORDINAL="4849" NAME="?get_accFocus@CMFCPropertyGridCtrl@@UAEJPAUtagVARIANT@@@Z" PURGE="-1" COMMENT="" />
    <EXPORT ORDINAL="4848" NAME="?get_accFocus@CBasePane@@UAEJPAUtagVARIANT@@@Z" PURGE="-1" COMMENT="" />
    <EXPORT ORDINAL="4847" NAME="?get_accDescription@XAccessible@CWnd@@UAGJUtagVARIANT@@PAPA_W@Z" PURGE="-1" COMMENT="" />
    <EXPORT ORDINAL="4846" NAME="?get_accDescription@CWnd@@UAEJUtagVARIANT@@PAPA_W@Z" PURGE="-1" COMMENT="" />
    <EXPORT ORDINAL="4845" NAME="?get_accDescription@CMFCPropertyGridCtrl@@UAEJUtagVARIANT@@PAPA_W@Z" PURGE="-1" COMMENT="" />
    <EXPORT ORDINAL="4844" NAME="?get_accDescription@CBasePane@@UAEJUtagVARIANT@@PAPA_W@Z" PURGE="-1" COMMENT="" />
    <EXPORT ORDINAL="4843" NAME="?get_accDefaultAction@XAccessible@CWnd@@UAGJUtagVARIANT@@PAPA_W@Z" PURGE="-1" COMMENT="" />
    <EXPORT ORDINAL="4842" NAME="?get_accDefaultAction@CWnd@@UAEJUtagVARIANT@@PAPA_W@Z" PURGE="-1" COMMENT="" />
    <EXPORT ORDINAL="4841" NAME="?get_accDefaultAction@CMFCPropertyGridCtrl@@UAEJUtagVARIANT@@PAPA_W@Z" PURGE="-1" COMMENT="" />
    <EXPORT ORDINAL="4840" NAME="?get_accDefaultAction@CCheckListBox@@MAEJUtagVARIANT@@PAPA_W@Z" PURGE="-1" COMMENT="" />
    <EXPORT ORDINAL="4839" NAME="?get_accDefaultAction@CBasePane@@UAEJUtagVARIANT@@PAPA_W@Z" PURGE="-1" COMMENT="" />
    <EXPORT ORDINAL="4838" NAME="?get_accChildCount@XAccessible@CWnd@@UAGJPAJ@Z" PURGE="-1" COMMENT="" />
    <EXPORT ORDINAL="4837" NAME="?get_accChildCount@CWnd@@UAEJPAJ@Z" PURGE="-1" COMMENT="" />
    <EXPORT ORDINAL="4836" NAME="?get_accChildCount@CMFCToolBar@@MAEJPAJ@Z" PURGE="-1" COMMENT="" />
    <EXPORT ORDINAL="4835" NAME="?get_accChildCount@CMFCRibbonBar@@UAEJPAJ@Z" PURGE="-1" COMMENT="" />
    <EXPORT ORDINAL="4834" NAME="?get_accChildCount@CMFCPropertyGridCtrl@@UAEJPAJ@Z" PURGE="-1" COMMENT="" />
    <EXPORT ORDINAL="14461" NAME="?get_accChildCount@CMFCPopupMenu@@MAEJPAJ@Z" PURGE="-1" COMMENT="" />
    <EXPORT ORDINAL="4833" NAME="?get_accChildCount@CBasePane@@UAEJPAJ@Z" PURGE="-1" COMMENT="" />
    <EXPORT ORDINAL="4832" NAME="?get_accChild@XAccessible@CWnd@@UAGJUtagVARIANT@@PAPAUIDispatch@@@Z" PURGE="-1" COMMENT="" />
    <EXPORT ORDINAL="4831" NAME="?get_accChild@CWnd@@UAEJUtagVARIANT@@PAPAUIDispatch@@@Z" PURGE="-1" COMMENT="" />
    <EXPORT ORDINAL="4830" NAME="?get_accChild@CMFCToolBar@@MAEJUtagVARIANT@@PAPAUIDispatch@@@Z" PURGE="-1" COMMENT="" />
    <EXPORT ORDINAL="4829" NAME="?get_accChild@CMFCRibbonBar@@UAEJUtagVARIANT@@PAPAUIDispatch@@@Z" PURGE="-1" COMMENT="" />
    <EXPORT ORDINAL="4828" NAME="?get_accChild@CMFCPropertyGridCtrl@@UAEJUtagVARIANT@@PAPAUIDispatch@@@Z" PURGE="-1" COMMENT="" />
    <EXPORT ORDINAL="14460" NAME="?get_accChild@CMFCPopupMenu@@MAEJUtagVARIANT@@PAPAUIDispatch@@@Z" PURGE="-1" COMMENT="" />
    <EXPORT ORDINAL="4827" NAME="?get_accChild@CBasePane@@UAEJUtagVARIANT@@PAPAUIDispatch@@@Z" PURGE="-1" COMMENT="" />
    <EXPORT ORDINAL="14438" NAME="?g_pTopLevelFrame@@3PAVCFrameWnd@@A" PURGE="-1" COMMENT="" />
    <EXPORT ORDINAL="4246" NAME="?dwStyleDefault@CEditView@@2KB" PURGE="-1" COMMENT="" />
    <EXPORT ORDINAL="2743" NAME="?classCRecordset@CRecordset@@2UCRuntimeClass@@B" PURGE="-1" COMMENT="" />
    <EXPORT ORDINAL="2744" NAME="?classCRecordView@CRecordView@@2UCRuntimeClass@@B" PURGE="-1" COMMENT="" />
    <EXPORT ORDINAL="2742" NAME="?classCOleDBRecordView@COleDBRecordView@@2UCRuntimeClass@@B" PURGE="-1" COMMENT="" />
    <EXPORT ORDINAL="2741" NAME="?classCLongBinary@CLongBinary@@2UCRuntimeClass@@B" PURGE="-1" COMMENT="" />
    <EXPORT ORDINAL="2739" NAME="?classCDatabase@CDatabase@@2UCRuntimeClass@@B" PURGE="-1" COMMENT="" />
    <EXPORT ORDINAL="2738" NAME="?classCDaoWorkspace@CDaoWorkspace@@2UCRuntimeClass@@B" PURGE="-1" COMMENT="" />
    <EXPORT ORDINAL="2737" NAME="?classCDaoTableDef@CDaoTableDef@@2UCRuntimeClass@@B" PURGE="-1" COMMENT="" />
    <EXPORT ORDINAL="2735" NAME="?classCDaoRecordset@CDaoRecordset@@2UCRuntimeClass@@B" PURGE="-1" COMMENT="" />
    <EXPORT ORDINAL="2736" NAME="?classCDaoRecordView@CDaoRecordView@@2UCRuntimeClass@@B" PURGE="-1" COMMENT="" />
    <EXPORT ORDINAL="2734" NAME="?classCDaoQueryDef@CDaoQueryDef@@2UCRuntimeClass@@B" PURGE="-1" COMMENT="" />
    <EXPORT ORDINAL="2733" NAME="?classCDaoException@CDaoException@@2UCRuntimeClass@@B" PURGE="-1" COMMENT="" />
    <EXPORT ORDINAL="2732" NAME="?classCDaoDatabase@CDaoDatabase@@2UCRuntimeClass@@B" PURGE="-1" COMMENT="" />
    <EXPORT ORDINAL="2740" NAME="?classCDBException@CDBException@@2UCRuntimeClass@@B" PURGE="-1" COMMENT="" />
    <EXPORT ORDINAL="2348" NAME="?afxUserToolsManager@@3PAVCUserToolsManager@@A" PURGE="-1" COMMENT="" />
    <EXPORT ORDINAL="2309" NAME="?afxShellManager@@3PAVCShellManager@@A" PURGE="-1" COMMENT="" />
    <EXPORT ORDINAL="14437" NAME="?afxMenuHash@@3VCMenuHash@@A" PURGE="-1" COMMENT="" />
    <EXPORT ORDINAL="2232" NAME="?afxKeyboardManager@@3PAVCKeyboardManager@@A" PURGE="-1" COMMENT="" />
    <EXPORT ORDINAL="2206" NAME="?afxGlobalUtils@@3VCGlobalUtils@@A" PURGE="-1" COMMENT="" />
    <EXPORT ORDINAL="2202" NAME="?afxGlobalData@@3UAFX_GLOBAL_DATA@@A" PURGE="-1" COMMENT="" />
    <EXPORT ORDINAL="2138" NAME="?afxData@@3UAUX_DATA@@A" PURGE="-1" COMMENT="" />
    <EXPORT ORDINAL="1725" NAME="?accSelect@XAccessible@CWnd@@UAGJJUtagVARIANT@@@Z" PURGE="-1" COMMENT="" />
    <EXPORT ORDINAL="1724" NAME="?accSelect@CWnd@@UAEJJUtagVARIANT@@@Z" PURGE="-1" COMMENT="" />
    <EXPORT ORDINAL="1723" NAME="?accSelect@CMFCPropertyGridCtrl@@UAEJJUtagVARIANT@@@Z" PURGE="-1" COMMENT="" />
    <EXPORT ORDINAL="1722" NAME="?accSelect@CBasePane@@UAEJJUtagVARIANT@@@Z" PURGE="-1" COMMENT="" />
    <EXPORT ORDINAL="1720" NAME="?accNavigate@XAccessible@CWnd@@UAGJJUtagVARIANT@@PAU3@@Z" PURGE="-1" COMMENT="" />
    <EXPORT ORDINAL="1719" NAME="?accNavigate@CWnd@@UAEJJUtagVARIANT@@PAU2@@Z" PURGE="-1" COMMENT="" />
    <EXPORT ORDINAL="1718" NAME="?accNavigate@CMFCToolBar@@MAEJJUtagVARIANT@@PAU2@@Z" PURGE="-1" COMMENT="" />
    <EXPORT ORDINAL="1717" NAME="?accNavigate@CMFCRibbonBar@@UAEJJUtagVARIANT@@PAU2@@Z" PURGE="-1" COMMENT="" />
    <EXPORT ORDINAL="1716" NAME="?accLocation@XAccessible@CWnd@@UAGJPAJ000UtagVARIANT@@@Z" PURGE="-1" COMMENT="" />
    <EXPORT ORDINAL="1715" NAME="?accLocation@CWnd@@UAEJPAJ000UtagVARIANT@@@Z" PURGE="-1" COMMENT="" />
    <EXPORT ORDINAL="1714" NAME="?accLocation@CMFCPropertyGridCtrl@@UAEJPAJ000UtagVARIANT@@@Z" PURGE="-1" COMMENT="" />
    <EXPORT ORDINAL="1713" NAME="?accLocation@CBasePane@@UAEJPAJ000UtagVARIANT@@@Z" PURGE="-1" COMMENT="" />
    <EXPORT ORDINAL="1712" NAME="?accHitTest@XAccessible@CWnd@@UAGJJJPAUtagVARIANT@@@Z" PURGE="-1" COMMENT="" />
    <EXPORT ORDINAL="1711" NAME="?accHitTest@CWnd@@UAEJJJPAUtagVARIANT@@@Z" PURGE="-1" COMMENT="" />
    <EXPORT ORDINAL="1710" NAME="?accHitTest@CMFCToolBar@@MAEJJJPAUtagVARIANT@@@Z" PURGE="-1" COMMENT="" />
    <EXPORT ORDINAL="1709" NAME="?accHitTest@CMFCRibbonBar@@UAEJJJPAUtagVARIANT@@@Z" PURGE="-1" COMMENT="" />
    <EXPORT ORDINAL="1708" NAME="?accHitTest@CMFCPropertyGridCtrl@@UAEJJJPAUtagVARIANT@@@Z" PURGE="-1" COMMENT="" />
    <EXPORT ORDINAL="1707" NAME="?accHitTest@CBasePane@@UAEJJJPAUtagVARIANT@@@Z" PURGE="-1" COMMENT="" />
    <EXPORT ORDINAL="1703" NAME="?accDoDefaultAction@XAccessible@CWnd@@UAGJUtagVARIANT@@@Z" PURGE="-1" COMMENT="" />
    <EXPORT ORDINAL="1702" NAME="?accDoDefaultAction@CWnd@@UAEJUtagVARIANT@@@Z" PURGE="-1" COMMENT="" />
    <EXPORT ORDINAL="1701" NAME="?accDoDefaultAction@CMFCToolBar@@MAEJUtagVARIANT@@@Z" PURGE="-1" COMMENT="" />
    <EXPORT ORDINAL="1700" NAME="?accDoDefaultAction@CMFCRibbonBar@@UAEJUtagVARIANT@@@Z" PURGE="-1" COMMENT="" />
    <EXPORT ORDINAL="1699" NAME="?accDoDefaultAction@CCheckListBox@@MAEJUtagVARIANT@@@Z" PURGE="-1" COMMENT="" />
    <EXPORT ORDINAL="1689" NAME="?_AfxSocketInit@@YGHPAUWSAData@@@Z" PURGE="-1" COMMENT="" />
    <EXPORT ORDINAL="1688" NAME="?_AfxFindSiteOrWnd@@YGPAUCOleControlSiteOrWnd@@PAVCWnd@@0@Z" PURGE="-1" COMMENT="" />
    <EXPORT ORDINAL="14418" NAME="?WriteUInt@XRibbonInfoParser@CMFCRibbonInfo@@UAEHABV?$CStringT@DV?$StrTraitMFC_DLL@DV?$ChTraitsCRT@D@ATL@@@@@ATL@@II@Z" PURGE="-1" COMMENT="" />
    <EXPORT ORDINAL="14417" NAME="?WriteToStream@CPropertySet@@QAEHPAUIStream@@@Z" PURGE="-1" COMMENT="" />
    <EXPORT ORDINAL="14416" NAME="?WriteToStream@CPropertySection@@QAEHPAUIStream@@@Z" PURGE="-1" COMMENT="" />
    <EXPORT ORDINAL="14415" NAME="?WriteToStream@CProperty@@QAEHPAUIStream@@@Z" PURGE="-1" COMMENT="" />
    <EXPORT ORDINAL="14414" NAME="?WriteToArchive@CEditView@@QAEXAAVCArchive@@@Z" PURGE="-1" COMMENT="" />
    <EXPORT ORDINAL="14413" NAME="?WriteString@CWinAppEx@@QAEHPBD0@Z" PURGE="-1" COMMENT="" />
    <EXPORT ORDINAL="14412" NAME="?WriteString@CStdioFile@@UAEXPBD@Z" PURGE="-1" COMMENT="" />
    <EXPORT ORDINAL="14411" NAME="?WriteString@CInternetFile@@UAEXPBD@Z" PURGE="-1" COMMENT="" />
    <EXPORT ORDINAL="14410" NAME="?WriteString@CGopherFile@@UAEXPBD@Z" PURGE="-1" COMMENT="" />
    <EXPORT ORDINAL="14409" NAME="?WriteString@CArchive@@QAEXPBD@Z" PURGE="-1" COMMENT="" />
    <EXPORT ORDINAL="14408" NAME="?WriteSize@XRibbonInfoParser@CMFCRibbonInfo@@UAEHABV?$CStringT@DV?$StrTraitMFC_DLL@DV?$ChTraitsCRT@D@ATL@@@@@ATL@@ABVCSize@@1@Z" PURGE="-1" COMMENT="" />
    <EXPORT ORDINAL="14407" NAME="?WriteSectionString@CWinAppEx@@QAEHPBD00@Z" PURGE="-1" COMMENT="" />
    <EXPORT ORDINAL="14406" NAME="?WriteSectionObject@CWinAppEx@@QAEHPBD0AAVCObject@@@Z" PURGE="-1" COMMENT="" />
    <EXPORT ORDINAL="14405" NAME="?WriteSectionInt@CWinAppEx@@QAEHPBD0H@Z" PURGE="-1" COMMENT="" />
    <EXPORT ORDINAL="14404" NAME="?WriteSectionBinary@CWinAppEx@@QAEHPBD0PAEI@Z" PURGE="-1" COMMENT="" />
    <EXPORT ORDINAL="14403" NAME="?WriteProfileStringA@CWinApp@@UAEHPBD00@Z" PURGE="-1" COMMENT="" />
    <EXPORT ORDINAL="14402" NAME="?WriteProfileInt@CWinApp@@UAEHPBD0H@Z" PURGE="-1" COMMENT="" />
    <EXPORT ORDINAL="14401" NAME="?WriteProfileBinary@CWinApp@@UAEHPBD0PAEI@Z" PURGE="-1" COMMENT="" />
    <EXPORT ORDINAL="14400" NAME="?WriteObject@CWinAppEx@@QAEHPBDAAVCObject@@@Z" PURGE="-1" COMMENT="" />
    <EXPORT ORDINAL="14399" NAME="?WriteObject@CArchive@@QAEXPBVCObject@@@Z" PURGE="-1" COMMENT="" />
    <EXPORT ORDINAL="14398" NAME="?WriteNameDictToStream@CPropertySection@@QAEHPAUIStream@@@Z" PURGE="-1" COMMENT="" />
    <EXPORT ORDINAL="14397" NAME="?WriteList@CRecentFileList@@UAEXXZ" PURGE="-1" COMMENT="" />
    <EXPORT ORDINAL="14396" NAME="?WriteItemFlat@COleClientItem@@QAEXAAVCArchive@@@Z" PURGE="-1" COMMENT="" />
    <EXPORT ORDINAL="14395" NAME="?WriteItemCompound@COleClientItem@@QAEXAAVCArchive@@@Z" PURGE="-1" COMMENT="" />
    <EXPORT ORDINAL="14394" NAME="?WriteItem@COleClientItem@@UAEXAAVCArchive@@@Z" PURGE="-1" COMMENT="" />
    <EXPORT ORDINAL="14393" NAME="?WriteInt@XRibbonInfoParser@CMFCRibbonInfo@@UAEHABV?$CStringT@DV?$StrTraitMFC_DLL@DV?$ChTraitsCRT@D@ATL@@@@@ATL@@HH@Z" PURGE="-1" COMMENT="" />
    <EXPORT ORDINAL="14392" NAME="?WriteInt@CWinAppEx@@QAEHPBDH@Z" PURGE="-1" COMMENT="" />
    <EXPORT ORDINAL="14391" NAME="?WriteCount@CArchive@@QAEXK@Z" PURGE="-1" COMMENT="" />
    <EXPORT ORDINAL="14390" NAME="?WriteColor@XRibbonInfoParser@CMFCRibbonInfo@@UAEHABV?$CStringT@DV?$StrTraitMFC_DLL@DV?$ChTraitsCRT@D@ATL@@@@@ATL@@KK@Z" PURGE="-1" COMMENT="" />
    <EXPORT ORDINAL="14389" NAME="?WriteClass@CArchive@@QAEXPBUCRuntimeClass@@@Z" PURGE="-1" COMMENT="" />
    <EXPORT ORDINAL="14388" NAME="?WriteBool@XRibbonInfoParser@CMFCRibbonInfo@@UAEHABV?$CStringT@DV?$StrTraitMFC_DLL@DV?$ChTraitsCRT@D@ATL@@@@@ATL@@HH@Z" PURGE="-1" COMMENT="" />
    <EXPORT ORDINAL="14387" NAME="?WriteBinary@CWinAppEx@@QAEHPBDPAEI@Z" PURGE="-1" COMMENT="" />
    <EXPORT ORDINAL="14386" NAME="?Write@XRibbonBar@CMFCRibbonInfo@@UAEHAAVXRibbonInfoParser@2@@Z" PURGE="-1" COMMENT="" />
    <EXPORT ORDINAL="14385" NAME="?Write@XQATItem@XQAT@CMFCRibbonInfo@@QAEHAAVXRibbonInfoParser@3@@Z" PURGE="-1" COMMENT="" />
    <EXPORT ORDINAL="14384" NAME="?Write@XQAT@CMFCRibbonInfo@@UAEHAAVXRibbonInfoParser@2@@Z" PURGE="-1" COMMENT="" />
    <EXPORT ORDINAL="14383" NAME="?Write@XPanel@CMFCRibbonInfo@@UAEHAAVXRibbonInfoParser@2@@Z" PURGE="-1" COMMENT="" />
    <EXPORT ORDINAL="14382" NAME="?Write@XImage@CMFCRibbonInfo@@QAEHAAVXRibbonInfoParser@2@@Z" PURGE="-1" COMMENT="" />
    <EXPORT ORDINAL="14381" NAME="?Write@XID@CMFCRibbonInfo@@QAEHAAVXRibbonInfoParser@2@@Z" PURGE="-1" COMMENT="" />
    <EXPORT ORDINAL="14380" NAME="?Write@XGalleryGroup@XElementButtonGallery@CMFCRibbonInfo@@QAEHAAVXRibbonInfoParser@3@@Z" PURGE="-1" COMMENT="" />
    <EXPORT ORDINAL="14379" NAME="?Write@XElementSlider@CMFCRibbonInfo@@UAEHAAVXRibbonInfoParser@2@@Z" PURGE="-1" COMMENT="" />
    <EXPORT ORDINAL="14378" NAME="?Write@XElementSeparator@CMFCRibbonInfo@@UAEHAAVXRibbonInfoParser@2@@Z" PURGE="-1" COMMENT="" />
    <EXPORT ORDINAL="14377" NAME="?Write@XElementProgressBar@CMFCRibbonInfo@@UAEHAAVXRibbonInfoParser@2@@Z" PURGE="-1" COMMENT="" />
    <EXPORT ORDINAL="14376" NAME="?Write@XElementLabel@CMFCRibbonInfo@@UAEHAAVXRibbonInfoParser@2@@Z" PURGE="-1" COMMENT="" />
    <EXPORT ORDINAL="14375" NAME="?Write@XElementGroup@CMFCRibbonInfo@@UAEHAAVXRibbonInfoParser@2@@Z" PURGE="-1" COMMENT="" />
    <EXPORT ORDINAL="14374" NAME="?Write@XElementFontComboBox@CMFCRibbonInfo@@UAEHAAVXRibbonInfoParser@2@@Z" PURGE="-1" COMMENT="" />
    <EXPORT ORDINAL="14373" NAME="?Write@XElementEdit@CMFCRibbonInfo@@UAEHAAVXRibbonInfoParser@2@@Z" PURGE="-1" COMMENT="" />
    <EXPORT ORDINAL="14372" NAME="?Write@XElementComboBox@CMFCRibbonInfo@@UAEHAAVXRibbonInfoParser@2@@Z" PURGE="-1" COMMENT="" />
    <EXPORT ORDINAL="14371" NAME="?Write@XElementButtonUndo@CMFCRibbonInfo@@UAEHAAVXRibbonInfoParser@2@@Z" PURGE="-1" COMMENT="" />
    <EXPORT ORDINAL="14370" NAME="?Write@XElementButtonMainPanel@CMFCRibbonInfo@@UAEHAAVXRibbonInfoParser@2@@Z" PURGE="-1" COMMENT="" />
    <EXPORT ORDINAL="14369" NAME="?Write@XElementButtonLinkCtrl@CMFCRibbonInfo@@UAEHAAVXRibbonInfoParser@2@@Z" PURGE="-1" COMMENT="" />
    <EXPORT ORDINAL="14368" NAME="?Write@XElementButtonLaunch@CMFCRibbonInfo@@UAEHAAVXRibbonInfoParser@2@@Z" PURGE="-1" COMMENT="" />
    <EXPORT ORDINAL="14367" NAME="?Write@XElementButtonGallery@CMFCRibbonInfo@@UAEHAAVXRibbonInfoParser@2@@Z" PURGE="-1" COMMENT="" />
    <EXPORT ORDINAL="14366" NAME="?Write@XElementButtonColor@CMFCRibbonInfo@@UAEHAAVXRibbonInfoParser@2@@Z" PURGE="-1" COMMENT="" />
    <EXPORT ORDINAL="14365" NAME="?Write@XElementButtonCheck@CMFCRibbonInfo@@UAEHAAVXRibbonInfoParser@2@@Z" PURGE="-1" COMMENT="" />
    <EXPORT ORDINAL="14364" NAME="?Write@XElementButtonApplication@CMFCRibbonInfo@@UAEHAAVXRibbonInfoParser@2@@Z" PURGE="-1" COMMENT="" />
    <EXPORT ORDINAL="14363" NAME="?Write@XElementButton@CMFCRibbonInfo@@UAEHAAVXRibbonInfoParser@2@@Z" PURGE="-1" COMMENT="" />
    <EXPORT ORDINAL="14362" NAME="?Write@XElement@CMFCRibbonInfo@@UAEHAAVXRibbonInfoParser@2@@Z" PURGE="-1" COMMENT="" />
    <EXPORT ORDINAL="14361" NAME="?Write@XContext@CMFCRibbonInfo@@UAEHAAVXRibbonInfoParser@2@@Z" PURGE="-1" COMMENT="" />
    <EXPORT ORDINAL="14360" NAME="?Write@XCategoryMain@CMFCRibbonInfo@@UAEHAAVXRibbonInfoParser@2@@Z" PURGE="-1" COMMENT="" />
    <EXPORT ORDINAL="14359" NAME="?Write@XCategory@CMFCRibbonInfo@@UAEHAAVXRibbonInfoParser@2@@Z" PURGE="-1" COMMENT="" />
    <EXPORT ORDINAL="14358" NAME="?Write@XBase@CMFCRibbonInfo@@UAEHAAVXRibbonInfoParser@2@@Z" PURGE="-1" COMMENT="" />
    <EXPORT ORDINAL="14357" NAME="?Write@CStdioFile@@UAEXPBXI@Z" PURGE="-1" COMMENT="" />
    <EXPORT ORDINAL="14356" NAME="?Write@CSocketFile@@UAEXPBXI@Z" PURGE="-1" COMMENT="" />
    <EXPORT ORDINAL="14355" NAME="?Write@CSettingsStore@@UAEHPBDPAVCObject@@@Z" PURGE="-1" COMMENT="" />
    <EXPORT ORDINAL="14354" NAME="?Write@CSettingsStore@@UAEHPBDPAEI@Z" PURGE="-1" COMMENT="" />
    <EXPORT ORDINAL="14353" NAME="?Write@CSettingsStore@@UAEHPBDK@Z" PURGE="-1" COMMENT="" />
    <EXPORT ORDINAL="14352" NAME="?Write@CSettingsStore@@UAEHPBDH@Z" PURGE="-1" COMMENT="" />
    <EXPORT ORDINAL="14351" NAME="?Write@CSettingsStore@@UAEHPBDABVCRect@@@Z" PURGE="-1" COMMENT="" />
    <EXPORT ORDINAL="14350" NAME="?Write@CSettingsStore@@UAEHPBDAAVCObject@@@Z" PURGE="-1" COMMENT="" />
    <EXPORT ORDINAL="14349" NAME="?Write@CSettingsStore@@UAEHPBD0@Z" PURGE="-1" COMMENT="" />
    <EXPORT ORDINAL="14348" NAME="?Write@COleStreamFile@@UAEXPBXI@Z" PURGE="-1" COMMENT="" />
    <EXPORT ORDINAL="14344" NAME="?Write@CMemFile@@UAEXPBXI@Z" PURGE="-1" COMMENT="" />
    <EXPORT ORDINAL="14347" NAME="?Write@CMFCRibbonInfo@@UAEHPAUIStream@@@Z" PURGE="-1" COMMENT="" />
    <EXPORT ORDINAL="14346" NAME="?Write@CMFCRibbonInfo@@UAEHPAPAEAAI@Z" PURGE="-1" COMMENT="" />
    <EXPORT ORDINAL="14345" NAME="?Write@CMFCRibbonInfo@@MAEHAAVXRibbonInfoParser@1@@Z" PURGE="-1" COMMENT="" />
    <EXPORT ORDINAL="14343" NAME="?Write@CInternetFile@@UAEXPBXI@Z" PURGE="-1" COMMENT="" />
    <EXPORT ORDINAL="14342" NAME="?Write@CImageList@@QAEHPAVCArchive@@@Z" PURGE="-1" COMMENT="" />
    <EXPORT ORDINAL="14341" NAME="?Write@CGopherFile@@UAEXPBXI@Z" PURGE="-1" COMMENT="" />
    <EXPORT ORDINAL="14340" NAME="?Write@CFile@@UAEXPBXI@Z" PURGE="-1" COMMENT="" />
    <EXPORT ORDINAL="14339" NAME="?Write@CArchiveStream@@UAGJPBXKPAK@Z" PURGE="-1" COMMENT="" />
    <EXPORT ORDINAL="14338" NAME="?Write@CArchive@@QAEXPBXI@Z" PURGE="-1" COMMENT="" />
    <EXPORT ORDINAL="14337" NAME="?WrapToolBar@CToolBar@@IAEHPAU_TBBUTTON@@HH@Z" PURGE="-1" COMMENT="" />
    <EXPORT ORDINAL="14336" NAME="?WrapToolBar@CMFCToolBar@@QAEHHHPAVCDC@@HH@Z" PURGE="-1" COMMENT="" />
    <EXPORT ORDINAL="14335" NAME="?WrapChanged@CRichEditView@@MAEXXZ" PURGE="-1" COMMENT="" />
    <EXPORT ORDINAL="14322" NAME="?WindowProc@CWnd@@MAEJIIJ@Z" PURGE="-1" COMMENT="" />
    <EXPORT ORDINAL="14321" NAME="?WindowProc@CReflectorWnd@@MAEJIIJ@Z" PURGE="-1" COMMENT="" />
    <EXPORT ORDINAL="14320" NAME="?WindowProc@CReBar@@MAEJIIJ@Z" PURGE="-1" COMMENT="" />
    <EXPORT ORDINAL="14319" NAME="?WindowProc@CParkingWnd@@UAEJIIJ@Z" PURGE="-1" COMMENT="" />
    <EXPORT ORDINAL="14318" NAME="?WindowProc@COlePropertyPage@@MAEJIIJ@Z" PURGE="-1" COMMENT="" />
    <EXPORT ORDINAL="14317" NAME="?WindowProc@COleControl@@UAEJIIJ@Z" PURGE="-1" COMMENT="" />
    <EXPORT ORDINAL="14316" NAME="?WindowProc@CMFCShellTreeCtrl@@MAEJIIJ@Z" PURGE="-1" COMMENT="" />
    <EXPORT ORDINAL="14315" NAME="?WindowProc@CMFCShellListCtrl@@MAEJIIJ@Z" PURGE="-1" COMMENT="" />
    <EXPORT ORDINAL="14314" NAME="?WindowProc@CMFCRibbonBar@@MAEJIIJ@Z" PURGE="-1" COMMENT="" />
    <EXPORT ORDINAL="14313" NAME="?WindowProc@CMFCReBar@@MAEJIIJ@Z" PURGE="-1" COMMENT="" />
    <EXPORT ORDINAL="14312" NAME="?WindowProc@CControlBar@@UAEJIIJ@Z" PURGE="-1" COMMENT="" />
    <EXPORT ORDINAL="14311" NAME="?WindowProc@CBasePane@@MAEJIIJ@Z" PURGE="-1" COMMENT="" />
    <EXPORT ORDINAL="14330" NAME="?WinHelpInternal@CWnd@@UAEXKI@Z" PURGE="-1" COMMENT="" />
    <EXPORT ORDINAL="14329" NAME="?WinHelpInternal@CWinApp@@UAEXKI@Z" PURGE="-1" COMMENT="" />
    <EXPORT ORDINAL="14328" NAME="?WinHelpA@CWnd@@UAEXKI@Z" PURGE="-1" COMMENT="" />
    <EXPORT ORDINAL="14327" NAME="?WinHelpA@CWinApp@@UAEXKI@Z" PURGE="-1" COMMENT="" />
    <EXPORT ORDINAL="14326" NAME="?WinHelpA@COleIPFrameWndEx@@UAEXKI@Z" PURGE="-1" COMMENT="" />
    <EXPORT ORDINAL="14325" NAME="?WinHelpA@COleDocIPFrameWndEx@@UAEXKI@Z" PURGE="-1" COMMENT="" />
    <EXPORT ORDINAL="14324" NAME="?WinHelpA@CMDIFrameWndEx@@UAEXKI@Z" PURGE="-1" COMMENT="" />
    <EXPORT ORDINAL="14323" NAME="?WinHelpA@CFrameWndEx@@UAEXKI@Z" PURGE="-1" COMMENT="" />
    <EXPORT ORDINAL="14310" NAME="?WillAmbientsBeValidDuringLoad@COleControl@@QAEHXZ" PURGE="-1" COMMENT="" />
    <EXPORT ORDINAL="14309" NAME="?Widen@CD2DGeometry@@QBEHMPAUID2D1StrokeStyle@@ABUD2D_MATRIX_3X2_F@@PAUID2D1SimplifiedGeometrySink@@M@Z" PURGE="-1" COMMENT="" />
    <EXPORT ORDINAL="14308" NAME="?WalkPreTranslateTree@CWnd@@SGHPAUHWND__@@PAUtagMSG@@@Z" PURGE="-1" COMMENT="" />
    <EXPORT ORDINAL="14306" NAME="?VerifyUserLicense@COleObjectFactory@@MAEHXZ" PURGE="-1" COMMENT="" />
    <EXPORT ORDINAL="14305" NAME="?VerifyResource@CRenderTarget@@IAEHPAVCD2DResource@@@Z" PURGE="-1" COMMENT="" />
    <EXPORT ORDINAL="14304" NAME="?VerifyLicenseKey@COleObjectFactory@@MAEHPA_W@Z" PURGE="-1" COMMENT="" />
    <EXPORT ORDINAL="14303" NAME="?VerifyDriverBehavior@CRecordset@@IAEXXZ" PURGE="-1" COMMENT="" />
    <EXPORT ORDINAL="14302" NAME="?VerifyCursorSupport@CRecordset@@IAEKXZ" PURGE="-1" COMMENT="" />
    <EXPORT ORDINAL="14301" NAME="?VerifyConnect@CDatabase@@IAEXXZ" PURGE="-1" COMMENT="" />
    <EXPORT ORDINAL="14307" NAME="?VKeyToItem@CListBox@@UAEHII@Z" PURGE="-1" COMMENT="" />
    <EXPORT ORDINAL="14299" NAME="?UpdateVisibleState@CMFCAutoHideBar@@QAEXXZ" PURGE="-1" COMMENT="" />
    <EXPORT ORDINAL="14298" NAME="?UpdateVisibleState@CDockingPanesRow@@UAEXH@Z" PURGE="-1" COMMENT="" />
    <EXPORT ORDINAL="14297" NAME="?UpdateVisibleLock@COleLinkingDoc@@IAEXHH@Z" PURGE="-1" COMMENT="" />
    <EXPORT ORDINAL="14296" NAME="?UpdateVirtualRect@CPane@@QAEXXZ" PURGE="-1" COMMENT="" />
    <EXPORT ORDINAL="14295" NAME="?UpdateVirtualRect@CPane@@QAEXVCSize@@@Z" PURGE="-1" COMMENT="" />
    <EXPORT ORDINAL="14294" NAME="?UpdateVirtualRect@CPane@@QAEXVCPoint@@@Z" PURGE="-1" COMMENT="" />
    <EXPORT ORDINAL="14293" NAME="?UpdateUsingHostObj@COleServerDoc@@IAEXIPAVCCmdUI@@@Z" PURGE="-1" COMMENT="" />
    <EXPORT ORDINAL="14292" NAME="?UpdateUI@XDocHostUIHandler@CHtmlControlSite@@UAGJXZ" PURGE="-1" COMMENT="" />
    <EXPORT ORDINAL="14291" NAME="?UpdateUI@CDHtmlDialog@@UAGJXZ" PURGE="-1" COMMENT="" />
    <EXPORT ORDINAL="14290" NAME="?UpdateUI@CBrowserControlSite@@MAGJXZ" PURGE="-1" COMMENT="" />
    <EXPORT ORDINAL="14289" NAME="?UpdateTransparency@CMFCRibbonMiniToolBar@@IAEHXZ" PURGE="-1" COMMENT="" />
    <EXPORT ORDINAL="14287" NAME="?UpdateTooltips@CTooltipManager@@QAEXXZ" PURGE="-1" COMMENT="" />
    <EXPORT ORDINAL="14286" NAME="?UpdateTooltips@CPaneFrameWnd@@IAEXXZ" PURGE="-1" COMMENT="" />
    <EXPORT ORDINAL="14285" NAME="?UpdateTooltips@CMFCToolBar@@IAEXXZ" PURGE="-1" COMMENT="" />
    <EXPORT ORDINAL="14284" NAME="?UpdateTooltips@CMFCCaptionBar@@IAEXXZ" PURGE="-1" COMMENT="" />
    <EXPORT ORDINAL="14283" NAME="?UpdateTooltips@CDockablePane@@IAEXXZ" PURGE="-1" COMMENT="" />
    <EXPORT ORDINAL="14282" NAME="?UpdateTooltipInfo@CMFCRibbonBaseElement@@UAEXXZ" PURGE="-1" COMMENT="" />
    <EXPORT ORDINAL="14288" NAME="?UpdateToolTipsRect@CMFCRibbonBar@@IAEXXZ" PURGE="-1" COMMENT="" />
    <EXPORT ORDINAL="14281" NAME="?UpdateTipText@CToolTipCtrl@@QAEXPBDPAVCWnd@@I@Z" PURGE="-1" COMMENT="" />
    <EXPORT ORDINAL="14280" NAME="?UpdateTipText@CToolTipCtrl@@QAEXIPAVCWnd@@I@Z" PURGE="-1" COMMENT="" />
    <EXPORT ORDINAL="14279" NAME="?UpdateTextMetrics@AFX_GLOBAL_DATA@@IAEXXZ" PURGE="-1" COMMENT="" />
    <EXPORT ORDINAL="14278" NAME="?UpdateTaskbarTabIcon@CMDIChildWndEx@@UAEXPAUHICON__@@@Z" PURGE="-1" COMMENT="" />
    <EXPORT ORDINAL="14277" NAME="?UpdateTabs@CMDIClientAreaWnd@@QAEXH@Z" PURGE="-1" COMMENT="" />
    <EXPORT ORDINAL="14276" NAME="?UpdateSystemColors@CMFCBaseVisualManager@@IAEXXZ" PURGE="-1" COMMENT="" />
    <EXPORT ORDINAL="14275" NAME="?UpdateSysColors@AFX_GLOBAL_DATA@@QAEXXZ" PURGE="-1" COMMENT="" />
    <EXPORT ORDINAL="14274" NAME="?UpdateState@CDockContext@@QAEXPAHH@Z" PURGE="-1" COMMENT="" />
    <EXPORT ORDINAL="14273" NAME="?UpdateShadow@CMFCPopupMenu@@QAEXPAUtagRECT@@@Z" PURGE="-1" COMMENT="" />
    <EXPORT ORDINAL="14272" NAME="?UpdateScrollButtonsState@CMFCTabCtrl@@IAEXXZ" PURGE="-1" COMMENT="" />
    <EXPORT ORDINAL="14271" NAME="?UpdateScrollButtons@CMFCRibbonCategory@@IAEXXZ" PURGE="-1" COMMENT="" />
    <EXPORT ORDINAL="14270" NAME="?UpdateRegistryAll@COleObjectFactory@@SGHH@Z" PURGE="-1" COMMENT="" />
    <EXPORT ORDINAL="14269" NAME="?UpdateRegistry@COleTemplateServer@@QAEXW4OLE_APPTYPE@@PAPBD1H@Z" PURGE="-1" COMMENT="" />
    <EXPORT ORDINAL="14268" NAME="?UpdateRegistry@COleObjectFactory@@QAEXPBD@Z" PURGE="-1" COMMENT="" />
    <EXPORT ORDINAL="14267" NAME="?UpdateRegistry@COleObjectFactory@@MAEHH@Z" PURGE="-1" COMMENT="" />
    <EXPORT ORDINAL="14266" NAME="?UpdatePrinterSelection@CWinApp@@IAEXH@Z" PURGE="-1" COMMENT="" />
    <EXPORT ORDINAL="14264" NAME="?UpdateObjectCache@CRichEditDoc@@IAEXXZ" PURGE="-1" COMMENT="" />
    <EXPORT ORDINAL="14265" NAME="?UpdateOFNFromShellDialog@CFileDialog@@UAEXXZ" PURGE="-1" COMMENT="" />
    <EXPORT ORDINAL="14263" NAME="?UpdateModifiedFlag@CRichEditDoc@@UAEXXZ" PURGE="-1" COMMENT="" />
    <EXPORT ORDINAL="14262" NAME="?UpdateModifiedFlag@COleDocument@@UAEXXZ" PURGE="-1" COMMENT="" />
    <EXPORT ORDINAL="14261" NAME="?UpdateMenuShadow@CMFCRibbonKeyTip@@IAEXXZ" PURGE="-1" COMMENT="" />
    <EXPORT ORDINAL="14260" NAME="?UpdateMenuButtonText@CMFCTasksPaneToolBar@@QAEXABV?$CStringT@DV?$StrTraitMFC_DLL@DV?$ChTraitsCRT@D@ATL@@@@@ATL@@@Z" PURGE="-1" COMMENT="" />
    <EXPORT ORDINAL="14259" NAME="?UpdateMenu@CRecentFileList@@UAEXPAVCCmdUI@@@Z" PURGE="-1" COMMENT="" />
    <EXPORT ORDINAL="14258" NAME="?UpdateMDITabbedGroups@CMDIClientAreaWnd@@QAEXH@Z" PURGE="-1" COMMENT="" />
    <EXPORT ORDINAL="14257" NAME="?UpdateMDITabbedBarsIcons@CMDIFrameWndEx@@QAEXXZ" PURGE="-1" COMMENT="" />
    <EXPORT ORDINAL="14256" NAME="?UpdateMDIChildrenMenus@CMFCMenuBar@@KGXPAVCMultiDocTemplate@@@Z" PURGE="-1" COMMENT="" />
    <EXPORT ORDINAL="14255" NAME="?UpdateLink@COleUILinkInfo@@UAGJKHH@Z" PURGE="-1" COMMENT="" />
    <EXPORT ORDINAL="14254" NAME="?UpdateLink@COleClientItem@@QAEHXZ" PURGE="-1" COMMENT="" />
    <EXPORT ORDINAL="14253" NAME="?UpdateLayered@CSmartDockingStandaloneGuideWnd@@QAEXXZ" PURGE="-1" COMMENT="" />
    <EXPORT ORDINAL="14252" NAME="?UpdateItemType@COleClientItem@@QAEXXZ" PURGE="-1" COMMENT="" />
    <EXPORT ORDINAL="14251" NAME="?UpdateInternalImage@CMFCToolBarImages@@IAEHH@Z" PURGE="-1" COMMENT="" />
    <EXPORT ORDINAL="14250" NAME="?UpdateInsertDelete@CRecordset@@IAEHXZ" PURGE="-1" COMMENT="" />
    <EXPORT ORDINAL="14249" NAME="?UpdateImagesColor@CMFCToolBar@@IAEXXZ" PURGE="-1" COMMENT="" />
    <EXPORT ORDINAL="14248" NAME="?UpdateImage@CMFCToolBarImages@@QAEHHPAUHBITMAP__@@@Z" PURGE="-1" COMMENT="" />
    <EXPORT ORDINAL="14247" NAME="?UpdateFrameTitleForDocument@CFrameWnd@@QAEXPBD@Z" PURGE="-1" COMMENT="" />
    <EXPORT ORDINAL="14246" NAME="?UpdateFrameCounts@CDocument@@UAEXXZ" PURGE="-1" COMMENT="" />
    <EXPORT ORDINAL="14245" NAME="?UpdateFonts@AFX_GLOBAL_DATA@@QAEXXZ" PURGE="-1" COMMENT="" />
    <EXPORT ORDINAL="14244" NAME="?UpdateDocumentInfo@CDataRecoveryHandler@@UAEHPAVCDocument@@@Z" PURGE="-1" COMMENT="" />
    <EXPORT ORDINAL="14243" NAME="?UpdateDialogControls@CWnd@@QAEXPAVCCmdTarget@@H@Z" PURGE="-1" COMMENT="" />
    <EXPORT ORDINAL="14242" NAME="?UpdateData@CWnd@@QAEHH@Z" PURGE="-1" COMMENT="" />
    <EXPORT ORDINAL="14241" NAME="?UpdateCustomizeButton@CMFCCustomizeMenuButton@@IAEXXZ" PURGE="-1" COMMENT="" />
    <EXPORT ORDINAL="14240" NAME="?UpdateCursor@CDataSourceControl@@UAEJXZ" PURGE="-1" COMMENT="" />
    <EXPORT ORDINAL="14239" NAME="?UpdateCount@CMFCToolBarImages@@IAEXXZ" PURGE="-1" COMMENT="" />
    <EXPORT ORDINAL="14238" NAME="?UpdateControls@CDataSourceControl@@UAEJXZ" PURGE="-1" COMMENT="" />
    <EXPORT ORDINAL="14237" NAME="?UpdateColor@CMFCRibbonColorButton@@QAEXK@Z" PURGE="-1" COMMENT="" />
    <EXPORT ORDINAL="14236" NAME="?UpdateColor@CMFCPropertyGridCtrl@@UAEXK@Z" PURGE="-1" COMMENT="" />
    <EXPORT ORDINAL="14235" NAME="?UpdateColor@CMFCColorButton@@MAEXK@Z" PURGE="-1" COMMENT="" />
    <EXPORT ORDINAL="14234" NAME="?UpdateClientEdge@CMDIChildWnd@@IAEHPAUtagRECT@@@Z" PURGE="-1" COMMENT="" />
    <EXPORT ORDINAL="14233" NAME="?UpdateCaption@CMFCTasksPane@@IAEXXZ" PURGE="-1" COMMENT="" />
    <EXPORT ORDINAL="14232" NAME="?UpdateCaption@CFrameImpl@@IAEXXZ" PURGE="-1" COMMENT="" />
    <EXPORT ORDINAL="14231" NAME="?UpdateButtons@CMFCWindowsManagerDialog@@IAEXXZ" PURGE="-1" COMMENT="" />
    <EXPORT ORDINAL="14230" NAME="?UpdateButtons@CMFCTasksPaneToolBar@@QAEXXZ" PURGE="-1" COMMENT="" />
    <EXPORT ORDINAL="14229" NAME="?UpdateButton@CMFCToolBar@@QAEXH@Z" PURGE="-1" COMMENT="" />
    <EXPORT ORDINAL="14228" NAME="?UpdateBottomWindows@CMFCPopupMenu@@IAEXH@Z" PURGE="-1" COMMENT="" />
    <EXPORT ORDINAL="14227" NAME="?UpdateBars@CScrollView@@IAEXXZ" PURGE="-1" COMMENT="" />
    <EXPORT ORDINAL="14226" NAME="?UpdateAnimationManager@CAnimationController@@UAEXXZ" PURGE="-1" COMMENT="" />
    <EXPORT ORDINAL="14225" NAME="?UpdateAllViews@CDocument@@QAEXPAVCView@@JPAVCObject@@@Z" PURGE="-1" COMMENT="" />
    <EXPORT ORDINAL="14224" NAME="?UpdateAllShadows@CMFCPopupMenu@@SGXPAUtagRECT@@@Z" PURGE="-1" COMMENT="" />
    <EXPORT ORDINAL="14223" NAME="?UpdateAllPanes@CStatusBar@@IAEXHH@Z" PURGE="-1" COMMENT="" />
    <EXPORT ORDINAL="14222" NAME="?UpdateAllItems@COleServerDoc@@QAEXPAVCOleServerItem@@JPAVCObject@@W4tagDVASPECT@@@Z" PURGE="-1" COMMENT="" />
    <EXPORT ORDINAL="14221" NAME="?UpdateAccelTable@CKeyboardManager@@QAEHPAVCMultiDocTemplate@@PAUtagACCEL@@HPAVCFrameWnd@@@Z" PURGE="-1" COMMENT="" />
    <EXPORT ORDINAL="14220" NAME="?UpdateAccelTable@CKeyboardManager@@QAEHPAVCMultiDocTemplate@@PAUHACCEL__@@PAVCFrameWnd@@@Z" PURGE="-1" COMMENT="" />
    <EXPORT ORDINAL="14219" NAME="?Update@XOleObject@COleServerItem@@UAGJXZ" PURGE="-1" COMMENT="" />
    <EXPORT ORDINAL="14218" NAME="?Update@XOleObject@COleServerDoc@@UAGJXZ" PURGE="-1" COMMENT="" />
    <EXPORT ORDINAL="14217" NAME="?Update@XOleObject@COleControl@@UAGJXZ" PURGE="-1" COMMENT="" />
    <EXPORT ORDINAL="14216" NAME="?Update@XOleObject@CDocObjectServer@@UAGJXZ" PURGE="-1" COMMENT="" />
    <EXPORT ORDINAL="14215" NAME="?Update@CSmartDockingGroupGuidesWnd@@QAEXXZ" PURGE="-1" COMMENT="" />
    <EXPORT ORDINAL="14214" NAME="?Update@CRecordset@@UAEHXZ" PURGE="-1" COMMENT="" />
    <EXPORT ORDINAL="14213" NAME="?Update@CMFCTasksPane@@UAEXXZ" PURGE="-1" COMMENT="" />
    <EXPORT ORDINAL="14212" NAME="?Update@CDaoRecordset@@UAEXXZ" PURGE="-1" COMMENT="" />
    <EXPORT ORDINAL="14211" NAME="?UnsubclassWindow@CWnd@@QAEPAUHWND__@@XZ" PURGE="-1" COMMENT="" />
    <EXPORT ORDINAL="14206" NAME="?UnregisterTaskbarTab@CMDIChildWndEx@@QAEXH@Z" PURGE="-1" COMMENT="" />
    <EXPORT ORDINAL="14205" NAME="?UnregisterSiteFactory@CControlSiteFactoryMgr@@QAEHPAVIControlSiteFactory@@@Z" PURGE="-1" COMMENT="" />
    <EXPORT ORDINAL="14204" NAME="?UnregisterShellFileTypes@CWinApp@@IAEXXZ" PURGE="-1" COMMENT="" />
    <EXPORT ORDINAL="14203" NAME="?UnregisterShellFileTypes@CDocManager@@QAEXXZ" PURGE="-1" COMMENT="" />
    <EXPORT ORDINAL="14202" NAME="?UnregisterAll@COleObjectFactory@@SGHXZ" PURGE="-1" COMMENT="" />
    <EXPORT ORDINAL="14201" NAME="?Unregister@CWinApp@@UAEHXZ" PURGE="-1" COMMENT="" />
    <EXPORT ORDINAL="14200" NAME="?Unregister@COleTemplateServer@@QAEHXZ" PURGE="-1" COMMENT="" />
    <EXPORT ORDINAL="14199" NAME="?Unregister@COleObjectFactory@@QAEHXZ" PURGE="-1" COMMENT="" />
    <EXPORT ORDINAL="14198" NAME="?UnlockRenderTarget@CWnd@@QAEXXZ" PURGE="-1" COMMENT="" />
    <EXPORT ORDINAL="14197" NAME="?UnlockRegion@CArchiveStream@@UAGJT_ULARGE_INTEGER@@0K@Z" PURGE="-1" COMMENT="" />
    <EXPORT ORDINAL="14196" NAME="?UnlockRange@CStdioFile@@UAEX_K0@Z" PURGE="-1" COMMENT="" />
    <EXPORT ORDINAL="14195" NAME="?UnlockRange@CSocketFile@@UAEX_K0@Z" PURGE="-1" COMMENT="" />
    <EXPORT ORDINAL="14194" NAME="?UnlockRange@COleStreamFile@@UAEX_K0@Z" PURGE="-1" COMMENT="" />
    <EXPORT ORDINAL="14193" NAME="?UnlockRange@CMemFile@@UAEX_K0@Z" PURGE="-1" COMMENT="" />
    <EXPORT ORDINAL="14192" NAME="?UnlockRange@CInternetFile@@UAEX_K0@Z" PURGE="-1" COMMENT="" />
    <EXPORT ORDINAL="14191" NAME="?UnlockRange@CFile@@UAEX_K0@Z" PURGE="-1" COMMENT="" />
    <EXPORT ORDINAL="14190" NAME="?UnlockBuffer@CEditView@@QBEXXZ" PURGE="-1" COMMENT="" />
    <EXPORT ORDINAL="14188" NAME="?UnlockBuffer@?$CSimpleStringT@_W$00@ATL@@QAEXXZ" PURGE="-1" COMMENT="" />
    <EXPORT ORDINAL="14189" NAME="?UnlockBuffer@?$CSimpleStringT@D$00@ATL@@QAEXXZ" PURGE="-1" COMMENT="" />
    <EXPORT ORDINAL="14187" NAME="?Unlock@CTypeLibCache@@QAEXXZ" PURGE="-1" COMMENT="" />
    <EXPORT ORDINAL="14186" NAME="?Unlock@CSingleLock@@QAEHXZ" PURGE="-1" COMMENT="" />
    <EXPORT ORDINAL="14185" NAME="?Unlock@CSingleLock@@QAEHJPAJ@Z" PURGE="-1" COMMENT="" />
    <EXPORT ORDINAL="14184" NAME="?Unlock@CSemaphore@@UAEHJPAJ@Z" PURGE="-1" COMMENT="" />
    <EXPORT ORDINAL="14183" NAME="?Unlock@COleSafeArray@@QAEXXZ" PURGE="-1" COMMENT="" />
    <EXPORT ORDINAL="14182" NAME="?Unlock@CMutex@@UAEHXZ" PURGE="-1" COMMENT="" />
    <EXPORT ORDINAL="14181" NAME="?Unlock@CMultiLock@@QAEHXZ" PURGE="-1" COMMENT="" />
    <EXPORT ORDINAL="14180" NAME="?Unlock@CMultiLock@@QAEHJPAJ@Z" PURGE="-1" COMMENT="" />
    <EXPORT ORDINAL="14179" NAME="?Unlock@CEvent@@UAEHXZ" PURGE="-1" COMMENT="" />
    <EXPORT ORDINAL="14178" NAME="?Unload@XPreviewHandler@CDocument@@UAGJXZ" PURGE="-1" COMMENT="" />
    <EXPORT ORDINAL="14177" NAME="?Unfreeze@XViewObject@COleControl@@UAGJK@Z" PURGE="-1" COMMENT="" />
    <EXPORT ORDINAL="14176" NAME="?UndockPane@CPane@@UAEXH@Z" PURGE="-1" COMMENT="" />
    <EXPORT ORDINAL="14175" NAME="?UndockPane@CDockablePane@@UAEXH@Z" PURGE="-1" COMMENT="" />
    <EXPORT ORDINAL="14174" NAME="?UndockAndHidePanes@CFullScreenImpl@@IAEXPAVCFrameWnd@@@Z" PURGE="-1" COMMENT="" />
    <EXPORT ORDINAL="14173" NAME="?UncheckRadioButtonsInGroup@CMFCButton@@IAEXXZ" PURGE="-1" COMMENT="" />
    <EXPORT ORDINAL="14172" NAME="?Uncache@XOleCache@COleControl@@UAGJK@Z" PURGE="-1" COMMENT="" />
    <EXPORT ORDINAL="14171" NAME="?UnbindFieldsForUpdate@CRecordset@@QAEXXZ" PURGE="-1" COMMENT="" />
    <EXPORT ORDINAL="14170" NAME="?Unadvise@XOleObject@COleServerItem@@UAGJK@Z" PURGE="-1" COMMENT="" />
    <EXPORT ORDINAL="14169" NAME="?Unadvise@XOleObject@COleServerDoc@@UAGJK@Z" PURGE="-1" COMMENT="" />
    <EXPORT ORDINAL="14168" NAME="?Unadvise@XOleObject@COleControl@@UAGJK@Z" PURGE="-1" COMMENT="" />
    <EXPORT ORDINAL="14167" NAME="?Unadvise@XOleObject@CDocObjectServer@@UAGJK@Z" PURGE="-1" COMMENT="" />
    <EXPORT ORDINAL="14166" NAME="?Unadvise@XConnPt@CConnectionPoint@@UAGJK@Z" PURGE="-1" COMMENT="" />
    <EXPORT ORDINAL="14164" NAME="?UnaccessData@COleSafeArray@@QAEXXZ" PURGE="-1" COMMENT="" />
    <EXPORT ORDINAL="14210" NAME="?UnSetAutoHideMode@CMFCAutoHideButton@@UAEXPAVCDockablePane@@@Z" PURGE="-1" COMMENT="" />
    <EXPORT ORDINAL="14209" NAME="?UnSetAutoHideMode@CMFCAutoHideBar@@QAEXPAVCDockablePane@@@Z" PURGE="-1" COMMENT="" />
    <EXPORT ORDINAL="14208" NAME="?UnSetAutoHideMode@CDockablePane@@UAEXPAV1@@Z" PURGE="-1" COMMENT="" />
    <EXPORT ORDINAL="14207" NAME="?UnSetAutoHideMode@CAutoHideDockSite@@QAEXPAVCMFCAutoHideBar@@@Z" PURGE="-1" COMMENT="" />
    <EXPORT ORDINAL="14165" NAME="?UnAdvise@CDHtmlElementEventSink@@QAEJPAUIUnknown@@ABU_GUID@@@Z" PURGE="-1" COMMENT="" />
    <EXPORT ORDINAL="14300" NAME="?UTF8ToString@CMFCControlContainer@@SGHPBDAAV?$CStringT@DV?$StrTraitMFC_DLL@DV?$ChTraitsCRT@D@ATL@@@@@ATL@@H@Z" PURGE="-1" COMMENT="" />
    <EXPORT ORDINAL="14163" NAME="?UIDeactivateIfNecessary@COccManager@@KAXPAVCWnd@@0@Z" PURGE="-1" COMMENT="" />
    <EXPORT ORDINAL="14162" NAME="?UIDeactivate@XOleInPlaceObject@COleServerDoc@@UAGJXZ" PURGE="-1" COMMENT="" />
    <EXPORT ORDINAL="14161" NAME="?UIDeactivate@XOleInPlaceObject@COleControl@@UAGJXZ" PURGE="-1" COMMENT="" />
    <EXPORT ORDINAL="14160" NAME="?UIActivateControl@COccManager@@KAXPAVCWnd@@@Z" PURGE="-1" COMMENT="" />
    <EXPORT ORDINAL="14159" NAME="?UIActivate@XOleDocumentView@CDocObjectServer@@UAGJH@Z" PURGE="-1" COMMENT="" />
    <EXPORT ORDINAL="14158" NAME="?TwipsToPointString@CMFCToolBarFontSizeComboBox@@IAE?AV?$CStringT@DV?$StrTraitMFC_DLL@DV?$ChTraitsCRT@D@ATL@@@@@ATL@@H@Z" PURGE="-1" COMMENT="" />
    <EXPORT ORDINAL="14156" NAME="?Truncate@?$CSimpleStringT@_W$00@ATL@@QAEXH@Z" PURGE="-1" COMMENT="" />
    <EXPORT ORDINAL="14157" NAME="?Truncate@?$CSimpleStringT@D$00@ATL@@QAEXH@Z" PURGE="-1" COMMENT="" />
    <EXPORT ORDINAL="14150" NAME="?TrimRight@?$CStringT@_WV?$StrTraitMFC_DLL@_WV?$ChTraitsCRT@_W@ATL@@@@@ATL@@QAEAAV12@_W@Z" PURGE="-1" COMMENT="" />
    <EXPORT ORDINAL="14152" NAME="?TrimRight@?$CStringT@_WV?$StrTraitMFC_DLL@_WV?$ChTraitsCRT@_W@ATL@@@@@ATL@@QAEAAV12@XZ" PURGE="-1" COMMENT="" />
    <EXPORT ORDINAL="14151" NAME="?TrimRight@?$CStringT@_WV?$StrTraitMFC_DLL@_WV?$ChTraitsCRT@_W@ATL@@@@@ATL@@QAEAAV12@PB_W@Z" PURGE="-1" COMMENT="" />
    <EXPORT ORDINAL="14155" NAME="?TrimRight@?$CStringT@DV?$StrTraitMFC_DLL@DV?$ChTraitsCRT@D@ATL@@@@@ATL@@QAEAAV12@XZ" PURGE="-1" COMMENT="" />
    <EXPORT ORDINAL="14154" NAME="?TrimRight@?$CStringT@DV?$StrTraitMFC_DLL@DV?$ChTraitsCRT@D@ATL@@@@@ATL@@QAEAAV12@PBD@Z" PURGE="-1" COMMENT="" />
    <EXPORT ORDINAL="14153" NAME="?TrimRight@?$CStringT@DV?$StrTraitMFC_DLL@DV?$ChTraitsCRT@D@ATL@@@@@ATL@@QAEAAV12@D@Z" PURGE="-1" COMMENT="" />
    <EXPORT ORDINAL="14144" NAME="?TrimLeft@?$CStringT@_WV?$StrTraitMFC_DLL@_WV?$ChTraitsCRT@_W@ATL@@@@@ATL@@QAEAAV12@_W@Z" PURGE="-1" COMMENT="" />
    <EXPORT ORDINAL="14146" NAME="?TrimLeft@?$CStringT@_WV?$StrTraitMFC_DLL@_WV?$ChTraitsCRT@_W@ATL@@@@@ATL@@QAEAAV12@XZ" PURGE="-1" COMMENT="" />
    <EXPORT ORDINAL="14145" NAME="?TrimLeft@?$CStringT@_WV?$StrTraitMFC_DLL@_WV?$ChTraitsCRT@_W@ATL@@@@@ATL@@QAEAAV12@PB_W@Z" PURGE="-1" COMMENT="" />
    <EXPORT ORDINAL="14149" NAME="?TrimLeft@?$CStringT@DV?$StrTraitMFC_DLL@DV?$ChTraitsCRT@D@ATL@@@@@ATL@@QAEAAV12@XZ" PURGE="-1" COMMENT="" />
    <EXPORT ORDINAL="14148" NAME="?TrimLeft@?$CStringT@DV?$StrTraitMFC_DLL@DV?$ChTraitsCRT@D@ATL@@@@@ATL@@QAEAAV12@PBD@Z" PURGE="-1" COMMENT="" />
    <EXPORT ORDINAL="14147" NAME="?TrimLeft@?$CStringT@DV?$StrTraitMFC_DLL@DV?$ChTraitsCRT@D@ATL@@@@@ATL@@QAEAAV12@D@Z" PURGE="-1" COMMENT="" />
    <EXPORT ORDINAL="14138" NAME="?Trim@?$CStringT@_WV?$StrTraitMFC_DLL@_WV?$ChTraitsCRT@_W@ATL@@@@@ATL@@QAEAAV12@_W@Z" PURGE="-1" COMMENT="" />
    <EXPORT ORDINAL="14140" NAME="?Trim@?$CStringT@_WV?$StrTraitMFC_DLL@_WV?$ChTraitsCRT@_W@ATL@@@@@ATL@@QAEAAV12@XZ" PURGE="-1" COMMENT="" />
    <EXPORT ORDINAL="14139" NAME="?Trim@?$CStringT@_WV?$StrTraitMFC_DLL@_WV?$ChTraitsCRT@_W@ATL@@@@@ATL@@QAEAAV12@PB_W@Z" PURGE="-1" COMMENT="" />
    <EXPORT ORDINAL="14143" NAME="?Trim@?$CStringT@DV?$StrTraitMFC_DLL@DV?$ChTraitsCRT@D@ATL@@@@@ATL@@QAEAAV12@XZ" PURGE="-1" COMMENT="" />
    <EXPORT ORDINAL="14142" NAME="?Trim@?$CStringT@DV?$StrTraitMFC_DLL@DV?$ChTraitsCRT@D@ATL@@@@@ATL@@QAEAAV12@PBD@Z" PURGE="-1" COMMENT="" />
    <EXPORT ORDINAL="14141" NAME="?Trim@?$CStringT@DV?$StrTraitMFC_DLL@DV?$ChTraitsCRT@D@ATL@@@@@ATL@@QAEAAV12@D@Z" PURGE="-1" COMMENT="" />
    <EXPORT ORDINAL="14137" NAME="?TriggerResize@CMFCPopupMenu@@QAEXXZ" PURGE="-1" COMMENT="" />
    <EXPORT ORDINAL="14136" NAME="?TransparentBlt@CMFCToolBarImages@@KGXPAUHDC__@@HHHHPAVCDC@@HHKHH@Z" PURGE="-1" COMMENT="" />
    <EXPORT ORDINAL="14135" NAME="?TranslateUrl@XDocHostUIHandler@CHtmlControlSite@@UAGJKPA_WPAPA_W@Z" PURGE="-1" COMMENT="" />
    <EXPORT ORDINAL="14134" NAME="?TranslateUrl@CDHtmlDialog@@UAGJKPA_WPAPA_W@Z" PURGE="-1" COMMENT="" />
    <EXPORT ORDINAL="14133" NAME="?TranslateUrl@CBrowserControlSite@@MAGJKPA_WPAPA_W@Z" PURGE="-1" COMMENT="" />
    <EXPORT ORDINAL="14132" NAME="?TranslateColor@COleControl@@QAEKKPAUHPALETTE__@@@Z" PURGE="-1" COMMENT="" />
    <EXPORT ORDINAL="14131" NAME="?TranslateCharToUpper@CKeyboardManager@@SGII@Z" PURGE="-1" COMMENT="" />
    <EXPORT ORDINAL="14130" NAME="?TranslateChar@CMFCToolBar@@UAEHI@Z" PURGE="-1" COMMENT="" />
    <EXPORT ORDINAL="14129" NAME="?TranslateChar@CMFCRibbonBar@@UAEHI@Z" PURGE="-1" COMMENT="" />
    <EXPORT ORDINAL="14128" NAME="?TranslateAcceleratorA@XPropertyPage@COlePropertyPage@@UAGJPAUtagMSG@@@Z" PURGE="-1" COMMENT="" />
    <EXPORT ORDINAL="14127" NAME="?TranslateAcceleratorA@XPreviewHandler@CDocument@@UAGJPAUtagMSG@@@Z" PURGE="-1" COMMENT="" />
    <EXPORT ORDINAL="14125" NAME="?TranslateAcceleratorA@XOleInPlaceFrame@COleFrameHook@@UAGJPAUtagMSG@@G@Z" PURGE="-1" COMMENT="" />
    <EXPORT ORDINAL="14124" NAME="?TranslateAcceleratorA@XOleInPlaceActiveObject@COleServerDoc@@UAGJPAUtagMSG@@@Z" PURGE="-1" COMMENT="" />
    <EXPORT ORDINAL="14123" NAME="?TranslateAcceleratorA@XOleInPlaceActiveObject@COleControl@@UAGJPAUtagMSG@@@Z" PURGE="-1" COMMENT="" />
    <EXPORT ORDINAL="14126" NAME="?TranslateAcceleratorA@XOleIPFrame@COleControlContainer@@UAGJPAUtagMSG@@G@Z" PURGE="-1" COMMENT="" />
    <EXPORT ORDINAL="14122" NAME="?TranslateAcceleratorA@XOleControlSite@COleControlSite@@UAGJPAUtagMSG@@K@Z" PURGE="-1" COMMENT="" />
    <EXPORT ORDINAL="14121" NAME="?TranslateAcceleratorA@XDocHostUIHandler@CHtmlControlSite@@UAGJPAUtagMSG@@PBU_GUID@@K@Z" PURGE="-1" COMMENT="" />
    <EXPORT ORDINAL="14120" NAME="?TranslateAcceleratorA@CDHtmlDialog@@UAGJPAUtagMSG@@PBU_GUID@@K@Z" PURGE="-1" COMMENT="" />
    <EXPORT ORDINAL="14119" NAME="?TranslateAcceleratorA@CBrowserControlSite@@MAGJPAUtagMSG@@PBU_GUID@@K@Z" PURGE="-1" COMMENT="" />
    <EXPORT ORDINAL="14118" NAME="?TransformCoords@XOleControlSite@COleControlSite@@UAGJPAU_POINTL@@PAUtagPOINTF@@K@Z" PURGE="-1" COMMENT="" />
    <EXPORT ORDINAL="14117" NAME="?TransformCoords@COleControl@@QAEXPAU_POINTL@@PAUtagPOINTF@@K@Z" PURGE="-1" COMMENT="" />
    <EXPORT ORDINAL="14116" NAME="?TrackToolTip@CMFCPropertyGridCtrl@@IAEXVCPoint@@@Z" PURGE="-1" COMMENT="" />
    <EXPORT ORDINAL="14115" NAME="?TrackRubberBand@CRectTracker@@QAEHPAVCWnd@@VCPoint@@H@Z" PURGE="-1" COMMENT="" />
    <EXPORT ORDINAL="14114" NAME="?TrackRowSize@CSplitterWnd@@MAEXHH@Z" PURGE="-1" COMMENT="" />
    <EXPORT ORDINAL="14113" NAME="?TrackPopupMenuEx@CMenu@@QAEHIHHPAVCWnd@@PAUtagTPMPARAMS@@@Z" PURGE="-1" COMMENT="" />
    <EXPORT ORDINAL="14112" NAME="?TrackPopupMenu@CMenu@@QAEHIHHPAVCWnd@@PBUtagRECT@@@Z" PURGE="-1" COMMENT="" />
    <EXPORT ORDINAL="14111" NAME="?TrackPopupMenu@CContextMenuManager@@UAEIPAUHMENU__@@HHPAVCWnd@@H@Z" PURGE="-1" COMMENT="" />
    <EXPORT ORDINAL="14110" NAME="?TrackHeader@CMFCPropertyGridCtrl@@IAEXH@Z" PURGE="-1" COMMENT="" />
    <EXPORT ORDINAL="14109" NAME="?TrackHandle@CRectTracker@@IAEHHPAVCWnd@@VCPoint@@0@Z" PURGE="-1" COMMENT="" />
    <EXPORT ORDINAL="14108" NAME="?TrackDescr@CMFCPropertyGridCtrl@@IAEXH@Z" PURGE="-1" COMMENT="" />
    <EXPORT ORDINAL="14107" NAME="?TrackColumnSize@CSplitterWnd@@MAEXHH@Z" PURGE="-1" COMMENT="" />
    <EXPORT ORDINAL="14106" NAME="?Track@CRectTracker@@QAEHPAVCWnd@@VCPoint@@H0@Z" PURGE="-1" COMMENT="" />
    <EXPORT ORDINAL="14105" NAME="?Track@CMFCPropertyGridToolTipCtrl@@QAEXVCRect@@ABV?$CStringT@DV?$StrTraitMFC_DLL@DV?$ChTraitsCRT@D@ATL@@@@@ATL@@@Z" PURGE="-1" COMMENT="" />
    <EXPORT ORDINAL="14104" NAME="?Track@CMFCDropDownListBox@@QAEXVCPoint@@PAVCWnd@@@Z" PURGE="-1" COMMENT="" />
    <EXPORT ORDINAL="14103" NAME="?Track@CDockContext@@QAEHXZ" PURGE="-1" COMMENT="" />
    <EXPORT ORDINAL="14101" NAME="?ToolBarMouseHookProc@CMFCToolBar@@KGJHIJ@Z" PURGE="-1" COMMENT="" />
    <EXPORT ORDINAL="14099" NAME="?Tokenize@?$CStringT@_WV?$StrTraitMFC_DLL@_WV?$ChTraitsCRT@_W@ATL@@@@@ATL@@QBE?AV12@PB_WAAH@Z" PURGE="-1" COMMENT="" />
    <EXPORT ORDINAL="14100" NAME="?Tokenize@?$CStringT@DV?$StrTraitMFC_DLL@DV?$ChTraitsCRT@D@ATL@@@@@ATL@@QBE?AV12@PBDAAH@Z" PURGE="-1" COMMENT="" />
    <EXPORT ORDINAL="14098" NAME="?ToggleMimimizeState@CMFCRibbonBar@@QAEXXZ" PURGE="-1" COMMENT="" />
    <EXPORT ORDINAL="14097" NAME="?ToggleDocking@CDockContext@@UAEXXZ" PURGE="-1" COMMENT="" />
    <EXPORT ORDINAL="14096" NAME="?ToggleAutoHide@CDockablePane@@UAEXXZ" PURGE="-1" COMMENT="" />
    <EXPORT ORDINAL="14102" NAME="?ToVariant@CDataSourceControl@@QAE?AVCOleVariant@@H@Z" PURGE="-1" COMMENT="" />
    <EXPORT ORDINAL="14095" NAME="?ThrowOsError@CFileException@@SGXJPBD@Z" PURGE="-1" COMMENT="" />
    <EXPORT ORDINAL="14093" NAME="?ThrowMemoryException@?$CSimpleStringT@_W$00@ATL@@KAXXZ" PURGE="-1" COMMENT="" />
    <EXPORT ORDINAL="14094" NAME="?ThrowMemoryException@?$CSimpleStringT@D$00@ATL@@KAXXZ" PURGE="-1" COMMENT="" />
    <EXPORT ORDINAL="14092" NAME="?ThrowGetRowsDaoException@@YAXJ@Z" PURGE="-1" COMMENT="" />
    <EXPORT ORDINAL="14091" NAME="?ThrowError@COleControl@@QAEXJPBDI@Z" PURGE="-1" COMMENT="" />
    <EXPORT ORDINAL="14090" NAME="?ThrowError@COleControl@@QAEXJII@Z" PURGE="-1" COMMENT="" />
    <EXPORT ORDINAL="14089" NAME="?ThrowErrno@CFileException@@SGXHPBD@Z" PURGE="-1" COMMENT="" />
    <EXPORT ORDINAL="14088" NAME="?ThrowDaoException@CDaoWorkspace@@MAEXH@Z" PURGE="-1" COMMENT="" />
    <EXPORT ORDINAL="14087" NAME="?ThrowDaoException@CDaoTableDef@@MAEXH@Z" PURGE="-1" COMMENT="" />
    <EXPORT ORDINAL="14086" NAME="?ThrowDaoException@CDaoRecordset@@MAEXH@Z" PURGE="-1" COMMENT="" />
    <EXPORT ORDINAL="14085" NAME="?ThrowDaoException@CDaoQueryDef@@MAEXH@Z" PURGE="-1" COMMENT="" />
    <EXPORT ORDINAL="14084" NAME="?ThrowDaoException@CDaoDatabase@@MAEXH@Z" PURGE="-1" COMMENT="" />
    <EXPORT ORDINAL="14083" NAME="?TextToVar@CMFCPropertyGridProperty@@MAEHABV?$CStringT@DV?$StrTraitMFC_DLL@DV?$ChTraitsCRT@D@ATL@@@@@ATL@@@Z" PURGE="-1" COMMENT="" />
    <EXPORT ORDINAL="14082" NAME="?TextOutA@CPreviewDC@@UAEHHHPBDH@Z" PURGE="-1" COMMENT="" />
    <EXPORT ORDINAL="14081" NAME="?TextOutA@CMetaFileDC@@UAEHHHPBDH@Z" PURGE="-1" COMMENT="" />
    <EXPORT ORDINAL="14080" NAME="?TextNotFound@CRichEditView@@QAEXPBD@Z" PURGE="-1" COMMENT="" />
    <EXPORT ORDINAL="14079" NAME="?Tessellate@CD2DGeometry@@QBEHABUD2D_MATRIX_3X2_F@@PAUID2D1TessellationSink@@M@Z" PURGE="-1" COMMENT="" />
    <EXPORT ORDINAL="14078" NAME="?TearOff@CMFCPopupMenu@@MAEHVCPoint@@@Z" PURGE="-1" COMMENT="" />
    <EXPORT ORDINAL="14077" NAME="?TaskHitTest@CMFCTasksPane@@IBEPAVCMFCTasksPaneTask@@VCPoint@@@Z" PURGE="-1" COMMENT="" />
    <EXPORT ORDINAL="14075" NAME="?TabbedTextOutA@CPreviewDC@@UAE?AVCSize@@HHPBDHHPAHH@Z" PURGE="-1" COMMENT="" />
    <EXPORT ORDINAL="14074" NAME="?TabbedTextOutA@CMetaFileDC@@UAE?AVCSize@@HHPBDHHPAHH@Z" PURGE="-1" COMMENT="" />
    <EXPORT ORDINAL="14073" NAME="?TabbedDocumentToControlBar@CMDIFrameWndEx@@UAEHPAVCMDIChildWndEx@@@Z" PURGE="-1" COMMENT="" />
    <EXPORT ORDINAL="14076" NAME="?TabWndFromPoint@CMDIClientAreaWnd@@AAEPAVCMFCTabCtrl@@VCPoint@@@Z" PURGE="-1" COMMENT="" />
    <EXPORT ORDINAL="14071" NAME="?SynchronizeScrollBar@CMFCTabCtrl@@QAEHPAUtagSCROLLINFO@@@Z" PURGE="-1" COMMENT="" />
    <EXPORT ORDINAL="14072" NAME="?SyncToRichEditObject@CRichEditCntrItem@@QAEXAAU_reobject@@@Z" PURGE="-1" COMMENT="" />
    <EXPORT ORDINAL="14070" NAME="?SyncBefore@XNotifyDBEvents@COleControlSite@@UAGJKKQAUtagDBNOTIFYREASON@@@Z" PURGE="-1" COMMENT="" />
    <EXPORT ORDINAL="14069" NAME="?SyncAfter@XNotifyDBEvents@COleControlSite@@UAGJKKQAUtagDBNOTIFYREASON@@@Z" PURGE="-1" COMMENT="" />
    <EXPORT ORDINAL="14068" NAME="?SwapTabs@CMFCTabCtrl@@UAEXHH@Z" PURGE="-1" COMMENT="" />
    <EXPORT ORDINAL="14067" NAME="?SwapTabs@CMFCBaseTabCtrl@@UAEXHH@Z" PURGE="-1" COMMENT="" />
    <EXPORT ORDINAL="14066" NAME="?SwapRows@CDockSite@@QAEXPAVCDockingPanesRow@@0@Z" PURGE="-1" COMMENT="" />
    <EXPORT ORDINAL="14065" NAME="?SupportsIPrint@COleDocObjectItem@@IAEHXZ" PURGE="-1" COMMENT="" />
    <EXPORT ORDINAL="14064" NAME="?SubclassWindow@CWnd@@QAEHPAUHWND__@@@Z" PURGE="-1" COMMENT="" />
    <EXPORT ORDINAL="14063" NAME="?SubclassDlgItem@CWnd@@QAEHIPAV1@@Z" PURGE="-1" COMMENT="" />
    <EXPORT ORDINAL="14062" NAME="?SubclassDlgControls@CMFCControlContainer@@QAEHXZ" PURGE="-1" COMMENT="" />
    <EXPORT ORDINAL="14061" NAME="?StrokeContainsPoint@CD2DGeometry@@QBEHVCD2DPointF@@MPAUID2D1StrokeStyle@@ABUD2D_MATRIX_3X2_F@@PAHM@Z" PURGE="-1" COMMENT="" />
    <EXPORT ORDINAL="14060" NAME="?StripBrackets@CDaoRecordset@@SAXPBDPAD@Z" PURGE="-1" COMMENT="" />
    <EXPORT ORDINAL="14056" NAME="?StringLength@?$CSimpleStringT@_W$00@ATL@@SAHPB_W@Z" PURGE="-1" COMMENT="" />
    <EXPORT ORDINAL="14057" NAME="?StringLength@?$CSimpleStringT@_W$00@ATL@@SAHPBD@Z" PURGE="-1" COMMENT="" />
    <EXPORT ORDINAL="14058" NAME="?StringLength@?$CSimpleStringT@D$00@ATL@@SAHPB_W@Z" PURGE="-1" COMMENT="" />
    <EXPORT ORDINAL="14059" NAME="?StringLength@?$CSimpleStringT@D$00@ATL@@SAHPBD@Z" PURGE="-1" COMMENT="" />
    <EXPORT ORDINAL="14055" NAME="?StringFromDecimal@CGlobalUtils@@QAEHAAV?$CStringT@DV?$StrTraitMFC_DLL@DV?$ChTraitsCRT@D@ATL@@@@@ATL@@AAUtagDEC@@@Z" PURGE="-1" COMMENT="" />
    <EXPORT ORDINAL="14054" NAME="?StringFromCy@CGlobalUtils@@QAEHAAV?$CStringT@DV?$StrTraitMFC_DLL@DV?$ChTraitsCRT@D@ATL@@@@@ATL@@AATtagCY@@@Z" PURGE="-1" COMMENT="" />
    <EXPORT ORDINAL="14053" NAME="?StretchToWholeRow@CMFCRibbonBaseElement@@UAEHPAVCDC@@H@Z" PURGE="-1" COMMENT="" />
    <EXPORT ORDINAL="14052" NAME="?StretchPaneRect@CDockingPanesRow@@IAEHPAVCPane@@H@Z" PURGE="-1" COMMENT="" />
    <EXPORT ORDINAL="14051" NAME="?StretchPaneDeferWndPos@CPane@@UAEHHAAPAX@Z" PURGE="-1" COMMENT="" />
    <EXPORT ORDINAL="14050" NAME="?StretchPaneContainer@CPaneContainer@@UAEHHHHHAAPAX@Z" PURGE="-1" COMMENT="" />
    <EXPORT ORDINAL="14049" NAME="?StretchPane@CMFCToolBar@@UAE?AVCSize@@HH@Z" PURGE="-1" COMMENT="" />
    <EXPORT ORDINAL="14048" NAME="?StretchPane@CMFCAutoHideBar@@UAE?AVCSize@@HH@Z" PURGE="-1" COMMENT="" />
    <EXPORT ORDINAL="14047" NAME="?Stretch@CDockContext@@QAEXVCPoint@@@Z" PURGE="-1" COMMENT="" />
    <EXPORT ORDINAL="14046" NAME="?Stream@CRichEditView@@QAEXAAVCArchive@@H@Z" PURGE="-1" COMMENT="" />
    <EXPORT ORDINAL="14045" NAME="?Stream@CD2DPathGeometry@@QAEHPAUID2D1GeometrySink@@@Z" PURGE="-1" COMMENT="" />
    <EXPORT ORDINAL="14044" NAME="?StoreWindowPlacement@CWinAppEx@@MAEHABVCRect@@HH@Z" PURGE="-1" COMMENT="" />
    <EXPORT ORDINAL="14043" NAME="?StoreWindowPlacement@CFrameImpl@@IAEXXZ" PURGE="-1" COMMENT="" />
    <EXPORT ORDINAL="14042" NAME="?StoreRecentTabRelatedInfo@CPaneFrameWnd@@UAEXPAVCDockablePane@@0@Z" PURGE="-1" COMMENT="" />
    <EXPORT ORDINAL="14041" NAME="?StoreRecentTabRelatedInfo@CPaneDivider@@QAEXPAVCDockablePane@@0@Z" PURGE="-1" COMMENT="" />
    <EXPORT ORDINAL="14040" NAME="?StoreRecentTabRelatedInfo@CMultiPaneFrameWnd@@UAEXPAVCDockablePane@@0@Z" PURGE="-1" COMMENT="" />
    <EXPORT ORDINAL="14039" NAME="?StoreRecentTabRelatedInfo@CDockablePane@@MAEXXZ" PURGE="-1" COMMENT="" />
    <EXPORT ORDINAL="14038" NAME="?StoreRecentDockSiteInfo@CPaneFrameWnd@@UAEXPAVCPane@@@Z" PURGE="-1" COMMENT="" />
    <EXPORT ORDINAL="14037" NAME="?StoreRecentDockSiteInfo@CPaneDivider@@QAEXPAVCDockablePane@@@Z" PURGE="-1" COMMENT="" />
    <EXPORT ORDINAL="14036" NAME="?StoreRecentDockSiteInfo@CPaneContainerManager@@UAEXPAVCDockablePane@@@Z" PURGE="-1" COMMENT="" />
    <EXPORT ORDINAL="14035" NAME="?StoreRecentDockSiteInfo@CPaneContainer@@UAEXPAVCDockablePane@@@Z" PURGE="-1" COMMENT="" />
    <EXPORT ORDINAL="14034" NAME="?StoreRecentDockSiteInfo@CPane@@MAEXXZ" PURGE="-1" COMMENT="" />
    <EXPORT ORDINAL="14033" NAME="?StoreRecentDockSiteInfo@CMultiPaneFrameWnd@@UAEXPAVCPane@@@Z" PURGE="-1" COMMENT="" />
    <EXPORT ORDINAL="14032" NAME="?StoreRecentDockSiteInfo@CDockablePane@@MAEXXZ" PURGE="-1" COMMENT="" />
    <EXPORT ORDINAL="14031" NAME="?StoreRecentDockSiteInfo@CBaseTabbedPane@@MAEXXZ" PURGE="-1" COMMENT="" />
    <EXPORT ORDINAL="14030" NAME="?StoreFields@CRecordset@@QAEXXZ" PURGE="-1" COMMENT="" />
    <EXPORT ORDINAL="14029" NAME="?StoreFields@CDaoRecordset@@IAEXXZ" PURGE="-1" COMMENT="" />
    <EXPORT ORDINAL="14028" NAME="?StoreDockInfo@CRecentPaneContainerInfo@@UAEXPAVCPaneContainer@@PAVCDockablePane@@1@Z" PURGE="-1" COMMENT="" />
    <EXPORT ORDINAL="14027" NAME="?StoreDockInfo@CRecentDockSiteInfo@@UAEXPAVCPaneContainer@@PAVCDockablePane@@@Z" PURGE="-1" COMMENT="" />
    <EXPORT ORDINAL="14026" NAME="?Store@CRuntimeClass@@QBEXAAVCArchive@@@Z" PURGE="-1" COMMENT="" />
    <EXPORT ORDINAL="14025" NAME="?StopTracking@CSplitterWnd@@MAEXH@Z" PURGE="-1" COMMENT="" />
    <EXPORT ORDINAL="14024" NAME="?StopTracking@CPaneDivider@@MAEXH@Z" PURGE="-1" COMMENT="" />
    <EXPORT ORDINAL="14023" NAME="?StopResize@CMFCTabCtrl@@QAEXH@Z" PURGE="-1" COMMENT="" />
    <EXPORT ORDINAL="14022" NAME="?StopCaptionButtonsTracking@CPaneFrameWnd@@MAEXXZ" PURGE="-1" COMMENT="" />
    <EXPORT ORDINAL="14021" NAME="?StopCaptionButtonsTracking@CMFCTasksPaneFrameWnd@@MAEXXZ" PURGE="-1" COMMENT="" />
    <EXPORT ORDINAL="14020" NAME="?StopCaptionButtonsTracking@CMFCTasksPane@@MAEXXZ" PURGE="-1" COMMENT="" />
    <EXPORT ORDINAL="14019" NAME="?StopCaptionButtonsTracking@CFrameImpl@@IAEXXZ" PURGE="-1" COMMENT="" />
    <EXPORT ORDINAL="14018" NAME="?StopCaptionButtonsTracking@CDockablePane@@MAEXXZ" PURGE="-1" COMMENT="" />
    <EXPORT ORDINAL="14017" NAME="?StopAnimation@CMFCRibbonStatusBarPane@@QAEXXZ" PURGE="-1" COMMENT="" />
    <EXPORT ORDINAL="14016" NAME="?Stop@CSmartDockingManager@@QAEXXZ" PURGE="-1" COMMENT="" />
    <EXPORT ORDINAL="14015" NAME="?Stat@CArchiveStream@@UAGJPAUtagSTATSTG@@K@Z" PURGE="-1" COMMENT="" />
    <EXPORT ORDINAL="14014" NAME="?StartWindowMove@CMFCDesktopAlertWnd@@IAEXXZ" PURGE="-1" COMMENT="" />
    <EXPORT ORDINAL="14013" NAME="?StartVisualGroup@CFileDialog@@QAEJKABV?$CStringT@DV?$StrTraitMFC_DLL@DV?$ChTraitsCRT@D@ATL@@@@@ATL@@@Z" PURGE="-1" COMMENT="" />
    <EXPORT ORDINAL="14012" NAME="?StartTracking@CSplitterWnd@@MAEXH@Z" PURGE="-1" COMMENT="" />
    <EXPORT ORDINAL="14011" NAME="?StartTearOff@CPaneFrameWnd@@QAEHPAVCMFCPopupMenu@@@Z" PURGE="-1" COMMENT="" />
    <EXPORT ORDINAL="14010" NAME="?StartResize@CMFCPopupMenu@@IAEHXZ" PURGE="-1" COMMENT="" />
    <EXPORT ORDINAL="14009" NAME="?StartResize@CDockContext@@UAEXHVCPoint@@@Z" PURGE="-1" COMMENT="" />
    <EXPORT ORDINAL="14008" NAME="?StartRenameTab@CMFCBaseTabCtrl@@UAEHH@Z" PURGE="-1" COMMENT="" />
    <EXPORT ORDINAL="14007" NAME="?StartPopupMenuTimer@CMFCPopupMenuBar@@QAEXPAVCMFCToolBarMenuButton@@H@Z" PURGE="-1" COMMENT="" />
    <EXPORT ORDINAL="14006" NAME="?StartDrag@CDockContext@@UAEXVCPoint@@@Z" PURGE="-1" COMMENT="" />
    <EXPORT ORDINAL="14005" NAME="?StartDocA@CDC@@QAEHPBD@Z" PURGE="-1" COMMENT="" />
    <EXPORT ORDINAL="14004" NAME="?StartAnimation@CMFCRibbonStatusBarPane@@QAEXII@Z" PURGE="-1" COMMENT="" />
    <EXPORT ORDINAL="14003" NAME="?StartAnimation@CMFCDesktopAlertWnd@@IAEXH@Z" PURGE="-1" COMMENT="" />
    <EXPORT ORDINAL="14002" NAME="?Start@CSmartDockingManager@@QAEXPAVCWnd@@@Z" PURGE="-1" COMMENT="" />
    <EXPORT ORDINAL="14001" NAME="?SplitRow@CSplitterWnd@@UAEHH@Z" PURGE="-1" COMMENT="" />
    <EXPORT ORDINAL="14000" NAME="?SplitDialogTemplate@COccManager@@UAEPAUDLGTEMPLATE@@PBU2@PAPAUDLGITEMTEMPLATE@@@Z" PURGE="-1" COMMENT="" />
    <EXPORT ORDINAL="13999" NAME="?SplitColumn@CSplitterWnd@@UAEHH@Z" PURGE="-1" COMMENT="" />
    <EXPORT ORDINAL="13997" NAME="?SpanIncluding@?$CStringT@_WV?$StrTraitMFC_DLL@_WV?$ChTraitsCRT@_W@ATL@@@@@ATL@@QBE?AV12@PB_W@Z" PURGE="-1" COMMENT="" />
    <EXPORT ORDINAL="13998" NAME="?SpanIncluding@?$CStringT@DV?$StrTraitMFC_DLL@DV?$ChTraitsCRT@D@ATL@@@@@ATL@@QBE?AV12@PBD@Z" PURGE="-1" COMMENT="" />
    <EXPORT ORDINAL="13995" NAME="?SpanExcluding@?$CStringT@_WV?$StrTraitMFC_DLL@_WV?$ChTraitsCRT@_W@ATL@@@@@ATL@@QBE?AV12@PB_W@Z" PURGE="-1" COMMENT="" />
    <EXPORT ORDINAL="13996" NAME="?SpanExcluding@?$CStringT@DV?$StrTraitMFC_DLL@DV?$ChTraitsCRT@D@ATL@@@@@ATL@@QBE?AV12@PBD@Z" PURGE="-1" COMMENT="" />
    <EXPORT ORDINAL="13994" NAME="?Sort@CMFCListCtrl@@UAEXHHH@Z" PURGE="-1" COMMENT="" />
    <EXPORT ORDINAL="13993" NAME="?Socket@CAsyncSocket@@QAEHHJHH@Z" PURGE="-1" COMMENT="" />
    <EXPORT ORDINAL="13992" NAME="?SmoothResize@CMFCToolBarImages@@QAEHN@Z" PURGE="-1" COMMENT="" />
    <EXPORT ORDINAL="13991" NAME="?SmoothResize@CMFCControlRenderer@@QAEHN@Z" PURGE="-1" COMMENT="" />
    <EXPORT ORDINAL="13990" NAME="?SmartUpdate@CMFCToolBar@@MAEHABVCObList@@@Z" PURGE="-1" COMMENT="" />
    <EXPORT ORDINAL="13989" NAME="?SmartUpdate@CMFCOutlookBarPane@@UAEHABVCObList@@@Z" PURGE="-1" COMMENT="" />
    <EXPORT ORDINAL="13988" NAME="?SmartMixColors@CDrawingManager@@SGKKKNHH@Z" PURGE="-1" COMMENT="" />
    <EXPORT ORDINAL="13987" NAME="?Slide@CDockablePane@@UAEXHH@Z" PURGE="-1" COMMENT="" />
    <EXPORT ORDINAL="13986" NAME="?SkipDeletedRecords@CRecordset@@QAEXGJPAKPAF@Z" PURGE="-1" COMMENT="" />
    <EXPORT ORDINAL="13985" NAME="?Skip@XEnumVOID@CEnumArray@@UAGJK@Z" PURGE="-1" COMMENT="" />
    <EXPORT ORDINAL="13984" NAME="?SizeToolBar@CToolBar@@IAEXPAU_TBBUTTON@@HHH@Z" PURGE="-1" COMMENT="" />
    <EXPORT ORDINAL="13983" NAME="?SizeToolBar@CMFCToolBar@@IAEXHH@Z" PURGE="-1" COMMENT="" />
    <EXPORT ORDINAL="13982" NAME="?SizeToContent@CPaneFrameWnd@@UAEXXZ" PURGE="-1" COMMENT="" />
    <EXPORT ORDINAL="13981" NAME="?SizeToContent@CMFCMenuButton@@UAE?AVCSize@@H@Z" PURGE="-1" COMMENT="" />
    <EXPORT ORDINAL="13980" NAME="?SizeToContent@CMFCLinkCtrl@@UAE?AVCSize@@HH@Z" PURGE="-1" COMMENT="" />
    <EXPORT ORDINAL="13979" NAME="?SizeToContent@CMFCColorButton@@UAE?AVCSize@@H@Z" PURGE="-1" COMMENT="" />
    <EXPORT ORDINAL="13978" NAME="?SizeToContent@CMFCButton@@UAE?AVCSize@@H@Z" PURGE="-1" COMMENT="" />
    <EXPORT ORDINAL="13977" NAME="?SizeToContent@CBitmapButton@@QAEXXZ" PURGE="-1" COMMENT="" />
    <EXPORT ORDINAL="13976" NAME="?SizeMinReq@CMonthCalCtrl@@QAEHH@Z" PURGE="-1" COMMENT="" />
    <EXPORT ORDINAL="13974" NAME="?Size@CMenuImages@@SG?AVCSize@@XZ" PURGE="-1" COMMENT="" />
    <EXPORT ORDINAL="13973" NAME="?Simplify@CD2DGeometry@@QBEHW4D2D1_GEOMETRY_SIMPLIFICATION_OPTION@@ABUD2D_MATRIX_3X2_F@@PAUID2D1SimplifiedGeometrySink@@M@Z" PURGE="-1" COMMENT="" />
    <EXPORT ORDINAL="13972" NAME="?ShowWithContextMenu@CMFCRibbonMiniToolBar@@QAEHHHIPAVCWnd@@@Z" PURGE="-1" COMMENT="" />
    <EXPORT ORDINAL="13971" NAME="?ShowWindowsDialog@CMDIFrameWndEx@@QAEXXZ" PURGE="-1" COMMENT="" />
    <EXPORT ORDINAL="13970" NAME="?ShowWindow@CWnd@@QAEHH@Z" PURGE="-1" COMMENT="" />
    <EXPORT ORDINAL="13969" NAME="?ShowWindow@CPaneDivider@@QAEXH@Z" PURGE="-1" COMMENT="" />
    <EXPORT ORDINAL="13968" NAME="?ShowWindow@COleControlSite@@UAEHH@Z" PURGE="-1" COMMENT="" />
    <EXPORT ORDINAL="13967" NAME="?ShowUI@XDocHostUIHandler@CHtmlControlSite@@UAGJKPAUIOleInPlaceActiveObject@@PAUIOleCommandTarget@@PAUIOleInPlaceFrame@@PAUIOleInPlaceUIWindow@@@Z" PURGE="-1" COMMENT="" />
    <EXPORT ORDINAL="13966" NAME="?ShowUI@CDHtmlDialog@@UAGJKPAUIOleInPlaceActiveObject@@PAUIOleCommandTarget@@PAUIOleInPlaceFrame@@PAUIOleInPlaceUIWindow@@@Z" PURGE="-1" COMMENT="" />
    <EXPORT ORDINAL="13965" NAME="?ShowUI@CBrowserControlSite@@MAGJKPAUIOleInPlaceActiveObject@@PAUIOleCommandTarget@@PAUIOleInPlaceFrame@@PAUIOleInPlaceUIWindow@@@Z" PURGE="-1" COMMENT="" />
    <EXPORT ORDINAL="13964" NAME="?ShowToolBar@CMFCToolBarsListPropertyPage@@QAEXPAVCMFCToolBar@@H@Z" PURGE="-1" COMMENT="" />
    <EXPORT ORDINAL="13963" NAME="?ShowToolBar@CMFCToolBarsCustomizeDialog@@IAEXPAVCMFCToolBar@@H@Z" PURGE="-1" COMMENT="" />
    <EXPORT ORDINAL="13962" NAME="?ShowTaskByCmdId@CMFCTasksPane@@QAEHIHH@Z" PURGE="-1" COMMENT="" />
    <EXPORT ORDINAL="13961" NAME="?ShowTask@CMFCTasksPane@@QAEHHHHH@Z" PURGE="-1" COMMENT="" />
    <EXPORT ORDINAL="13960" NAME="?ShowTabbedPlaceAt@CSmartDockingManager@@QAEXVCRect@@HHH@Z" PURGE="-1" COMMENT="" />
    <EXPORT ORDINAL="13959" NAME="?ShowTabbedAt@CSmartDockingHighlighterWnd@@QAEXVCRect@@0@Z" PURGE="-1" COMMENT="" />
    <EXPORT ORDINAL="13958" NAME="?ShowTab@CMFCBaseTabCtrl@@UAEHHHHH@Z" PURGE="-1" COMMENT="" />
    <EXPORT ORDINAL="13957" NAME="?ShowTab@CBaseTabbedPane@@UAEHPAVCWnd@@HHH@Z" PURGE="-1" COMMENT="" />
    <EXPORT ORDINAL="13956" NAME="?ShowSysMenu@CMFCRibbonBar@@IAEXABVCPoint@@@Z" PURGE="-1" COMMENT="" />
    <EXPORT ORDINAL="13955" NAME="?ShowRow@CDockSite@@QAEXPAVCDockingPanesRow@@HH@Z" PURGE="-1" COMMENT="" />
    <EXPORT ORDINAL="13954" NAME="?ShowQuickCustomizePane@CFrameImpl@@IAEXPAVCMFCPopupMenu@@@Z" PURGE="-1" COMMENT="" />
    <EXPORT ORDINAL="13953" NAME="?ShowPropertyFrame@XOleControlSite@COleControlSite@@UAGJXZ" PURGE="-1" COMMENT="" />
    <EXPORT ORDINAL="13952" NAME="?ShowPopupMenu@CWinAppEx@@UAEHIABVCPoint@@PAVCWnd@@@Z" PURGE="-1" COMMENT="" />
    <EXPORT ORDINAL="13951" NAME="?ShowPopupMenu@COleIPFrameWndEx@@IAEHPAVCMFCPopupMenu@@@Z" PURGE="-1" COMMENT="" />
    <EXPORT ORDINAL="13950" NAME="?ShowPopupMenu@COleDocIPFrameWndEx@@IAEHPAVCMFCPopupMenu@@@Z" PURGE="-1" COMMENT="" />
    <EXPORT ORDINAL="13949" NAME="?ShowPopupMenu@CMDIFrameWndEx@@IAEHPAVCMFCPopupMenu@@@Z" PURGE="-1" COMMENT="" />
    <EXPORT ORDINAL="13948" NAME="?ShowPopupMenu@CFrameWndEx@@IAEHPAVCMFCPopupMenu@@@Z" PURGE="-1" COMMENT="" />
    <EXPORT ORDINAL="13947" NAME="?ShowPopupMenu@CContextMenuManager@@UAEPAVCMFCPopupMenu@@PAUHMENU__@@HHPAVCWnd@@HHH@Z" PURGE="-1" COMMENT="" />
    <EXPORT ORDINAL="13946" NAME="?ShowPopupMenu@CContextMenuManager@@UAEHIHHPAVCWnd@@HH@Z" PURGE="-1" COMMENT="" />
    <EXPORT ORDINAL="13945" NAME="?ShowPopup@CMFCRibbonPanel@@QAEPAVCMFCRibbonPanelMenu@@PAVCMFCRibbonDefaultPanelButton@@@Z" PURGE="-1" COMMENT="" />
    <EXPORT ORDINAL="13944" NAME="?ShowPlaceAt@CSmartDockingManager@@QAEXVCRect@@@Z" PURGE="-1" COMMENT="" />
    <EXPORT ORDINAL="13943" NAME="?ShowPanes@CDockingManager@@UAEHH@Z" PURGE="-1" COMMENT="" />
    <EXPORT ORDINAL="13942" NAME="?ShowPane@COleIPFrameWndEx@@QAEXPAVCBasePane@@HHH@Z" PURGE="-1" COMMENT="" />
    <EXPORT ORDINAL="13941" NAME="?ShowPane@COleDocIPFrameWndEx@@QAEXPAVCBasePane@@HHH@Z" PURGE="-1" COMMENT="" />
    <EXPORT ORDINAL="13940" NAME="?ShowPane@COleCntrFrameWndEx@@QAEXPAVCBasePane@@HHH@Z" PURGE="-1" COMMENT="" />
    <EXPORT ORDINAL="13939" NAME="?ShowPane@CMDIFrameWndEx@@QAEXPAVCBasePane@@HHH@Z" PURGE="-1" COMMENT="" />
    <EXPORT ORDINAL="13938" NAME="?ShowPane@CMDIChildWndEx@@QAEXPAVCBasePane@@HHH@Z" PURGE="-1" COMMENT="" />
    <EXPORT ORDINAL="13937" NAME="?ShowPane@CFrameWndEx@@QAEXPAVCBasePane@@HHH@Z" PURGE="-1" COMMENT="" />
    <EXPORT ORDINAL="13935" NAME="?ShowPane@CDockingPanesRow@@UAEHPAVCPane@@HH@Z" PURGE="-1" COMMENT="" />
    <EXPORT ORDINAL="13934" NAME="?ShowPane@CDockablePane@@UAEXHHH@Z" PURGE="-1" COMMENT="" />
    <EXPORT ORDINAL="13936" NAME="?ShowPane@CDockSite@@UAEHPAVCBasePane@@HHH@Z" PURGE="-1" COMMENT="" />
    <EXPORT ORDINAL="13933" NAME="?ShowPane@CBasePane@@UAEXHHH@Z" PURGE="-1" COMMENT="" />
    <EXPORT ORDINAL="13932" NAME="?ShowOwnedWindows@CFrameWnd@@QAEXH@Z" PURGE="-1" COMMENT="" />
    <EXPORT ORDINAL="13931" NAME="?ShowObject@XOleClientSite@COleControlSite@@UAGJXZ" PURGE="-1" COMMENT="" />
    <EXPORT ORDINAL="13930" NAME="?ShowObject@XOleClientSite@COleClientItem@@UAGJXZ" PURGE="-1" COMMENT="" />
    <EXPORT ORDINAL="13929" NAME="?ShowMenu@CMFCCaptionMenuButton@@QAEXPAUHMENU__@@PAVCWnd@@@Z" PURGE="-1" COMMENT="" />
    <EXPORT ORDINAL="13928" NAME="?ShowMainMenu@CMFCRibbonApplicationButton@@IAEHXZ" PURGE="-1" COMMENT="" />
    <EXPORT ORDINAL="13927" NAME="?ShowKeyTips@CMFCRibbonBar@@QAEXH@Z" PURGE="-1" COMMENT="" />
    <EXPORT ORDINAL="13926" NAME="?ShowGuide@CSmartDockingGroupGuidesManager@@QAEXW4SDMarkerPlace@CSmartDockingStandaloneGuide@@HH@Z" PURGE="-1" COMMENT="" />
    <EXPORT ORDINAL="13925" NAME="?ShowFullScreen@CFullScreenImpl@@QAEXXZ" PURGE="-1" COMMENT="" />
    <EXPORT ORDINAL="13924" NAME="?ShowFullScreen@CFullScreenImpl@@QAEXPAVCFrameWnd@@@Z" PURGE="-1" COMMENT="" />
    <EXPORT ORDINAL="13923" NAME="?ShowFloating@CMFCRibbonCategory@@IAEXVCRect@@@Z" PURGE="-1" COMMENT="" />
    <EXPORT ORDINAL="13922" NAME="?ShowElements@CMFCRibbonCategory@@IAEXH@Z" PURGE="-1" COMMENT="" />
    <EXPORT ORDINAL="13921" NAME="?ShowDockSiteRow@CDockingPanesRow@@UAEXHH@Z" PURGE="-1" COMMENT="" />
    <EXPORT ORDINAL="13920" NAME="?ShowDelayShowMiniFrames@CDockingManager@@UAEXH@Z" PURGE="-1" COMMENT="" />
    <EXPORT ORDINAL="13919" NAME="?ShowDefaultButton@CMFCRibbonPanel@@IAEXPAVCDC@@@Z" PURGE="-1" COMMENT="" />
    <EXPORT ORDINAL="13918" NAME="?ShowControlBar@CFrameWnd@@QAEXPAVCControlBar@@HH@Z" PURGE="-1" COMMENT="" />
    <EXPORT ORDINAL="13917" NAME="?ShowContextMenu@XDocHostUIHandler@CHtmlControlSite@@UAGJKPAUtagPOINT@@PAUIUnknown@@PAUIDispatch@@@Z" PURGE="-1" COMMENT="" />
    <EXPORT ORDINAL="13916" NAME="?ShowContextMenu@CDHtmlDialog@@UAGJKPAUtagPOINT@@PAUIUnknown@@PAUIDispatch@@@Z" PURGE="-1" COMMENT="" />
    <EXPORT ORDINAL="13915" NAME="?ShowContextMenu@CBrowserControlSite@@MAGJKPAUtagPOINT@@PAUIUnknown@@PAUIDispatch@@@Z" PURGE="-1" COMMENT="" />
    <EXPORT ORDINAL="13914" NAME="?ShowContextCategories@CMFCRibbonBar@@QAEXIH@Z" PURGE="-1" COMMENT="" />
    <EXPORT ORDINAL="13913" NAME="?ShowContainerUI@XRichEditOleCallback@CRichEditView@@UAGJH@Z" PURGE="-1" COMMENT="" />
    <EXPORT ORDINAL="13912" NAME="?ShowContainerUI@CRichEditView@@QAEJH@Z" PURGE="-1" COMMENT="" />
    <EXPORT ORDINAL="13911" NAME="?ShowContainerUI@CRichEditCntrItem@@QAEJH@Z" PURGE="-1" COMMENT="" />
    <EXPORT ORDINAL="13910" NAME="?ShowCommandMessageString@CMFCToolBar@@MAEXI@Z" PURGE="-1" COMMENT="" />
    <EXPORT ORDINAL="13909" NAME="?ShowCommandMessageString@CMFCTasksPane@@UAEXI@Z" PURGE="-1" COMMENT="" />
    <EXPORT ORDINAL="13908" NAME="?ShowCommandMessageString@CMFCPopupMenuBar@@MAEXI@Z" PURGE="-1" COMMENT="" />
    <EXPORT ORDINAL="13907" NAME="?ShowCommandMessageString@CMFCColorBar@@MAEXI@Z" PURGE="-1" COMMENT="" />
    <EXPORT ORDINAL="13906" NAME="?ShowCentralGroup@CSmartDockingManager@@QAEXHK@Z" PURGE="-1" COMMENT="" />
    <EXPORT ORDINAL="13905" NAME="?ShowCategory@CMFCRibbonBar@@QAEXHH@Z" PURGE="-1" COMMENT="" />
    <EXPORT ORDINAL="13904" NAME="?ShowButton@CPaneFrameWnd@@IAEXIH@Z" PURGE="-1" COMMENT="" />
    <EXPORT ORDINAL="13903" NAME="?ShowButton@CMFCAutoHideButton@@UAEXH@Z" PURGE="-1" COMMENT="" />
    <EXPORT ORDINAL="13902" NAME="?ShowAutoHideWindow@CMFCAutoHideBar@@QAEHPAVCDockablePane@@HH@Z" PURGE="-1" COMMENT="" />
    <EXPORT ORDINAL="13901" NAME="?ShowAttachedWindow@CMFCAutoHideButton@@QAEXH@Z" PURGE="-1" COMMENT="" />
    <EXPORT ORDINAL="13900" NAME="?ShowAt@CSmartDockingHighlighterWnd@@QAEXVCRect@@@Z" PURGE="-1" COMMENT="" />
    <EXPORT ORDINAL="13899" NAME="?ShowAppMessageBox@CWinApp@@SAHPAV1@PBDII@Z" PURGE="-1" COMMENT="" />
    <EXPORT ORDINAL="13898" NAME="?ShowAllCommands@CMFCPopupMenu@@QAEXXZ" PURGE="-1" COMMENT="" />
    <EXPORT ORDINAL="13897" NAME="?ShowAllAccelerators@CKeyboardManager@@SGXH@Z" PURGE="-1" COMMENT="" />
    <EXPORT ORDINAL="13896" NAME="?ShowAll@CDockBar@@QAEXH@Z" PURGE="-1" COMMENT="" />
    <EXPORT ORDINAL="13895" NAME="?Show@XPropertyPage@COlePropertyPage@@UAGJI@Z" PURGE="-1" COMMENT="" />
    <EXPORT ORDINAL="13894" NAME="?Show@XOleDocumentView@CDocObjectServer@@UAGJH@Z" PURGE="-1" COMMENT="" />
    <EXPORT ORDINAL="13893" NAME="?Show@CSmartDockingStandaloneGuide@@UAEXH@Z" PURGE="-1" COMMENT="" />
    <EXPORT ORDINAL="13892" NAME="?Show@CSmartDockingManager@@QAEXH@Z" PURGE="-1" COMMENT="" />
    <EXPORT ORDINAL="13891" NAME="?Show@CSmartDockingGroupGuidesManager@@UAEXH@Z" PURGE="-1" COMMENT="" />
    <EXPORT ORDINAL="13890" NAME="?Show@CSmartDockingGroupGuide@@UAEXH@Z" PURGE="-1" COMMENT="" />
    <EXPORT ORDINAL="13889" NAME="?Show@CMFCRibbonMiniToolBar@@QAEHHH@Z" PURGE="-1" COMMENT="" />
    <EXPORT ORDINAL="13888" NAME="?Show@CMFCRibbonKeyTip@@QAEHH@Z" PURGE="-1" COMMENT="" />
    <EXPORT ORDINAL="13887" NAME="?Show@CMFCPropertyGridProperty@@QAEXHH@Z" PURGE="-1" COMMENT="" />
    <EXPORT ORDINAL="13886" NAME="?ShiftPanesRect@CDockingPanesRow@@IAEXPAVCPane@@HH@Z" PURGE="-1" COMMENT="" />
    <EXPORT ORDINAL="13885" NAME="?ShiftPanes@CDockingPanesRow@@AAEXPAVCPane@@HH@Z" PURGE="-1" COMMENT="" />
    <EXPORT ORDINAL="13884" NAME="?ShellCreateItemFromParsingName@AFX_GLOBAL_DATA@@QAEJPB_WPAUIBindCtx@@ABU_GUID@@PAPAX@Z" PURGE="-1" COMMENT="" />
    <EXPORT ORDINAL="13835" NAME="?SetupToolbarMenu@CFrameImpl@@IAEXAAVCMenu@@II@Z" PURGE="-1" COMMENT="" />
    <EXPORT ORDINAL="13834" NAME="?SetupTearOffMenus@CMenuTearOffManager@@QAEXPAUHMENU__@@@Z" PURGE="-1" COMMENT="" />
    <EXPORT ORDINAL="13833" NAME="?SetupFromMenus@CMFCToolBarsCustomizeDialog@@IAEXXZ" PURGE="-1" COMMENT="" />
    <EXPORT ORDINAL="13830" NAME="?Setup@CMFCFontComboBox@@QAEHHEE@Z" PURGE="-1" COMMENT="" />
    <EXPORT ORDINAL="13829" NAME="?Setup@CMFCCustomColorsPropertyPage@@QAEXEEE@Z" PURGE="-1" COMMENT="" />
    <EXPORT ORDINAL="13883" NAME="?SetZoomState@CPreviewView@@IAEXIIVCPoint@@@Z" PURGE="-1" COMMENT="" />
    <EXPORT ORDINAL="13882" NAME="?SetZoomIncrement@CMFCRibbonSlider@@QAEXH@Z" PURGE="-1" COMMENT="" />
    <EXPORT ORDINAL="13881" NAME="?SetZoomButtons@CMFCRibbonSlider@@QAEXH@Z" PURGE="-1" COMMENT="" />
    <EXPORT ORDINAL="13880" NAME="?SetWriteBufferSize@CInternetFile@@QAEHI@Z" PURGE="-1" COMMENT="" />
    <EXPORT ORDINAL="13879" NAME="?SetWrappedWnd@CDockablePaneAdapter@@UAEHPAVCWnd@@@Z" PURGE="-1" COMMENT="" />
    <EXPORT ORDINAL="13878" NAME="?SetWorldTransform@CDC@@QAEHPBUtagXFORM@@@Z" PURGE="-1" COMMENT="" />
    <EXPORT ORDINAL="13876" NAME="?SetWordCharFormat@CRichEditCtrl@@QAEHAAU_charformat@@@Z" PURGE="-1" COMMENT="" />
    <EXPORT ORDINAL="13877" NAME="?SetWordCharFormat@CRichEditCtrl@@QAEHAAUCHARFORMAT2A@@@Z" PURGE="-1" COMMENT="" />
    <EXPORT ORDINAL="13872" NAME="?SetWindows7Look@CMFCRibbonBar@@QAEXHH@Z" PURGE="-1" COMMENT="" />
    <EXPORT ORDINAL="13871" NAME="?SetWindows7Image@CMFCRibbonApplicationButton@@QAEXPAUHBITMAP__@@@Z" PURGE="-1" COMMENT="" />
    <EXPORT ORDINAL="13870" NAME="?SetWindows7Image@CMFCRibbonApplicationButton@@QAEXI@Z" PURGE="-1" COMMENT="" />
    <EXPORT ORDINAL="13875" NAME="?SetWindowTextA@CWnd@@QAEXPBD@Z" PURGE="-1" COMMENT="" />
    <EXPORT ORDINAL="13874" NAME="?SetWindowTextA@COleControlSite@@UAEXPBD@Z" PURGE="-1" COMMENT="" />
    <EXPORT ORDINAL="13873" NAME="?SetWindowTextA@CMFCMaskedEdit@@QAEXPBD@Z" PURGE="-1" COMMENT="" />
    <EXPORT ORDINAL="13869" NAME="?SetWindowPos@CWnd@@QAEHPBV1@HHHHI@Z" PURGE="-1" COMMENT="" />
    <EXPORT ORDINAL="13868" NAME="?SetWindowPos@COleControlSite@@UAEHPBVCWnd@@HHHHI@Z" PURGE="-1" COMMENT="" />
    <EXPORT ORDINAL="13867" NAME="?SetWindowPos@CBasePane@@UAEPAXPBVCWnd@@HHHHIPAX@Z" PURGE="-1" COMMENT="" />
    <EXPORT ORDINAL="13866" NAME="?SetWindowPlacement@CWnd@@QAEHPBUtagWINDOWPLACEMENT@@@Z" PURGE="-1" COMMENT="" />
    <EXPORT ORDINAL="13865" NAME="?SetWindowOrg@CDC@@QAE?AVCPoint@@HH@Z" PURGE="-1" COMMENT="" />
    <EXPORT ORDINAL="13864" NAME="?SetWindowHeight@CMFCTasksPane@@QAEHPAUHWND__@@H@Z" PURGE="-1" COMMENT="" />
    <EXPORT ORDINAL="13863" NAME="?SetWindowHeight@CMFCTasksPane@@QAEHHPAUHWND__@@H@Z" PURGE="-1" COMMENT="" />
    <EXPORT ORDINAL="13862" NAME="?SetWindowExt@CPreviewDC@@UAE?AVCSize@@HH@Z" PURGE="-1" COMMENT="" />
    <EXPORT ORDINAL="13861" NAME="?SetWindowExt@CDC@@UAE?AVCSize@@HH@Z" PURGE="-1" COMMENT="" />
    <EXPORT ORDINAL="13860" NAME="?SetWindow@XPreviewHandler@CDocument@@UAGJPAUHWND__@@PBUtagRECT@@@Z" PURGE="-1" COMMENT="" />
    <EXPORT ORDINAL="13859" NAME="?SetWidth@CMFCRibbonEdit@@QAEXHH@Z" PURGE="-1" COMMENT="" />
    <EXPORT ORDINAL="13857" NAME="?SetVisible@CSmartDockingGroupGuide@@QAEXHH@Z" PURGE="-1" COMMENT="" />
    <EXPORT ORDINAL="13856" NAME="?SetVirtualRect@CPane@@QAEXABVCRect@@H@Z" PURGE="-1" COMMENT="" />
    <EXPORT ORDINAL="13855" NAME="?SetViewportOrg@CPreviewDC@@UAE?AVCPoint@@HH@Z" PURGE="-1" COMMENT="" />
    <EXPORT ORDINAL="13854" NAME="?SetViewportOrg@CMetaFileDC@@UAE?AVCPoint@@HH@Z" PURGE="-1" COMMENT="" />
    <EXPORT ORDINAL="13853" NAME="?SetViewportOrg@CDC@@UAE?AVCPoint@@HH@Z" PURGE="-1" COMMENT="" />
    <EXPORT ORDINAL="13852" NAME="?SetViewportExt@CPreviewDC@@UAE?AVCSize@@HH@Z" PURGE="-1" COMMENT="" />
    <EXPORT ORDINAL="13851" NAME="?SetViewportExt@CMetaFileDC@@UAE?AVCSize@@HH@Z" PURGE="-1" COMMENT="" />
    <EXPORT ORDINAL="13850" NAME="?SetViewportExt@CDC@@UAE?AVCSize@@HH@Z" PURGE="-1" COMMENT="" />
    <EXPORT ORDINAL="13849" NAME="?SetViewInfo@XOleUIObjInfo@COlePropertiesDialog@@UAGJKPAXKHH@Z" PURGE="-1" COMMENT="" />
    <EXPORT ORDINAL="13848" NAME="?SetVertMargin@CMFCColorBar@@QAEXH@Z" PURGE="-1" COMMENT="" />
    <EXPORT ORDINAL="13847" NAME="?SetValue@CThreadSlotData@@QAEXHPAX@Z" PURGE="-1" COMMENT="" />
    <EXPORT ORDINAL="13846" NAME="?SetValue@CMFCPropertyGridProperty@@UAEXABVCOleVariant@@@Z" PURGE="-1" COMMENT="" />
    <EXPORT ORDINAL="13845" NAME="?SetValue@CMFCMaskedEdit@@IAEHPBDH@Z" PURGE="-1" COMMENT="" />
    <EXPORT ORDINAL="13843" NAME="?SetValidationText@CDaoTableDef@@QAEXPBD@Z" PURGE="-1" COMMENT="" />
    <EXPORT ORDINAL="13842" NAME="?SetValidationRule@CDaoTableDef@@QAEXPBD@Z" PURGE="-1" COMMENT="" />
    <EXPORT ORDINAL="13844" NAME="?SetValidChars@CMFCMaskedEdit@@QAEXPBD@Z" PURGE="-1" COMMENT="" />
    <EXPORT ORDINAL="13858" NAME="?SetVSDotNetLook@CMFCPropertyGridCtrl@@QAEXH@Z" PURGE="-1" COMMENT="" />
    <EXPORT ORDINAL="13841" NAME="?SetUserImages@CMFCToolBar@@SGHPAVCMFCToolBarImages@@@Z" PURGE="-1" COMMENT="" />
    <EXPORT ORDINAL="13840" NAME="?SetUserCategory@CMFCToolBarsCustomizeDialog@@QAEHPBD@Z" PURGE="-1" COMMENT="" />
    <EXPORT ORDINAL="13839" NAME="?SetUserCategory@CMFCToolBarsCommandsPropertyPage@@QAEXPBD@Z" PURGE="-1" COMMENT="" />
    <EXPORT ORDINAL="13838" NAME="?SetUseGlobalTheme@CMFCVisualManagerOffice2003@@SGXH@Z" PURGE="-1" COMMENT="" />
    <EXPORT ORDINAL="13832" NAME="?SetUpdateMethod@CRecordset@@IAEXXZ" PURGE="-1" COMMENT="" />
    <EXPORT ORDINAL="13831" NAME="?SetUpByID@CPaneContainer@@QAEHIPAVCDockablePane@@@Z" PURGE="-1" COMMENT="" />
    <EXPORT ORDINAL="13837" NAME="?SetURLPrefix@CMFCLinkCtrl@@QAEXPBD@Z" PURGE="-1" COMMENT="" />
    <EXPORT ORDINAL="13836" NAME="?SetURL@CMFCLinkCtrl@@QAEXPBD@Z" PURGE="-1" COMMENT="" />
    <EXPORT ORDINAL="13828" NAME="?SetType@CProperty@@QAEXK@Z" PURGE="-1" COMMENT="" />
    <EXPORT ORDINAL="13827" NAME="?SetType@CMFCColorPickerCtrl@@QAEXW4COLORTYPE@1@@Z" PURGE="-1" COMMENT="" />
    <EXPORT ORDINAL="13826" NAME="?SetTwoRowsWithSibling@CMFCToolBar@@QAEXXZ" PURGE="-1" COMMENT="" />
    <EXPORT ORDINAL="13825" NAME="?SetTwipSize@CMFCToolBarFontSizeComboBox@@QAEXH@Z" PURGE="-1" COMMENT="" />
    <EXPORT ORDINAL="13824" NAME="?SetTransparentColor@CMFCOutlookBarPane@@QAEXK@Z" PURGE="-1" COMMENT="" />
    <EXPORT ORDINAL="13823" NAME="?SetTransform@CRenderTarget@@QAEXPBUD2D_MATRIX_3X2_F@@@Z" PURGE="-1" COMMENT="" />
    <EXPORT ORDINAL="13822" NAME="?SetTransform@CRenderTarget@@QAEXABUD2D_MATRIX_3X2_F@@@Z" PURGE="-1" COMMENT="" />
    <EXPORT ORDINAL="13821" NAME="?SetTransform@CD2DBrush@@QAEXPBUD2D_MATRIX_3X2_F@@@Z" PURGE="-1" COMMENT="" />
    <EXPORT ORDINAL="13820" NAME="?SetTopLeftOffset@CPreviewDC@@QAEXVCSize@@@Z" PURGE="-1" COMMENT="" />
    <EXPORT ORDINAL="13819" NAME="?SetTooltipText@CTooltipManager@@SGXPAUtagTOOLINFOA@@PAVCToolTipCtrl@@IV?$CStringT@DV?$StrTraitMFC_DLL@DV?$ChTraitsCRT@D@ATL@@@@@ATL@@PBD@Z" PURGE="-1" COMMENT="" />
    <EXPORT ORDINAL="13817" NAME="?SetTooltipParams@CTooltipManager@@QAEXIPAUCRuntimeClass@@PAVCMFCToolTipInfo@@@Z" PURGE="-1" COMMENT="" />
    <EXPORT ORDINAL="13816" NAME="?SetTooltipFixedWidth@CMFCRibbonBar@@QAEXHH@Z" PURGE="-1" COMMENT="" />
    <EXPORT ORDINAL="13815" NAME="?SetTooltip@CMFCButton@@QAEXPBD@Z" PURGE="-1" COMMENT="" />
    <EXPORT ORDINAL="13812" NAME="?SetToolbarSize@CPreviewViewEx@@IAEXXZ" PURGE="-1" COMMENT="" />
    <EXPORT ORDINAL="13811" NAME="?SetToolbarImageList@CMFCOutlookBarTabCtrl@@QAEHIHK@Z" PURGE="-1" COMMENT="" />
    <EXPORT ORDINAL="13818" NAME="?SetToolTipText@CMFCRibbonBaseElement@@UAEXPBD@Z" PURGE="-1" COMMENT="" />
    <EXPORT ORDINAL="13814" NAME="?SetToolRect@CToolTipCtrl@@QAEXPAVCWnd@@IPBUtagRECT@@@Z" PURGE="-1" COMMENT="" />
    <EXPORT ORDINAL="13813" NAME="?SetToolIcon@CUserTool@@UAEPAUHICON__@@XZ" PURGE="-1" COMMENT="" />
    <EXPORT ORDINAL="13810" NAME="?SetToolBarBtnText@CMFCToolBar@@QAEXIPBDHH@Z" PURGE="-1" COMMENT="" />
    <EXPORT ORDINAL="13809" NAME="?SetToday@CMonthCalCtrl@@QAEXPBVCTime@ATL@@@Z" PURGE="-1" COMMENT="" />
    <EXPORT ORDINAL="13808" NAME="?SetToday@CMonthCalCtrl@@QAEXABVCOleDateTime@ATL@@@Z" PURGE="-1" COMMENT="" />
    <EXPORT ORDINAL="13807" NAME="?SetTitle@CRichEditDoc@@UAEXPBD@Z" PURGE="-1" COMMENT="" />
    <EXPORT ORDINAL="13806" NAME="?SetTitle@CPropertySheet@@QAEXPBDI@Z" PURGE="-1" COMMENT="" />
    <EXPORT ORDINAL="13805" NAME="?SetTitle@CDocument@@UAEXPBD@Z" PURGE="-1" COMMENT="" />
    <EXPORT ORDINAL="13804" NAME="?SetTipText@CMFCStatusBar@@QAEXHPBD@Z" PURGE="-1" COMMENT="" />
    <EXPORT ORDINAL="13803" NAME="?SetTimeAll@CMFCToolBarDateTimeCtrl@@SGHIPBVCTime@ATL@@@Z" PURGE="-1" COMMENT="" />
    <EXPORT ORDINAL="13802" NAME="?SetTimeAll@CMFCToolBarDateTimeCtrl@@SGHIPAU_SYSTEMTIME@@@Z" PURGE="-1" COMMENT="" />
    <EXPORT ORDINAL="13801" NAME="?SetTimeAll@CMFCToolBarDateTimeCtrl@@SGHIABVCOleDateTime@ATL@@@Z" PURGE="-1" COMMENT="" />
    <EXPORT ORDINAL="13800" NAME="?SetTime@CMFCToolBarDateTimeCtrl@@QAEHPBVCTime@ATL@@@Z" PURGE="-1" COMMENT="" />
    <EXPORT ORDINAL="13799" NAME="?SetTime@CMFCToolBarDateTimeCtrl@@QAEHPAU_SYSTEMTIME@@@Z" PURGE="-1" COMMENT="" />
    <EXPORT ORDINAL="13798" NAME="?SetTime@CMFCToolBarDateTimeCtrl@@QAEHABVCOleDateTime@ATL@@@Z" PURGE="-1" COMMENT="" />
    <EXPORT ORDINAL="13797" NAME="?SetTime@CDateTimeCtrl@@QAEHPBVCTime@ATL@@@Z" PURGE="-1" COMMENT="" />
    <EXPORT ORDINAL="13796" NAME="?SetTime@CDateTimeCtrl@@QAEHPAU_SYSTEMTIME@@@Z" PURGE="-1" COMMENT="" />
    <EXPORT ORDINAL="13795" NAME="?SetTime@CDateTimeCtrl@@QAEHABVCOleDateTime@ATL@@@Z" PURGE="-1" COMMENT="" />
    <EXPORT ORDINAL="13794" NAME="?SetThumbRect@CMFCRibbonSlider@@IAEXXZ" PURGE="-1" COMMENT="" />
    <EXPORT ORDINAL="13793" NAME="?SetTextValue@CMFCFilterChunkValueImpl@@UAEJABU_tagpropertykey@@PBDW4tagCHUNKSTATE@@KKKW4tagCHUNK_BREAKTYPE@@@Z" PURGE="-1" COMMENT="" />
    <EXPORT ORDINAL="13792" NAME="?SetTextRenderingParams@CRenderTarget@@QAEXPAUIDWriteRenderingParams@@@Z" PURGE="-1" COMMENT="" />
    <EXPORT ORDINAL="13791" NAME="?SetTextJustification@CDC@@QAEHHH@Z" PURGE="-1" COMMENT="" />
    <EXPORT ORDINAL="13790" NAME="?SetTextColor@XPreviewHandlerVisuals@CDocument@@UAGJK@Z" PURGE="-1" COMMENT="" />
    <EXPORT ORDINAL="13789" NAME="?SetTextColor@CPreviewDC@@UAEKK@Z" PURGE="-1" COMMENT="" />
    <EXPORT ORDINAL="13788" NAME="?SetTextColor@CMFCOutlookBarPane@@QAEXKK@Z" PURGE="-1" COMMENT="" />
    <EXPORT ORDINAL="13787" NAME="?SetTextColor@CDC@@UAEKK@Z" PURGE="-1" COMMENT="" />
    <EXPORT ORDINAL="13786" NAME="?SetTextCharacterExtra@CDC@@QAEHH@Z" PURGE="-1" COMMENT="" />
    <EXPORT ORDINAL="13785" NAME="?SetTextAntialiasMode@CRenderTarget@@QAEXW4D2D1_TEXT_ANTIALIAS_MODE@@@Z" PURGE="-1" COMMENT="" />
    <EXPORT ORDINAL="13784" NAME="?SetTextAlwaysOnRight@CMFCRibbonBaseElement@@UAEXH@Z" PURGE="-1" COMMENT="" />
    <EXPORT ORDINAL="13783" NAME="?SetTextAlign@CMFCRibbonEdit@@QAEXH@Z" PURGE="-1" COMMENT="" />
    <EXPORT ORDINAL="13782" NAME="?SetTextAlign@CDC@@QAEII@Z" PURGE="-1" COMMENT="" />
    <EXPORT ORDINAL="13781" NAME="?SetText@CToolCmdUI@@UAEXPBD@Z" PURGE="-1" COMMENT="" />
    <EXPORT ORDINAL="13780" NAME="?SetText@CTestCmdUI@@UAEXPBD@Z" PURGE="-1" COMMENT="" />
    <EXPORT ORDINAL="13779" NAME="?SetText@CStatusCmdUI@@UAEXPBD@Z" PURGE="-1" COMMENT="" />
    <EXPORT ORDINAL="13778" NAME="?SetText@COleControl@@QAEXPBD@Z" PURGE="-1" COMMENT="" />
    <EXPORT ORDINAL="13777" NAME="?SetText@COleCmdUI@@UAEXPBD@Z" PURGE="-1" COMMENT="" />
    <EXPORT ORDINAL="13776" NAME="?SetText@CMFCToolBarComboBoxButton@@QAEXPBD@Z" PURGE="-1" COMMENT="" />
    <EXPORT ORDINAL="13775" NAME="?SetText@CMFCToolBarCmdUI@@UAEXPBD@Z" PURGE="-1" COMMENT="" />
    <EXPORT ORDINAL="13774" NAME="?SetText@CMFCTasksPaneToolBarCmdUI@@UAEXPBD@Z" PURGE="-1" COMMENT="" />
    <EXPORT ORDINAL="13773" NAME="?SetText@CMFCStatusBarCmdUI@@UAEXPBD@Z" PURGE="-1" COMMENT="" />
    <EXPORT ORDINAL="13772" NAME="?SetText@CMFCRibbonCmdUI@@UAEXPBD@Z" PURGE="-1" COMMENT="" />
    <EXPORT ORDINAL="13771" NAME="?SetText@CMFCRibbonButton@@UAEXPBD@Z" PURGE="-1" COMMENT="" />
    <EXPORT ORDINAL="13770" NAME="?SetText@CMFCRibbonBaseElement@@UAEXPBD@Z" PURGE="-1" COMMENT="" />
    <EXPORT ORDINAL="13769" NAME="?SetText@CMFCCaptionBar@@QAEXABV?$CStringT@DV?$StrTraitMFC_DLL@DV?$ChTraitsCRT@D@ATL@@@@@ATL@@W4BarElementAlignment@1@@Z" PURGE="-1" COMMENT="" />
    <EXPORT ORDINAL="13768" NAME="?SetText@CCmdUI@@UAEXPBD@Z" PURGE="-1" COMMENT="" />
    <EXPORT ORDINAL="13767" NAME="?SetTemplate@CFileDialog@@QAEXPBD0@Z" PURGE="-1" COMMENT="" />
    <EXPORT ORDINAL="13766" NAME="?SetTemplate@CDialogTemplate@@IAEHPBUDLGTEMPLATE@@I@Z" PURGE="-1" COMMENT="" />
    <EXPORT ORDINAL="13765" NAME="?SetTearOff@CMFCToolBarMenuButton@@UAEXI@Z" PURGE="-1" COMMENT="" />
    <EXPORT ORDINAL="13761" NAME="?SetTaskbarThumbnailClipRect@CMDIChildWndEx@@MAEHVCRect@@@Z" PURGE="-1" COMMENT="" />
    <EXPORT ORDINAL="13760" NAME="?SetTaskbarTabText@CMDIChildWndEx@@MAEXPBD@Z" PURGE="-1" COMMENT="" />
    <EXPORT ORDINAL="13759" NAME="?SetTaskbarTabProperties@CMDIChildWndEx@@QAEXK@Z" PURGE="-1" COMMENT="" />
    <EXPORT ORDINAL="13758" NAME="?SetTaskbarTabOrder@CMDIClientAreaWnd@@QAEXXZ" PURGE="-1" COMMENT="" />
    <EXPORT ORDINAL="13757" NAME="?SetTaskbarTabOrder@CMDIChildWndEx@@QAEXPAV1@@Z" PURGE="-1" COMMENT="" />
    <EXPORT ORDINAL="13756" NAME="?SetTaskbarTabActive@CMDIChildWndEx@@QAEXXZ" PURGE="-1" COMMENT="" />
    <EXPORT ORDINAL="13755" NAME="?SetTaskbarOverlayIcon@CFrameWnd@@QAEHPAUHICON__@@PBD@Z" PURGE="-1" COMMENT="" />
    <EXPORT ORDINAL="13754" NAME="?SetTaskbarOverlayIcon@CFrameWnd@@QAEHIPBD@Z" PURGE="-1" COMMENT="" />
    <EXPORT ORDINAL="13764" NAME="?SetTaskTextColor@CMFCTasksPane@@QAEHHHKK@Z" PURGE="-1" COMMENT="" />
    <EXPORT ORDINAL="13763" NAME="?SetTaskPaneCaptionButtons@CMFCTasksPaneFrameWnd@@QAEXXZ" PURGE="-1" COMMENT="" />
    <EXPORT ORDINAL="13762" NAME="?SetTaskName@CMFCTasksPane@@QAEHHHPBD@Z" PURGE="-1" COMMENT="" />
    <EXPORT ORDINAL="13753" NAME="?SetTags@CRenderTarget@@QAEX_K0@Z" PURGE="-1" COMMENT="" />
    <EXPORT ORDINAL="13750" NAME="?SetTabsOrder@CMFCBaseTabCtrl@@QAEHABV?$CArray@HH@@@Z" PURGE="-1" COMMENT="" />
    <EXPORT ORDINAL="13749" NAME="?SetTabsHeight@CMFCTabCtrl@@MAEXXZ" PURGE="-1" COMMENT="" />
    <EXPORT ORDINAL="13748" NAME="?SetTabsHeight@CMFCBaseTabCtrl@@UAEXXZ" PURGE="-1" COMMENT="" />
    <EXPORT ORDINAL="13752" NAME="?SetTabTextColor@CMFCBaseTabCtrl@@UAEHHK@Z" PURGE="-1" COMMENT="" />
    <EXPORT ORDINAL="13751" NAME="?SetTabStops@CEditView@@QAEXH@Z" PURGE="-1" COMMENT="" />
    <EXPORT ORDINAL="13747" NAME="?SetTabMaxWidth@CMFCTabCtrl@@QAEXH@Z" PURGE="-1" COMMENT="" />
    <EXPORT ORDINAL="13746" NAME="?SetTabLabel@CMFCBaseTabCtrl@@UAEHHABV?$CStringT@DV?$StrTraitMFC_DLL@DV?$ChTraitsCRT@D@ATL@@@@@ATL@@@Z" PURGE="-1" COMMENT="" />
    <EXPORT ORDINAL="13745" NAME="?SetTabIconOnly@CMFCBaseTabCtrl@@UAEHHHH@Z" PURGE="-1" COMMENT="" />
    <EXPORT ORDINAL="13744" NAME="?SetTabIcon@CMFCBaseTabCtrl@@UAEHHI@Z" PURGE="-1" COMMENT="" />
    <EXPORT ORDINAL="13743" NAME="?SetTabHicon@CMFCBaseTabCtrl@@UAEHHPAUHICON__@@@Z" PURGE="-1" COMMENT="" />
    <EXPORT ORDINAL="13742" NAME="?SetTabBorderSize@CMFCBaseTabCtrl@@UAEXHH@Z" PURGE="-1" COMMENT="" />
    <EXPORT ORDINAL="13741" NAME="?SetTabBkColor@CMFCBaseTabCtrl@@UAEHHK@Z" PURGE="-1" COMMENT="" />
    <EXPORT ORDINAL="13740" NAME="?SetTabAutoColors@CTabbedPane@@SGXABV?$CArray@KK@@@Z" PURGE="-1" COMMENT="" />
    <EXPORT ORDINAL="13739" NAME="?SetSystemTimeValue@CMFCFilterChunkValueImpl@@UAEJABU_tagpropertykey@@ABU_SYSTEMTIME@@W4tagCHUNKSTATE@@KKKW4tagCHUNK_BREAKTYPE@@@Z" PURGE="-1" COMMENT="" />
    <EXPORT ORDINAL="13738" NAME="?SetSystemFont@CDialogTemplate@@QAEHG@Z" PURGE="-1" COMMENT="" />
    <EXPORT ORDINAL="13736" NAME="?SetSysString@?$CStringT@_WV?$StrTraitMFC_DLL@_WV?$ChTraitsCRT@_W@ATL@@@@@ATL@@QBEPA_WPAPA_W@Z" PURGE="-1" COMMENT="" />
    <EXPORT ORDINAL="13737" NAME="?SetSysString@?$CStringT@DV?$StrTraitMFC_DLL@DV?$ChTraitsCRT@D@ATL@@@@@ATL@@QBEPA_WPAPA_W@Z" PURGE="-1" COMMENT="" />
    <EXPORT ORDINAL="13735" NAME="?SetStyle@CMFCVisualManagerWindows7@@SGHPBD@Z" PURGE="-1" COMMENT="" />
    <EXPORT ORDINAL="13734" NAME="?SetStyle@CMFCVisualManagerOffice2007@@SGHW4Style@1@PBD@Z" PURGE="-1" COMMENT="" />
    <EXPORT ORDINAL="13733" NAME="?SetStyle@CMFCToolBarEditBoxButton@@UAEXI@Z" PURGE="-1" COMMENT="" />
    <EXPORT ORDINAL="13732" NAME="?SetStyle@CMFCToolBarDateTimeCtrl@@UAEXI@Z" PURGE="-1" COMMENT="" />
    <EXPORT ORDINAL="13731" NAME="?SetStyle@CMFCToolBarComboBoxButton@@UAEXI@Z" PURGE="-1" COMMENT="" />
    <EXPORT ORDINAL="13730" NAME="?SetString@COleVariant@@QAEXPBDG@Z" PURGE="-1" COMMENT="" />
    <EXPORT ORDINAL="13727" NAME="?SetString@?$CSimpleStringT@_W$00@ATL@@QAEXPB_WH@Z" PURGE="-1" COMMENT="" />
    <EXPORT ORDINAL="13726" NAME="?SetString@?$CSimpleStringT@_W$00@ATL@@QAEXPB_W@Z" PURGE="-1" COMMENT="" />
    <EXPORT ORDINAL="13729" NAME="?SetString@?$CSimpleStringT@D$00@ATL@@QAEXPBDH@Z" PURGE="-1" COMMENT="" />
    <EXPORT ORDINAL="13728" NAME="?SetString@?$CSimpleStringT@D$00@ATL@@QAEXPBD@Z" PURGE="-1" COMMENT="" />
    <EXPORT ORDINAL="13725" NAME="?SetStretchBltMode@CDC@@QAEHH@Z" PURGE="-1" COMMENT="" />
    <EXPORT ORDINAL="13724" NAME="?SetStdImage@CMFCButton@@QAEXW4IMAGES_IDS@CMenuImages@@W4IMAGE_STATE@3@0@Z" PURGE="-1" COMMENT="" />
    <EXPORT ORDINAL="13722" NAME="?SetStatusText@XOleInPlaceFrame@COleFrameHook@@UAGJPB_W@Z" PURGE="-1" COMMENT="" />
    <EXPORT ORDINAL="13723" NAME="?SetStatusText@XOleIPFrame@COleControlContainer@@UAGJPB_W@Z" PURGE="-1" COMMENT="" />
    <EXPORT ORDINAL="13721" NAME="?SetStatusText@CControlBar@@UAEHH@Z" PURGE="-1" COMMENT="" />
    <EXPORT ORDINAL="13720" NAME="?SetStatusBarOfficeXPLook@CMFCVisualManagerOffice2003@@SGXH@Z" PURGE="-1" COMMENT="" />
    <EXPORT ORDINAL="13719" NAME="?SetStatus@CFile@@SGXPBDABUCFileStatus@@PAVCAtlTransactionManager@ATL@@@Z" PURGE="-1" COMMENT="" />
    <EXPORT ORDINAL="13718" NAME="?SetState@CRecordset@@IAEXHPBDK@Z" PURGE="-1" COMMENT="" />
    <EXPORT ORDINAL="13717" NAME="?SetStartPoint@CD2DLinearGradientBrush@@QAEXVCD2DPointF@@@Z" PURGE="-1" COMMENT="" />
    <EXPORT ORDINAL="13716" NAME="?SetStandardProp@CCmdTarget@@IAEJPBUAFX_DISPMAP_ENTRY@@PAUtagDISPPARAMS@@PAI@Z" PURGE="-1" COMMENT="" />
    <EXPORT ORDINAL="13715" NAME="?SetStandardButtons@CVSListBoxBase@@QAEHI@Z" PURGE="-1" COMMENT="" />
    <EXPORT ORDINAL="13713" NAME="?SetSplitCursor@CSplitterWnd@@MAEXH@Z" PURGE="-1" COMMENT="" />
    <EXPORT ORDINAL="13712" NAME="?SetSourceTableName@CDaoTableDef@@QAEXPBD@Z" PURGE="-1" COMMENT="" />
    <EXPORT ORDINAL="13711" NAME="?SetSortColumn@CMFCListCtrl@@QAEXHHH@Z" PURGE="-1" COMMENT="" />
    <EXPORT ORDINAL="13710" NAME="?SetSortColumn@CMFCHeaderCtrl@@QAEXHHH@Z" PURGE="-1" COMMENT="" />
    <EXPORT ORDINAL="13709" NAME="?SetSmartDockingParams@CDockingManager@@SGXAAVCSmartDockingInfo@@@Z" PURGE="-1" COMMENT="" />
    <EXPORT ORDINAL="13708" NAME="?SetSizes@CToolBar@@QAEXUtagSIZE@@0@Z" PURGE="-1" COMMENT="" />
    <EXPORT ORDINAL="13707" NAME="?SetSizes@CMFCToolBar@@SGXUtagSIZE@@0@Z" PURGE="-1" COMMENT="" />
    <EXPORT ORDINAL="13706" NAME="?SetSize@CWordArray@@QAEXHH@Z" PURGE="-1" COMMENT="" />
    <EXPORT ORDINAL="13705" NAME="?SetSize@CUIntArray@@QAEXHH@Z" PURGE="-1" COMMENT="" />
    <EXPORT ORDINAL="13704" NAME="?SetSize@CStringArray@@QAEXHH@Z" PURGE="-1" COMMENT="" />
    <EXPORT ORDINAL="13703" NAME="?SetSize@CPtrArray@@QAEXHH@Z" PURGE="-1" COMMENT="" />
    <EXPORT ORDINAL="13702" NAME="?SetSize@CObArray@@QAEXHH@Z" PURGE="-1" COMMENT="" />
    <EXPORT ORDINAL="13701" NAME="?SetSize@CDWordArray@@QAEXHH@Z" PURGE="-1" COMMENT="" />
    <EXPORT ORDINAL="13700" NAME="?SetSize@CByteArray@@QAEXHH@Z" PURGE="-1" COMMENT="" />
    <EXPORT ORDINAL="13699" NAME="?SetSize@CArchiveStream@@UAGJT_ULARGE_INTEGER@@@Z" PURGE="-1" COMMENT="" />
    <EXPORT ORDINAL="13698" NAME="?SetSite@XObjectWithSite@CDocument@@UAGJPAUIUnknown@@@Z" PURGE="-1" COMMENT="" />
    <EXPORT ORDINAL="13697" NAME="?SetSite@CPrintDialogEx@@UAGJPAUIUnknown@@@Z" PURGE="-1" COMMENT="" />
    <EXPORT ORDINAL="13696" NAME="?SetSingleImage@CMFCToolBarImages@@QAEXXZ" PURGE="-1" COMMENT="" />
    <EXPORT ORDINAL="13695" NAME="?SetSiblingToolBar@CMFCToolBar@@QAEXPAV1@@Z" PURGE="-1" COMMENT="" />
    <EXPORT ORDINAL="13694" NAME="?SetShowAllCommands@CMFCMenuBar@@SGXH@Z" PURGE="-1" COMMENT="" />
    <EXPORT ORDINAL="13693" NAME="?SetServerInfo@CDocTemplate@@QAEXIIPAUCRuntimeClass@@0@Z" PURGE="-1" COMMENT="" />
    <EXPORT ORDINAL="13689" NAME="?SetSelectionCheck@CCheckListBox@@IAEXH@Z" PURGE="-1" COMMENT="" />
    <EXPORT ORDINAL="13687" NAME="?SetSelectionCharFormat@CRichEditCtrl@@QAEHAAU_charformat@@@Z" PURGE="-1" COMMENT="" />
    <EXPORT ORDINAL="13688" NAME="?SetSelectionCharFormat@CRichEditCtrl@@QAEHAAUCHARFORMAT2A@@@Z" PURGE="-1" COMMENT="" />
    <EXPORT ORDINAL="13686" NAME="?SetSelection@CSliderCtrl@@QAEXHH@Z" PURGE="-1" COMMENT="" />
    <EXPORT ORDINAL="13685" NAME="?SetSelectedControlItem@CFileDialog@@QAEJKK@Z" PURGE="-1" COMMENT="" />
    <EXPORT ORDINAL="13692" NAME="?SetSelRange@CMonthCalCtrl@@QAEHQAU_SYSTEMTIME@@0@Z" PURGE="-1" COMMENT="" />
    <EXPORT ORDINAL="13691" NAME="?SetSelRange@CMonthCalCtrl@@QAEHABVCTime@ATL@@0@Z" PURGE="-1" COMMENT="" />
    <EXPORT ORDINAL="13690" NAME="?SetSelRange@CMonthCalCtrl@@QAEHABVCOleDateTime@ATL@@0@Z" PURGE="-1" COMMENT="" />
    <EXPORT ORDINAL="13684" NAME="?SetSel@CRichEditCtrl@@QAEXJJ@Z" PURGE="-1" COMMENT="" />
    <EXPORT ORDINAL="13683" NAME="?SetSegmentFlags@CD2DGeometrySink@@QAEXW4D2D1_PATH_SEGMENT@@@Z" PURGE="-1" COMMENT="" />
    <EXPORT ORDINAL="13682" NAME="?SetSectionName@CPropertySection@@QAEHPBD@Z" PURGE="-1" COMMENT="" />
    <EXPORT ORDINAL="13681" NAME="?SetScrollStyle@CSplitterWnd@@QAEXK@Z" PURGE="-1" COMMENT="" />
    <EXPORT ORDINAL="13680" NAME="?SetScrollSizes@CScrollView@@QAEXHUtagSIZE@@ABU2@1@Z" PURGE="-1" COMMENT="" />
    <EXPORT ORDINAL="13679" NAME="?SetScrollSizes@CMFCTasksPane@@IAEXXZ" PURGE="-1" COMMENT="" />
    <EXPORT ORDINAL="13678" NAME="?SetScrollSizes@CMFCPropertyGridCtrl@@IAEXXZ" PURGE="-1" COMMENT="" />
    <EXPORT ORDINAL="13677" NAME="?SetScrollRange@CWnd@@QAEXHHHH@Z" PURGE="-1" COMMENT="" />
    <EXPORT ORDINAL="13676" NAME="?SetScrollPos@CWnd@@QAEHHHH@Z" PURGE="-1" COMMENT="" />
    <EXPORT ORDINAL="13675" NAME="?SetScrollInfo@CWnd@@QAEHHPAUtagSCROLLINFO@@H@Z" PURGE="-1" COMMENT="" />
    <EXPORT ORDINAL="13674" NAME="?SetScrollButtons@CMFCTabCtrl@@IAEXXZ" PURGE="-1" COMMENT="" />
    <EXPORT ORDINAL="13673" NAME="?SetScrollBar@CMFCPopupMenu@@IAEXXZ" PURGE="-1" COMMENT="" />
    <EXPORT ORDINAL="13672" NAME="?SetScreenSize@CDockState@@QAEXAAVCSize@@@Z" PURGE="-1" COMMENT="" />
    <EXPORT ORDINAL="13669" NAME="?SetScaledSize@CPreviewView@@IAEXI@Z" PURGE="-1" COMMENT="" />
    <EXPORT ORDINAL="13671" NAME="?SetScaleToFitSize@CScrollView@@QAEXUtagSIZE@@@Z" PURGE="-1" COMMENT="" />
    <EXPORT ORDINAL="13670" NAME="?SetScaleRatio@CPreviewDC@@QAEXHH@Z" PURGE="-1" COMMENT="" />
    <EXPORT ORDINAL="13714" NAME="?SetSQL@CDaoQueryDef@@QAEXPBD@Z" PURGE="-1" COMMENT="" />
    <EXPORT ORDINAL="13668" NAME="?SetRuntimeClass@CSettingsStoreSP@@SGHPAUCRuntimeClass@@@Z" PURGE="-1" COMMENT="" />
    <EXPORT ORDINAL="13667" NAME="?SetRowsetSize@CRecordset@@UAEXK@Z" PURGE="-1" COMMENT="" />
    <EXPORT ORDINAL="13666" NAME="?SetRowsetCursorPosition@CRecordset@@QAEXGG@Z" PURGE="-1" COMMENT="" />
    <EXPORT ORDINAL="13665" NAME="?SetRowsetCurrencyStatus@CRecordset@@UAEXFGJK@Z" PURGE="-1" COMMENT="" />
    <EXPORT ORDINAL="13664" NAME="?SetRowInfo@CSplitterWnd@@QAEXHHH@Z" PURGE="-1" COMMENT="" />
    <EXPORT ORDINAL="13663" NAME="?SetRoundedRgn@CMFCToolBar@@IAEXXZ" PURGE="-1" COMMENT="" />
    <EXPORT ORDINAL="13661" NAME="?SetRollUpTimer@CPaneFrameWnd@@IAEXXZ" PURGE="-1" COMMENT="" />
    <EXPORT ORDINAL="13660" NAME="?SetReturnsRecords@CDaoQueryDef@@QAEXH@Z" PURGE="-1" COMMENT="" />
    <EXPORT ORDINAL="13659" NAME="?SetResourceID@CMFCControlRendererInfo@@QAEXPBD@Z" PURGE="-1" COMMENT="" />
    <EXPORT ORDINAL="13658" NAME="?SetResourceHandle@CMFCVisualManagerWindows7@@SGXPAUHINSTANCE__@@@Z" PURGE="-1" COMMENT="" />
    <EXPORT ORDINAL="13657" NAME="?SetResourceHandle@CMFCVisualManagerOffice2007@@SGXPAUHINSTANCE__@@@Z" PURGE="-1" COMMENT="" />
    <EXPORT ORDINAL="13656" NAME="?SetResizeMode@CPaneContainerManager@@UAEXH@Z" PURGE="-1" COMMENT="" />
    <EXPORT ORDINAL="13655" NAME="?SetResizeMode@CMFCTabCtrl@@QAEXW4ResizeMode@1@@Z" PURGE="-1" COMMENT="" />
    <EXPORT ORDINAL="13654" NAME="?SetResizeMode@CDockablePane@@QAEXH@Z" PURGE="-1" COMMENT="" />
    <EXPORT ORDINAL="13653" NAME="?SetRelatedMDIChildFrame@CMDITabProxyWnd@@QAEXPAVCMDIChildWndEx@@@Z" PURGE="-1" COMMENT="" />
    <EXPORT ORDINAL="13652" NAME="?SetRelatedList@CMFCShellTreeCtrl@@QAEXPAVCMFCShellListCtrl@@@Z" PURGE="-1" COMMENT="" />
    <EXPORT ORDINAL="13651" NAME="?SetRegistryKey@CWinApp@@IAEXPBD@Z" PURGE="-1" COMMENT="" />
    <EXPORT ORDINAL="13650" NAME="?SetRegistryKey@CWinApp@@IAEXI@Z" PURGE="-1" COMMENT="" />
    <EXPORT ORDINAL="13649" NAME="?SetRegistryBase@CWinAppEx@@QAEPBDPBD@Z" PURGE="-1" COMMENT="" />
    <EXPORT ORDINAL="13648" NAME="?SetRectInContainer@COleControl@@QAEHPBUtagRECT@@@Z" PURGE="-1" COMMENT="" />
    <EXPORT ORDINAL="13647" NAME="?SetRectComplex@XOleDocumentView@CDocObjectServer@@UAGJPAUtagRECT@@000@Z" PURGE="-1" COMMENT="" />
    <EXPORT ORDINAL="13646" NAME="?SetRect@XPreviewHandler@CDocument@@UAGJPBUtagRECT@@@Z" PURGE="-1" COMMENT="" />
    <EXPORT ORDINAL="13645" NAME="?SetRect@XOleDocumentView@CDocObjectServer@@UAGJPAUtagRECT@@@Z" PURGE="-1" COMMENT="" />
    <EXPORT ORDINAL="13644" NAME="?SetRect@CMFCPreviewCtrlImpl@@UAEXPBUtagRECT@@H@Z" PURGE="-1" COMMENT="" />
    <EXPORT ORDINAL="13643" NAME="?SetRecentlyUsedMenus@CMFCMenuBar@@SGXH@Z" PURGE="-1" COMMENT="" />
    <EXPORT ORDINAL="13642" NAME="?SetReadBufferSize@CInternetFile@@QAEHI@Z" PURGE="-1" COMMENT="" />
    <EXPORT ORDINAL="13641" NAME="?SetRange@CSliderCtrl@@QAEXHHH@Z" PURGE="-1" COMMENT="" />
    <EXPORT ORDINAL="13640" NAME="?SetRange@CMonthCalCtrl@@QAEHQAU_SYSTEMTIME@@0@Z" PURGE="-1" COMMENT="" />
    <EXPORT ORDINAL="13639" NAME="?SetRange@CMonthCalCtrl@@QAEHPBVCTime@ATL@@0@Z" PURGE="-1" COMMENT="" />
    <EXPORT ORDINAL="13638" NAME="?SetRange@CMonthCalCtrl@@QAEHPBVCOleDateTime@ATL@@0@Z" PURGE="-1" COMMENT="" />
    <EXPORT ORDINAL="13637" NAME="?SetRange@CMFCToolBarSpinEditBoxButton@@QAEXHH@Z" PURGE="-1" COMMENT="" />
    <EXPORT ORDINAL="13636" NAME="?SetRange@CMFCRibbonSlider@@QAEXHH@Z" PURGE="-1" COMMENT="" />
    <EXPORT ORDINAL="13635" NAME="?SetRange@CMFCRibbonProgressBar@@QAEXHH@Z" PURGE="-1" COMMENT="" />
    <EXPORT ORDINAL="13634" NAME="?SetRange@CDateTimeCtrl@@QAEHPBVCTime@ATL@@0@Z" PURGE="-1" COMMENT="" />
    <EXPORT ORDINAL="13633" NAME="?SetRange@CDateTimeCtrl@@QAEHPBVCOleDateTime@ATL@@0@Z" PURGE="-1" COMMENT="" />
    <EXPORT ORDINAL="13632" NAME="?SetRadiusY@CD2DRadialGradientBrush@@QAEXM@Z" PURGE="-1" COMMENT="" />
    <EXPORT ORDINAL="13631" NAME="?SetRadiusX@CD2DRadialGradientBrush@@QAEXM@Z" PURGE="-1" COMMENT="" />
    <EXPORT ORDINAL="13630" NAME="?SetRadio@CTestCmdUI@@UAEXH@Z" PURGE="-1" COMMENT="" />
    <EXPORT ORDINAL="13629" NAME="?SetRadio@CMFCToolBarMenuButton@@UAEXXZ" PURGE="-1" COMMENT="" />
    <EXPORT ORDINAL="13628" NAME="?SetRadio@CMFCToolBarCmdUI@@UAEXH@Z" PURGE="-1" COMMENT="" />
    <EXPORT ORDINAL="13627" NAME="?SetRadio@CMFCRibbonCmdUI@@UAEXH@Z" PURGE="-1" COMMENT="" />
    <EXPORT ORDINAL="13626" NAME="?SetRadio@CCmdUI@@UAEXH@Z" PURGE="-1" COMMENT="" />
    <EXPORT ORDINAL="13662" NAME="?SetROP2@CDC@@QAEHH@Z" PURGE="-1" COMMENT="" />
    <EXPORT ORDINAL="13625" NAME="?SetQuickMode@CMFCPopupMenu@@QAEXXZ" PURGE="-1" COMMENT="" />
    <EXPORT ORDINAL="13624" NAME="?SetQuickAccessToolbarOnTop@CMFCRibbonBar@@QAEXH@Z" PURGE="-1" COMMENT="" />
    <EXPORT ORDINAL="13623" NAME="?SetQuickAccessDefaultState@CMFCRibbonBar@@QAEXABVCMFCRibbonQuickAccessToolBarDefaultState@@@Z" PURGE="-1" COMMENT="" />
    <EXPORT ORDINAL="13622" NAME="?SetQuickAccessCommands@CMFCRibbonBar@@QAEXABV?$CList@II@@H@Z" PURGE="-1" COMMENT="" />
    <EXPORT ORDINAL="13621" NAME="?SetQueryTimeout@CDaoDatabase@@QAEXF@Z" PURGE="-1" COMMENT="" />
    <EXPORT ORDINAL="13620" NAME="?SetProxy@XAccessibleServer@CWnd@@UAGJPAUIAccessibleProxy@@@Z" PURGE="-1" COMMENT="" />
    <EXPORT ORDINAL="13619" NAME="?SetProxy@CWnd@@UAEJPAUIAccessibleProxy@@@Z" PURGE="-1" COMMENT="" />
    <EXPORT ORDINAL="13618" NAME="?SetProtectedCommands@CMFCToolBarButton@@SGXABV?$CList@II@@@Z" PURGE="-1" COMMENT="" />
    <EXPORT ORDINAL="13608" NAME="?SetPropsetData@COleControl@@IAEHPAUtagFORMATETC@@PAUtagSTGMEDIUM@@ABU_GUID@@@Z" PURGE="-1" COMMENT="" />
    <EXPORT ORDINAL="13605" NAME="?SetPropertyV@COleControlSite@@UAEXJGPAD@Z" PURGE="-1" COMMENT="" />
    <EXPORT ORDINAL="13604" NAME="?SetProperty@CWnd@@QAAXJGZZ" PURGE="-1" COMMENT="" />
    <EXPORT ORDINAL="13603" NAME="?SetProperty@COleDispatchDriver@@QAAXJGZZ" PURGE="-1" COMMENT="" />
    <EXPORT ORDINAL="13602" NAME="?SetProperty@COleControlSite@@UAAXJGZZ" PURGE="-1" COMMENT="" />
    <EXPORT ORDINAL="13601" NAME="?SetProperties@CFileDialog@@QAEHPB_W@Z" PURGE="-1" COMMENT="" />
    <EXPORT ORDINAL="13617" NAME="?SetPropText@COlePropertyPage@@QAEHPBDAAV?$CStringT@DV?$StrTraitMFC_DLL@DV?$ChTraitsCRT@D@ATL@@@@@ATL@@@Z" PURGE="-1" COMMENT="" />
    <EXPORT ORDINAL="13616" NAME="?SetPropText@COlePropertyPage@@QAEHPBDAAN@Z" PURGE="-1" COMMENT="" />
    <EXPORT ORDINAL="13615" NAME="?SetPropText@COlePropertyPage@@QAEHPBDAAM@Z" PURGE="-1" COMMENT="" />
    <EXPORT ORDINAL="13614" NAME="?SetPropText@COlePropertyPage@@QAEHPBDAAK@Z" PURGE="-1" COMMENT="" />
    <EXPORT ORDINAL="13613" NAME="?SetPropText@COlePropertyPage@@QAEHPBDAAJ@Z" PURGE="-1" COMMENT="" />
    <EXPORT ORDINAL="13612" NAME="?SetPropText@COlePropertyPage@@QAEHPBDAAI@Z" PURGE="-1" COMMENT="" />
    <EXPORT ORDINAL="13611" NAME="?SetPropText@COlePropertyPage@@QAEHPBDAAH@Z" PURGE="-1" COMMENT="" />
    <EXPORT ORDINAL="13610" NAME="?SetPropText@COlePropertyPage@@QAEHPBDAAF@Z" PURGE="-1" COMMENT="" />
    <EXPORT ORDINAL="13609" NAME="?SetPropText@COlePropertyPage@@QAEHPBDAAE@Z" PURGE="-1" COMMENT="" />
    <EXPORT ORDINAL="13607" NAME="?SetPropRadio@COlePropertyPage@@QAEHPBDH@Z" PURGE="-1" COMMENT="" />
    <EXPORT ORDINAL="13606" NAME="?SetPropIndex@COlePropertyPage@@QAEHPBDH@Z" PURGE="-1" COMMENT="" />
    <EXPORT ORDINAL="13600" NAME="?SetPropCheck@COlePropertyPage@@QAEHPBDH@Z" PURGE="-1" COMMENT="" />
    <EXPORT ORDINAL="13599" NAME="?SetProgressBarState@CFrameWnd@@QAEXW4TBPFLAG@@@Z" PURGE="-1" COMMENT="" />
    <EXPORT ORDINAL="13598" NAME="?SetProgressBarRange@CFrameWnd@@QAEXHH@Z" PURGE="-1" COMMENT="" />
    <EXPORT ORDINAL="13597" NAME="?SetProgressBarPosition@CFrameWnd@@QAEXH@Z" PURGE="-1" COMMENT="" />
    <EXPORT ORDINAL="13593" NAME="?SetPrinterFont@CEditView@@QAEXPAVCFont@@@Z" PURGE="-1" COMMENT="" />
    <EXPORT ORDINAL="13596" NAME="?SetPrintView@CPreviewView@@QAEHPAVCView@@@Z" PURGE="-1" COMMENT="" />
    <EXPORT ORDINAL="13595" NAME="?SetPrintPreviewMode@CMFCRibbonBar@@IAEXH@Z" PURGE="-1" COMMENT="" />
    <EXPORT ORDINAL="13594" NAME="?SetPrintPreviewMode@CDockingManager@@QAEXHPAUCPrintPreviewState@@@Z" PURGE="-1" COMMENT="" />
    <EXPORT ORDINAL="13592" NAME="?SetPrintDevice@COleClientItem@@QAEHPBUtagPDA@@@Z" PURGE="-1" COMMENT="" />
    <EXPORT ORDINAL="13591" NAME="?SetPrintDevice@COleClientItem@@QAEHPBUtagDVTARGETDEVICE@@@Z" PURGE="-1" COMMENT="" />
    <EXPORT ORDINAL="13590" NAME="?SetPreviewVisuals@CMFCPreviewCtrlImpl@@UAEXKKPBUtagLOGFONTW@@@Z" PURGE="-1" COMMENT="" />
    <EXPORT ORDINAL="13589" NAME="?SetPreviewInfo@CDocTemplate@@QAEXIPAUCRuntimeClass@@0@Z" PURGE="-1" COMMENT="" />
    <EXPORT ORDINAL="13588" NAME="?SetPreferedSize@CMFCRibbonPanelMenuBar@@IAEXVCSize@@@Z" PURGE="-1" COMMENT="" />
    <EXPORT ORDINAL="13587" NAME="?SetPreDockState@CPaneFrameWnd@@UAEHW4AFX_PREDOCK_STATE@@PAVCBasePane@@W4AFX_DOCK_METHOD@@@Z" PURGE="-1" COMMENT="" />
    <EXPORT ORDINAL="13586" NAME="?SetPreDockState@CMultiPaneFrameWnd@@UAEHW4AFX_PREDOCK_STATE@@PAVCBasePane@@W4AFX_DOCK_METHOD@@@Z" PURGE="-1" COMMENT="" />
    <EXPORT ORDINAL="13585" NAME="?SetPos@CMFCRibbonSlider@@QAEXHH@Z" PURGE="-1" COMMENT="" />
    <EXPORT ORDINAL="13584" NAME="?SetPos@CMFCRibbonProgressBar@@QAEXHH@Z" PURGE="-1" COMMENT="" />
    <EXPORT ORDINAL="13583" NAME="?SetPolyFillMode@CDC@@QAEHH@Z" PURGE="-1" COMMENT="" />
    <EXPORT ORDINAL="13582" NAME="?SetPixel@CDrawingManager@@SGXPAKHHHHK@Z" PURGE="-1" COMMENT="" />
    <EXPORT ORDINAL="13581" NAME="?SetPictureDispatch@CPictureHolder@@QAEXPAUIPictureDisp@@@Z" PURGE="-1" COMMENT="" />
    <EXPORT ORDINAL="13580" NAME="?SetPercentPosition@CDaoRecordset@@QAEXM@Z" PURGE="-1" COMMENT="" />
    <EXPORT ORDINAL="13579" NAME="?SetPathName@CRichEditDoc@@UAEXPBDH@Z" PURGE="-1" COMMENT="" />
    <EXPORT ORDINAL="13578" NAME="?SetPathName@COleDocument@@UAEXPBDH@Z" PURGE="-1" COMMENT="" />
    <EXPORT ORDINAL="13577" NAME="?SetPathName@CDocument@@UAEXPBDH@Z" PURGE="-1" COMMENT="" />
    <EXPORT ORDINAL="13576" NAME="?SetParentRibbonElement@CMFCPopupMenu@@QAEXPAVCMFCRibbonBaseElement@@@Z" PURGE="-1" COMMENT="" />
    <EXPORT ORDINAL="13575" NAME="?SetParentRibbonBar@CMFCRibbonButtonsGroup@@MAEXPAVCMFCRibbonBar@@@Z" PURGE="-1" COMMENT="" />
    <EXPORT ORDINAL="13574" NAME="?SetParentRibbonBar@CMFCRibbonButton@@MAEXPAVCMFCRibbonBar@@@Z" PURGE="-1" COMMENT="" />
    <EXPORT ORDINAL="13573" NAME="?SetParentMenu@CMFCRibbonButtonsGroup@@MAEXPAVCMFCRibbonPanelMenuBar@@@Z" PURGE="-1" COMMENT="" />
    <EXPORT ORDINAL="13572" NAME="?SetParentMenu@CMFCRibbonBaseElement@@UAEXPAVCMFCRibbonPanelMenuBar@@@Z" PURGE="-1" COMMENT="" />
    <EXPORT ORDINAL="13571" NAME="?SetParentCategory@CMFCRibbonGallery@@MAEXPAVCMFCRibbonCategory@@@Z" PURGE="-1" COMMENT="" />
    <EXPORT ORDINAL="13570" NAME="?SetParentCategory@CMFCRibbonButtonsGroup@@UAEXPAVCMFCRibbonCategory@@@Z" PURGE="-1" COMMENT="" />
    <EXPORT ORDINAL="13569" NAME="?SetParentCategory@CMFCRibbonButton@@UAEXPAVCMFCRibbonCategory@@@Z" PURGE="-1" COMMENT="" />
    <EXPORT ORDINAL="13568" NAME="?SetParentCategory@CMFCRibbonBaseElement@@UAEXPAVCMFCRibbonCategory@@@Z" PURGE="-1" COMMENT="" />
    <EXPORT ORDINAL="13567" NAME="?SetParentAnimationObjects@CAnimationBaseObject@@MAEXXZ" PURGE="-1" COMMENT="" />
    <EXPORT ORDINAL="13558" NAME="?SetParams@CMFCToolTipCtrl@@QAEXPAVCMFCToolTipInfo@@@Z" PURGE="-1" COMMENT="" />
    <EXPORT ORDINAL="13566" NAME="?SetParamValueNull@CDaoRecordset@@QAEXPBD@Z" PURGE="-1" COMMENT="" />
    <EXPORT ORDINAL="13565" NAME="?SetParamValueNull@CDaoRecordset@@QAEXH@Z" PURGE="-1" COMMENT="" />
    <EXPORT ORDINAL="13564" NAME="?SetParamValueNull@CDaoQueryDef@@QAEXPBD@Z" PURGE="-1" COMMENT="" />
    <EXPORT ORDINAL="13563" NAME="?SetParamValueNull@CDaoQueryDef@@QAEXH@Z" PURGE="-1" COMMENT="" />
    <EXPORT ORDINAL="13562" NAME="?SetParamValue@CDaoRecordset@@UAEXPBDABVCOleVariant@@@Z" PURGE="-1" COMMENT="" />
    <EXPORT ORDINAL="13561" NAME="?SetParamValue@CDaoRecordset@@UAEXHABVCOleVariant@@@Z" PURGE="-1" COMMENT="" />
    <EXPORT ORDINAL="13560" NAME="?SetParamValue@CDaoQueryDef@@UAEXPBDABVCOleVariant@@@Z" PURGE="-1" COMMENT="" />
    <EXPORT ORDINAL="13559" NAME="?SetParamValue@CDaoQueryDef@@UAEXHABVCOleVariant@@@Z" PURGE="-1" COMMENT="" />
    <EXPORT ORDINAL="13557" NAME="?SetParamNull@CRecordset@@QAEXHH@Z" PURGE="-1" COMMENT="" />
    <EXPORT ORDINAL="13556" NAME="?SetParaFormat@CRichEditView@@QAEHAAUPARAFORMAT2@@@Z" PURGE="-1" COMMENT="" />
    <EXPORT ORDINAL="13554" NAME="?SetParaFormat@CRichEditCtrl@@QAEHAAU_paraformat@@@Z" PURGE="-1" COMMENT="" />
    <EXPORT ORDINAL="13555" NAME="?SetParaFormat@CRichEditCtrl@@QAEHAAUPARAFORMAT2@@@Z" PURGE="-1" COMMENT="" />
    <EXPORT ORDINAL="13546" NAME="?SetPanelsLayout@CMFCRibbonCategory@@IAEHH@Z" PURGE="-1" COMMENT="" />
    <EXPORT ORDINAL="13553" NAME="?SetPaneWidth@CMFCStatusBar@@QAEXHH@Z" PURGE="-1" COMMENT="" />
    <EXPORT ORDINAL="13552" NAME="?SetPaneTextColor@CMFCStatusBar@@QAEXHKH@Z" PURGE="-1" COMMENT="" />
    <EXPORT ORDINAL="13551" NAME="?SetPaneText@CStatusBar@@QAEHHPBDH@Z" PURGE="-1" COMMENT="" />
    <EXPORT ORDINAL="13550" NAME="?SetPaneText@CMFCStatusBar@@UAEHHPBDH@Z" PURGE="-1" COMMENT="" />
    <EXPORT ORDINAL="13549" NAME="?SetPaneStyle@CStatusBar@@QAEXHI@Z" PURGE="-1" COMMENT="" />
    <EXPORT ORDINAL="13548" NAME="?SetPaneStyle@CMFCStatusBar@@QAEXHI@Z" PURGE="-1" COMMENT="" />
    <EXPORT ORDINAL="13547" NAME="?SetPaneProgress@CMFCStatusBar@@QAEXHJH@Z" PURGE="-1" COMMENT="" />
    <EXPORT ORDINAL="13545" NAME="?SetPaneInfo@CStatusBar@@QAEXHIIH@Z" PURGE="-1" COMMENT="" />
    <EXPORT ORDINAL="13544" NAME="?SetPaneInfo@CMFCStatusBar@@QAEXHIIH@Z" PURGE="-1" COMMENT="" />
    <EXPORT ORDINAL="13543" NAME="?SetPaneIcon@CMFCStatusBar@@QAEXHPAUHICON__@@H@Z" PURGE="-1" COMMENT="" />
    <EXPORT ORDINAL="13542" NAME="?SetPaneIcon@CMFCStatusBar@@QAEXHPAUHBITMAP__@@KH@Z" PURGE="-1" COMMENT="" />
    <EXPORT ORDINAL="13541" NAME="?SetPaneContainerManager@CPaneContainer@@IAEXPAVCPaneContainerManager@@H@Z" PURGE="-1" COMMENT="" />
    <EXPORT ORDINAL="13540" NAME="?SetPaneContainer@CPaneContainer@@QAEXPAV1@H@Z" PURGE="-1" COMMENT="" />
    <EXPORT ORDINAL="13539" NAME="?SetPaneBackgroundColor@CMFCStatusBar@@QAEXHKH@Z" PURGE="-1" COMMENT="" />
    <EXPORT ORDINAL="13538" NAME="?SetPaneAnimation@CMFCStatusBar@@QAEXHPAU_IMAGELIST@@IH@Z" PURGE="-1" COMMENT="" />
    <EXPORT ORDINAL="13537" NAME="?SetPaneAlignment@CMFCReBar@@UAEXK@Z" PURGE="-1" COMMENT="" />
    <EXPORT ORDINAL="13536" NAME="?SetPane@CPaneContainer@@QAEXPAVCDockablePane@@H@Z" PURGE="-1" COMMENT="" />
    <EXPORT ORDINAL="13535" NAME="?SetPalette@CMFCRibbonGallery@@QAEXIH@Z" PURGE="-1" COMMENT="" />
    <EXPORT ORDINAL="13534" NAME="?SetPalette@CMFCRibbonGallery@@QAEXAAVCMFCToolBarImages@@@Z" PURGE="-1" COMMENT="" />
    <EXPORT ORDINAL="13533" NAME="?SetPalette@CMFCRibbonColorButton@@QAEXPAVCPalette@@@Z" PURGE="-1" COMMENT="" />
    <EXPORT ORDINAL="13532" NAME="?SetPalette@CMFCColorPickerCtrl@@QAEXPAVCPalette@@@Z" PURGE="-1" COMMENT="" />
    <EXPORT ORDINAL="13531" NAME="?SetPalette@CMFCColorButton@@QAEXPAVCPalette@@@Z" PURGE="-1" COMMENT="" />
    <EXPORT ORDINAL="13530" NAME="?SetPageTwo@CMFCColorDialog@@QAEXEEE@Z" PURGE="-1" COMMENT="" />
    <EXPORT ORDINAL="13529" NAME="?SetPageSite@XPropertyPage@COlePropertyPage@@UAGJPAUIPropertyPageSite@@@Z" PURGE="-1" COMMENT="" />
    <EXPORT ORDINAL="13528" NAME="?SetPageOne@CMFCColorDialog@@QAEXEEE@Z" PURGE="-1" COMMENT="" />
    <EXPORT ORDINAL="13527" NAME="?SetPageName@COlePropertyPage@@QAEXPBD@Z" PURGE="-1" COMMENT="" />
    <EXPORT ORDINAL="13526" NAME="?SetPageCaption@CMFCTasksPane@@QAEXHPBD@Z" PURGE="-1" COMMENT="" />
    <EXPORT ORDINAL="13525" NAME="?SetPageButtonTextAlign@CMFCOutlookBarTabCtrl@@QAEXIH@Z" PURGE="-1" COMMENT="" />
    <EXPORT ORDINAL="13524" NAME="?SetOwnerList@CMFCPropertyGridProperty@@IAEXPAVCMFCPropertyGridCtrl@@@Z" PURGE="-1" COMMENT="" />
    <EXPORT ORDINAL="13523" NAME="?SetOwner@CToolBar@@QAEXPAVCWnd@@@Z" PURGE="-1" COMMENT="" />
    <EXPORT ORDINAL="13522" NAME="?SetOutputDC@CPreviewDC@@UAEXPAUHDC__@@@Z" PURGE="-1" COMMENT="" />
    <EXPORT ORDINAL="13521" NAME="?SetOutputDC@CMetaFileDC@@MAEXPAUHDC__@@@Z" PURGE="-1" COMMENT="" />
    <EXPORT ORDINAL="13520" NAME="?SetOutputDC@CDC@@UAEXPAUHDC__@@@Z" PURGE="-1" COMMENT="" />
    <EXPORT ORDINAL="13519" NAME="?SetOuterRect@CSmartDockingManager@@QAEXVCRect@@@Z" PURGE="-1" COMMENT="" />
    <EXPORT ORDINAL="13517" NAME="?SetOriginalValue@CMFCPropertyGridProperty@@QAEXABVCOleVariant@@@Z" PURGE="-1" COMMENT="" />
    <EXPORT ORDINAL="13516" NAME="?SetOriginalColor@CMFCColorPickerCtrl@@QAEXK@Z" PURGE="-1" COMMENT="" />
    <EXPORT ORDINAL="13515" NAME="?SetOriginal@CMFCRibbonButtonsGroup@@MAEXPAVCMFCRibbonBaseElement@@@Z" PURGE="-1" COMMENT="" />
    <EXPORT ORDINAL="13514" NAME="?SetOriginal@CMFCRibbonButton@@MAEXPAVCMFCRibbonBaseElement@@@Z" PURGE="-1" COMMENT="" />
    <EXPORT ORDINAL="13513" NAME="?SetOriginal@CMFCRibbonBaseElement@@UAEXPAV1@@Z" PURGE="-1" COMMENT="" />
    <EXPORT ORDINAL="13512" NAME="?SetOrigButtons@CMFCToolBar@@QAEXABVCObList@@@Z" PURGE="-1" COMMENT="" />
    <EXPORT ORDINAL="13511" NAME="?SetOrderArray@CHeaderCtrl@@QAEHHPAH@Z" PURGE="-1" COMMENT="" />
    <EXPORT ORDINAL="13510" NAME="?SetOptions@CMFCCmdUsageCount@@SGHII@Z" PURGE="-1" COMMENT="" />
    <EXPORT ORDINAL="13509" NAME="?SetOption@CInternetSession@@QAEHKPAXKK@Z" PURGE="-1" COMMENT="" />
    <EXPORT ORDINAL="13508" NAME="?SetOption@CInternetFile@@QAEHKPAXKK@Z" PURGE="-1" COMMENT="" />
    <EXPORT ORDINAL="13507" NAME="?SetOption@CInternetConnection@@QAEHKPAXKK@Z" PURGE="-1" COMMENT="" />
    <EXPORT ORDINAL="13506" NAME="?SetOpacity@CD2DBrush@@QAEXM@Z" PURGE="-1" COMMENT="" />
    <EXPORT ORDINAL="13505" NAME="?SetOneRowWithSibling@CMFCToolBar@@QAEXXZ" PURGE="-1" COMMENT="" />
    <EXPORT ORDINAL="13504" NAME="?SetOfficeStyleMenus@CMFCVisualManagerWindows@@QAEXH@Z" PURGE="-1" COMMENT="" />
    <EXPORT ORDINAL="13502" NAME="?SetOccDialogInfo@CWnd@@MAEHPAU_AFX_OCC_DIALOG_INFO@@@Z" PURGE="-1" COMMENT="" />
    <EXPORT ORDINAL="13501" NAME="?SetOccDialogInfo@CPaneDialog@@UAEHPAU_AFX_OCC_DIALOG_INFO@@@Z" PURGE="-1" COMMENT="" />
    <EXPORT ORDINAL="13500" NAME="?SetOccDialogInfo@CFormView@@MAEHPAU_AFX_OCC_DIALOG_INFO@@@Z" PURGE="-1" COMMENT="" />
    <EXPORT ORDINAL="13499" NAME="?SetOccDialogInfo@CDialogBar@@MAEHPAU_AFX_OCC_DIALOG_INFO@@@Z" PURGE="-1" COMMENT="" />
    <EXPORT ORDINAL="13498" NAME="?SetOccDialogInfo@CDialog@@MAEHPAU_AFX_OCC_DIALOG_INFO@@@Z" PURGE="-1" COMMENT="" />
    <EXPORT ORDINAL="13497" NAME="?SetObjects@XPropertyPage@COlePropertyPage@@UAGJKPAPAUIUnknown@@@Z" PURGE="-1" COMMENT="" />
    <EXPORT ORDINAL="13496" NAME="?SetObjectRects@XOleInPlaceObject@COleServerDoc@@UAGJPBUtagRECT@@0@Z" PURGE="-1" COMMENT="" />
    <EXPORT ORDINAL="13495" NAME="?SetObjectRects@XOleInPlaceObject@COleControl@@UAGJPBUtagRECT@@0@Z" PURGE="-1" COMMENT="" />
    <EXPORT ORDINAL="13518" NAME="?SetOSVersion@CPropertySet@@QAEXK@Z" PURGE="-1" COMMENT="" />
    <EXPORT ORDINAL="13503" NAME="?SetODBCTimeout@CDaoQueryDef@@QAEXF@Z" PURGE="-1" COMMENT="" />
    <EXPORT ORDINAL="13490" NAME="?SetNullableKnownFieldStatus@CDaoRecordset@@QAEXI@Z" PURGE="-1" COMMENT="" />
    <EXPORT ORDINAL="13489" NAME="?SetNullableFieldStatus@CDaoRecordset@@QAEXI@Z" PURGE="-1" COMMENT="" />
    <EXPORT ORDINAL="13494" NAME="?SetNullValue@CDaoFieldExchange@@SGXPAXK@Z" PURGE="-1" COMMENT="" />
    <EXPORT ORDINAL="13493" NAME="?SetNullParamStatus@CRecordset@@QAEXK@Z" PURGE="-1" COMMENT="" />
    <EXPORT ORDINAL="13492" NAME="?SetNullFieldStatus@CRecordset@@QAEXK@Z" PURGE="-1" COMMENT="" />
    <EXPORT ORDINAL="13491" NAME="?SetNullFieldStatus@CDaoRecordset@@QAEXI@Z" PURGE="-1" COMMENT="" />
    <EXPORT ORDINAL="13485" NAME="?SetNotifyParentID@CMFCRibbonGallery@@IAEXH@Z" PURGE="-1" COMMENT="" />
    <EXPORT ORDINAL="13488" NAME="?SetNotSupported@COleControl@@QAEXXZ" PURGE="-1" COMMENT="" />
    <EXPORT ORDINAL="13487" NAME="?SetNotSupported@CCmdTarget@@QAEXXZ" PURGE="-1" COMMENT="" />
    <EXPORT ORDINAL="13486" NAME="?SetNotPermitted@COleControl@@QAEXXZ" PURGE="-1" COMMENT="" />
    <EXPORT ORDINAL="13484" NAME="?SetNonPermittedCommands@CMFCToolBar@@SGXAAV?$CList@II@@@Z" PURGE="-1" COMMENT="" />
    <EXPORT ORDINAL="13483" NAME="?SetNewUserToolBarRTC@CFrameImpl@@QAEXPAUCRuntimeClass@@@Z" PURGE="-1" COMMENT="" />
    <EXPORT ORDINAL="13482" NAME="?SetNewParent@CGlobalUtils@@QAEXAAVCObList@@PAVCWnd@@H@Z" PURGE="-1" COMMENT="" />
    <EXPORT ORDINAL="13481" NAME="?SetNewColor@CMFCColorDialog@@QAEXK@Z" PURGE="-1" COMMENT="" />
    <EXPORT ORDINAL="13480" NAME="?SetName@CPropertySection@@QAEHKPBD@Z" PURGE="-1" COMMENT="" />
    <EXPORT ORDINAL="13479" NAME="?SetName@CMFCRibbonCategory@@QAEXPBD@Z" PURGE="-1" COMMENT="" />
    <EXPORT ORDINAL="13478" NAME="?SetName@CMFCPropertyGridProperty@@QAEXPBDH@Z" PURGE="-1" COMMENT="" />
    <EXPORT ORDINAL="13477" NAME="?SetName@CDaoTableDef@@QAEXPBD@Z" PURGE="-1" COMMENT="" />
    <EXPORT ORDINAL="13476" NAME="?SetName@CDaoQueryDef@@QAEXPBD@Z" PURGE="-1" COMMENT="" />
    <EXPORT ORDINAL="13475" NAME="?SetMouseCursorHand@CMFCButton@@QAEXXZ" PURGE="-1" COMMENT="" />
    <EXPORT ORDINAL="13474" NAME="?SetMouseCursor@CMFCButton@@QAEXPAUHICON__@@@Z" PURGE="-1" COMMENT="" />
    <EXPORT ORDINAL="13473" NAME="?SetMoniker@XOleObject@COleServerItem@@UAGJKPAUIMoniker@@@Z" PURGE="-1" COMMENT="" />
    <EXPORT ORDINAL="13472" NAME="?SetMoniker@XOleObject@COleServerDoc@@UAGJKPAUIMoniker@@@Z" PURGE="-1" COMMENT="" />
    <EXPORT ORDINAL="13471" NAME="?SetMoniker@XOleObject@COleControl@@UAGJKPAUIMoniker@@@Z" PURGE="-1" COMMENT="" />
    <EXPORT ORDINAL="13470" NAME="?SetMoniker@XOleObject@CDocObjectServer@@UAGJKPAUIMoniker@@@Z" PURGE="-1" COMMENT="" />
    <EXPORT ORDINAL="13469" NAME="?SetModifiedFlag@CRichEditDoc@@UAEXH@Z" PURGE="-1" COMMENT="" />
    <EXPORT ORDINAL="13468" NAME="?SetModifiedFlag@COlePropertyPage@@QAEXH@Z" PURGE="-1" COMMENT="" />
    <EXPORT ORDINAL="13467" NAME="?SetModifiedFlag@COleControl@@QAEXH@Z" PURGE="-1" COMMENT="" />
    <EXPORT ORDINAL="13466" NAME="?SetModifiedFlag@CMFCPropertyGridProperty@@IAEXXZ" PURGE="-1" COMMENT="" />
    <EXPORT ORDINAL="13465" NAME="?SetModified@CPropertyPage@@QAEXH@Z" PURGE="-1" COMMENT="" />
    <EXPORT ORDINAL="13464" NAME="?SetMode2003@CMFCOutlookBar@@QAEXH@Z" PURGE="-1" COMMENT="" />
    <EXPORT ORDINAL="13463" NAME="?SetMessageText@CFrameWnd@@QAEXPBD@Z" PURGE="-1" COMMENT="" />
    <EXPORT ORDINAL="13462" NAME="?SetMessageText@CFrameWnd@@QAEXI@Z" PURGE="-1" COMMENT="" />
    <EXPORT ORDINAL="13461" NAME="?SetMenuSizes@CMFCToolBar@@SGXUtagSIZE@@0@Z" PURGE="-1" COMMENT="" />
    <EXPORT ORDINAL="13460" NAME="?SetMenuPaletteMode@CMFCToolBarMenuButton@@QAEXHH@Z" PURGE="-1" COMMENT="" />
    <EXPORT ORDINAL="13459" NAME="?SetMenuFont@CMFCMenuBar@@SGHPAUtagLOGFONTA@@H@Z" PURGE="-1" COMMENT="" />
    <EXPORT ORDINAL="13458" NAME="?SetMenuFont@AFX_GLOBAL_DATA@@QAEHPAUtagLOGFONTA@@H@Z" PURGE="-1" COMMENT="" />
    <EXPORT ORDINAL="13457" NAME="?SetMenuButtonRTC@CMFCMenuBar@@QAEXPAUCRuntimeClass@@@Z" PURGE="-1" COMMENT="" />
    <EXPORT ORDINAL="13456" NAME="?SetMenuBarVisibility@CMDIFrameWnd@@UAEXK@Z" PURGE="-1" COMMENT="" />
    <EXPORT ORDINAL="13455" NAME="?SetMenuBarVisibility@CFrameWnd@@UAEXK@Z" PURGE="-1" COMMENT="" />
    <EXPORT ORDINAL="13454" NAME="?SetMenuBarState@CMDIFrameWnd@@UAEHK@Z" PURGE="-1" COMMENT="" />
    <EXPORT ORDINAL="13453" NAME="?SetMenuBarState@CFrameWnd@@UAEHK@Z" PURGE="-1" COMMENT="" />
    <EXPORT ORDINAL="13452" NAME="?SetMenuBar@CFrameImpl@@IAEXPAVCMFCMenuBar@@@Z" PURGE="-1" COMMENT="" />
    <EXPORT ORDINAL="13450" NAME="?SetMenu@XOleInPlaceFrame@COleFrameHook@@UAGJPAUHMENU__@@PAXPAUHWND__@@@Z" PURGE="-1" COMMENT="" />
    <EXPORT ORDINAL="13451" NAME="?SetMenu@XOleIPFrame@COleControlContainer@@UAGJPAUHMENU__@@PAXPAUHWND__@@@Z" PURGE="-1" COMMENT="" />
    <EXPORT ORDINAL="13449" NAME="?SetMenu@CWnd@@UAEHPAVCMenu@@@Z" PURGE="-1" COMMENT="" />
    <EXPORT ORDINAL="13448" NAME="?SetMenu@CMFCRibbonButton@@QAEXPAUHMENU__@@HH@Z" PURGE="-1" COMMENT="" />
    <EXPORT ORDINAL="13447" NAME="?SetMenu@CMFCRibbonButton@@QAEXIHH@Z" PURGE="-1" COMMENT="" />
    <EXPORT ORDINAL="13446" NAME="?SetMenu@CFrameWnd@@UAEHPAVCMenu@@@Z" PURGE="-1" COMMENT="" />
    <EXPORT ORDINAL="13444" NAME="?SetMaximizeMode@CMFCRibbonBar@@QAEXHPAVCWnd@@@Z" PURGE="-1" COMMENT="" />
    <EXPORT ORDINAL="13443" NAME="?SetMaximizeMode@CMFCMenuBar@@QAEXHPAVCWnd@@H@Z" PURGE="-1" COMMENT="" />
    <EXPORT ORDINAL="13445" NAME="?SetMaxWidth@CMFCPopupMenu@@QAEXH@Z" PURGE="-1" COMMENT="" />
    <EXPORT ORDINAL="13442" NAME="?SetMapperFlags@CDC@@QAEKK@Z" PURGE="-1" COMMENT="" />
    <EXPORT ORDINAL="13441" NAME="?SetMapMode@CPreviewDC@@UAEHH@Z" PURGE="-1" COMMENT="" />
    <EXPORT ORDINAL="13440" NAME="?SetMapMode@CDC@@UAEHH@Z" PURGE="-1" COMMENT="" />
    <EXPORT ORDINAL="13438" NAME="?SetManager@?$CSimpleStringT@_W$00@ATL@@QAEXPAUIAtlStringMgr@2@@Z" PURGE="-1" COMMENT="" />
    <EXPORT ORDINAL="13439" NAME="?SetManager@?$CSimpleStringT@D$00@ATL@@QAEXPAUIAtlStringMgr@2@@Z" PURGE="-1" COMMENT="" />
    <EXPORT ORDINAL="13437" NAME="?SetLuminanceBarWidth@CMFCColorPickerCtrl@@QAEXH@Z" PURGE="-1" COMMENT="" />
    <EXPORT ORDINAL="13436" NAME="?SetLook@CMFCPropertySheet@@QAEXW4PropSheetLook@1@H@Z" PURGE="-1" COMMENT="" />
    <EXPORT ORDINAL="13435" NAME="?SetLongValue@CMFCFilterChunkValueImpl@@UAEJABU_tagpropertykey@@JW4tagCHUNKSTATE@@KKKW4tagCHUNK_BREAKTYPE@@@Z" PURGE="-1" COMMENT="" />
    <EXPORT ORDINAL="13434" NAME="?SetLoginTimeout@CDaoWorkspace@@SGXF@Z" PURGE="-1" COMMENT="" />
    <EXPORT ORDINAL="13433" NAME="?SetLockingMode@CRecordset@@QAEXI@Z" PURGE="-1" COMMENT="" />
    <EXPORT ORDINAL="13432" NAME="?SetLockingMode@CDaoRecordset@@QAEXH@Z" PURGE="-1" COMMENT="" />
    <EXPORT ORDINAL="13431" NAME="?SetLockedSizes@CMFCToolBar@@QAEXUtagSIZE@@0H@Z" PURGE="-1" COMMENT="" />
    <EXPORT ORDINAL="13430" NAME="?SetLocation@CMFCToolTipCtrl@@QAEXVCPoint@@@Z" PURGE="-1" COMMENT="" />
    <EXPORT ORDINAL="13429" NAME="?SetLocation@CMFCBaseTabCtrl@@UAEXW4Location@1@@Z" PURGE="-1" COMMENT="" />
    <EXPORT ORDINAL="13428" NAME="?SetLocaleName@CD2DTextLayout@@QAEHPB_WUDWRITE_TEXT_RANGE@@@Z" PURGE="-1" COMMENT="" />
    <EXPORT ORDINAL="13427" NAME="?SetListDelimiter@CMFCPropertyGridCtrl@@QAEXD@Z" PURGE="-1" COMMENT="" />
    <EXPORT ORDINAL="13426" NAME="?SetLinkUpdateOptions@COleUILinkInfo@@UAGJKK@Z" PURGE="-1" COMMENT="" />
    <EXPORT ORDINAL="13425" NAME="?SetLinkUpdateOptions@COleClientItem@@QAEXW4tagOLEUPDATE@@@Z" PURGE="-1" COMMENT="" />
    <EXPORT ORDINAL="13424" NAME="?SetLinkSource@COleUILinkInfo@@UAGJKPADKPAKH@Z" PURGE="-1" COMMENT="" />
    <EXPORT ORDINAL="13423" NAME="?SetLink@CMFCRibbonLinkCtrl@@QAEXPBD@Z" PURGE="-1" COMMENT="" />
    <EXPORT ORDINAL="13422" NAME="?SetLength@CSocketFile@@UAEX_K@Z" PURGE="-1" COMMENT="" />
    <EXPORT ORDINAL="13421" NAME="?SetLength@COleStreamFile@@UAEX_K@Z" PURGE="-1" COMMENT="" />
    <EXPORT ORDINAL="13420" NAME="?SetLength@CMemFile@@UAEX_K@Z" PURGE="-1" COMMENT="" />
    <EXPORT ORDINAL="13419" NAME="?SetLength@CInternetFile@@UAEX_K@Z" PURGE="-1" COMMENT="" />
    <EXPORT ORDINAL="13418" NAME="?SetLength@CFile@@UAEX_K@Z" PURGE="-1" COMMENT="" />
    <EXPORT ORDINAL="13416" NAME="?SetLength@?$CSimpleStringT@_W$00@ATL@@AAEXH@Z" PURGE="-1" COMMENT="" />
    <EXPORT ORDINAL="13417" NAME="?SetLength@?$CSimpleStringT@D$00@ATL@@AAEXH@Z" PURGE="-1" COMMENT="" />
    <EXPORT ORDINAL="13415" NAME="?SetLayout@CDC@@QAEKK@Z" PURGE="-1" COMMENT="" />
    <EXPORT ORDINAL="13414" NAME="?SetLayeredAttrib@AFX_GLOBAL_DATA@@QAEHPAUHWND__@@KEK@Z" PURGE="-1" COMMENT="" />
    <EXPORT ORDINAL="13413" NAME="?SetLargeIcons@CMFCToolBar@@SGXH@Z" PURGE="-1" COMMENT="" />
    <EXPORT ORDINAL="13412" NAME="?SetKeys@CMFCRibbonPanel@@QAEXPBD@Z" PURGE="-1" COMMENT="" />
    <EXPORT ORDINAL="13411" NAME="?SetKeys@CMFCRibbonCategory@@QAEXPBD@Z" PURGE="-1" COMMENT="" />
    <EXPORT ORDINAL="13410" NAME="?SetKeys@CMFCRibbonBaseElement@@UAEXPBD0@Z" PURGE="-1" COMMENT="" />
    <EXPORT ORDINAL="13409" NAME="?SetKeyboardNavigationLevel@CMFCRibbonBar@@QAEXPAVCObject@@H@Z" PURGE="-1" COMMENT="" />
    <EXPORT ORDINAL="13408" NAME="?SetItemTypes@CMFCShellListCtrl@@QAEXK@Z" PURGE="-1" COMMENT="" />
    <EXPORT ORDINAL="13407" NAME="?SetItemToolTip@CMFCRibbonGallery@@QAEXHPBD@Z" PURGE="-1" COMMENT="" />
    <EXPORT ORDINAL="13406" NAME="?SetItemText@CVSListBox@@MAEXHABV?$CStringT@DV?$StrTraitMFC_DLL@DV?$ChTraitsCRT@D@ATL@@@@@ATL@@@Z" PURGE="-1" COMMENT="" />
    <EXPORT ORDINAL="13405" NAME="?SetItemText@CListCtrl@@QAEHHHPBD@Z" PURGE="-1" COMMENT="" />
    <EXPORT ORDINAL="13404" NAME="?SetItemState@CTabCtrl@@QAEHHKK@Z" PURGE="-1" COMMENT="" />
    <EXPORT ORDINAL="13403" NAME="?SetItemState@CListCtrl@@QAEHHII@Z" PURGE="-1" COMMENT="" />
    <EXPORT ORDINAL="13402" NAME="?SetItemRects@COleClientItem@@QAEHPBUtagRECT@@0@Z" PURGE="-1" COMMENT="" />
    <EXPORT ORDINAL="13401" NAME="?SetItemIndex@CMFCCustomizeMenuButton@@QAEXIHH@Z" PURGE="-1" COMMENT="" />
    <EXPORT ORDINAL="13400" NAME="?SetItemEx@CTreeCtrl@@QAEHPAU_TREEITEM@@IPBDHHIIJIPAUHWND__@@H@Z" PURGE="-1" COMMENT="" />
    <EXPORT ORDINAL="13399" NAME="?SetItemData@CVSListBox@@UAEXHK@Z" PURGE="-1" COMMENT="" />
    <EXPORT ORDINAL="13398" NAME="?SetItemCountEx@CListCtrl@@QAEHHK@Z" PURGE="-1" COMMENT="" />
    <EXPORT ORDINAL="13397" NAME="?SetItem@CTreeCtrl@@QAEHPAU_TREEITEM@@IPBDHHIIJ@Z" PURGE="-1" COMMENT="" />
    <EXPORT ORDINAL="13396" NAME="?SetItem@CListCtrl@@QAEHHHIPBDHIIJH@Z" PURGE="-1" COMMENT="" />
    <EXPORT ORDINAL="13395" NAME="?SetItem@CListCtrl@@QAEHHHIPBDHIIJ@Z" PURGE="-1" COMMENT="" />
    <EXPORT ORDINAL="13394" NAME="?SetItem@CComboBoxEx@@QAEHPBUtagCOMBOBOXEXITEMA@@@Z" PURGE="-1" COMMENT="" />
    <EXPORT ORDINAL="13393" NAME="?SetIsolateODBCTrans@CDaoWorkspace@@QAEXH@Z" PURGE="-1" COMMENT="" />
    <EXPORT ORDINAL="13390" NAME="?SetInterpolationMode@CD2DBitmapBrush@@QAEXW4D2D1_BITMAP_INTERPOLATION_MODE@@@Z" PURGE="-1" COMMENT="" />
    <EXPORT ORDINAL="13389" NAME="?SetInternalImage@CMFCEditBrowseCtrl@@IAEXXZ" PURGE="-1" COMMENT="" />
    <EXPORT ORDINAL="13391" NAME="?SetIntValue@CMFCFilterChunkValueImpl@@UAEJABU_tagpropertykey@@HW4tagCHUNKSTATE@@KKKW4tagCHUNK_BREAKTYPE@@@Z" PURGE="-1" COMMENT="" />
    <EXPORT ORDINAL="13388" NAME="?SetInt64Value@CMFCFilterChunkValueImpl@@UAEJABU_tagpropertykey@@_JW4tagCHUNKSTATE@@KKKW4tagCHUNK_BREAKTYPE@@@Z" PURGE="-1" COMMENT="" />
    <EXPORT ORDINAL="13385" NAME="?SetInitialSize@COleControl@@QAEXHH@Z" PURGE="-1" COMMENT="" />
    <EXPORT ORDINAL="13384" NAME="?SetInitialPageNum@XPrint@CDocObjectServer@@UAGJJ@Z" PURGE="-1" COMMENT="" />
    <EXPORT ORDINAL="13383" NAME="?SetInitialDataFormats@COleControl@@MAEXXZ" PURGE="-1" COMMENT="" />
    <EXPORT ORDINAL="13382" NAME="?SetIniPath@CDaoWorkspace@@SGXPBD@Z" PURGE="-1" COMMENT="" />
    <EXPORT ORDINAL="13381" NAME="?SetInformation@CMFCRibbonStatusBar@@QAEXPBD@Z" PURGE="-1" COMMENT="" />
    <EXPORT ORDINAL="13380" NAME="?SetInfo@CRecentPaneContainerInfo@@UAEXAAV1@@Z" PURGE="-1" COMMENT="" />
    <EXPORT ORDINAL="13379" NAME="?SetInfo@CRecentDockSiteInfo@@UAEXHAAV1@@Z" PURGE="-1" COMMENT="" />
    <EXPORT ORDINAL="13378" NAME="?SetInfiniteMode@CMFCRibbonProgressBar@@QAEXH@Z" PURGE="-1" COMMENT="" />
    <EXPORT ORDINAL="13377" NAME="?SetIndicators@CStatusBar@@QAEHPBIH@Z" PURGE="-1" COMMENT="" />
    <EXPORT ORDINAL="13376" NAME="?SetIndicators@CMFCStatusBar@@QAEHPBIH@Z" PURGE="-1" COMMENT="" />
    <EXPORT ORDINAL="13392" NAME="?SetInUse@CMenuTearOffManager@@QAEXIH@Z" PURGE="-1" COMMENT="" />
    <EXPORT ORDINAL="13387" NAME="?SetInPlaceSite@XOleDocumentView@CDocObjectServer@@UAGJPAUIOleInPlaceSite@@@Z" PURGE="-1" COMMENT="" />
    <EXPORT ORDINAL="13386" NAME="?SetInPlaceOwner@CControlBar@@QAEXPAVCWnd@@@Z" PURGE="-1" COMMENT="" />
    <EXPORT ORDINAL="13375" NAME="?SetInCommand@CMFCPopupMenuBar@@IAEXH@Z" PURGE="-1" COMMENT="" />
    <EXPORT ORDINAL="13373" NAME="?SetImages@CMFCToolBarButtonsListButton@@QAEXPAVCMFCToolBarImages@@@Z" PURGE="-1" COMMENT="" />
    <EXPORT ORDINAL="13372" NAME="?SetImages@CMFCRibbonButtonsGroup@@QAEXPAVCMFCToolBarImages@@00@Z" PURGE="-1" COMMENT="" />
    <EXPORT ORDINAL="13374" NAME="?SetImageToolTip@CMFCCaptionBar@@QAEXPBD0@Z" PURGE="-1" COMMENT="" />
    <EXPORT ORDINAL="13371" NAME="?SetImageList@CReBarCtrl@@QAEHPAVCImageList@@@Z" PURGE="-1" COMMENT="" />
    <EXPORT ORDINAL="13370" NAME="?SetImageList@CMFCTabCtrl@@UAEHPAU_IMAGELIST@@@Z" PURGE="-1" COMMENT="" />
    <EXPORT ORDINAL="13369" NAME="?SetImageList@CMFCTabCtrl@@UAEHIHK@Z" PURGE="-1" COMMENT="" />
    <EXPORT ORDINAL="13368" NAME="?SetImageList@CMFCBaseTabCtrl@@UAEHPAU_IMAGELIST@@@Z" PURGE="-1" COMMENT="" />
    <EXPORT ORDINAL="13367" NAME="?SetImageList@CMFCBaseTabCtrl@@UAEHIHK@Z" PURGE="-1" COMMENT="" />
    <EXPORT ORDINAL="13366" NAME="?SetImageInternal@CMFCButton@@IAEXPAUHICON__@@H0H0H@Z" PURGE="-1" COMMENT="" />
    <EXPORT ORDINAL="13365" NAME="?SetImageInternal@CMFCButton@@IAEXPAUHBITMAP__@@H0HH0@Z" PURGE="-1" COMMENT="" />
    <EXPORT ORDINAL="13364" NAME="?SetImageInternal@CMFCButton@@IAEXIIHI@Z" PURGE="-1" COMMENT="" />
    <EXPORT ORDINAL="13363" NAME="?SetImage@CMFCToolBarButton@@UAEXH@Z" PURGE="-1" COMMENT="" />
    <EXPORT ORDINAL="13362" NAME="?SetImage@CMFCRibbonApplicationButton@@QAEXPAUHBITMAP__@@@Z" PURGE="-1" COMMENT="" />
    <EXPORT ORDINAL="13361" NAME="?SetImage@CMFCRibbonApplicationButton@@QAEXI@Z" PURGE="-1" COMMENT="" />
    <EXPORT ORDINAL="13360" NAME="?SetImage@CMFCOutlookBarPaneButton@@UAEXH@Z" PURGE="-1" COMMENT="" />
    <EXPORT ORDINAL="13359" NAME="?SetImage@CMFCButton@@QAEXPAUHICON__@@H00H@Z" PURGE="-1" COMMENT="" />
    <EXPORT ORDINAL="13358" NAME="?SetImage@CMFCButton@@QAEXPAUHBITMAP__@@H0H0@Z" PURGE="-1" COMMENT="" />
    <EXPORT ORDINAL="13357" NAME="?SetImage@CMFCButton@@QAEXIII@Z" PURGE="-1" COMMENT="" />
    <EXPORT ORDINAL="13350" NAME="?SetIconsList@CMFCTasksPane@@QAEXPAU_IMAGELIST@@@Z" PURGE="-1" COMMENT="" />
    <EXPORT ORDINAL="13349" NAME="?SetIconsList@CMFCTasksPane@@QAEHIHK@Z" PURGE="-1" COMMENT="" />
    <EXPORT ORDINAL="13348" NAME="?SetIconsList@CMFCPropertySheet@@QAEXPAU_IMAGELIST@@@Z" PURGE="-1" COMMENT="" />
    <EXPORT ORDINAL="13347" NAME="?SetIconsList@CMFCPropertySheet@@QAEHIHK@Z" PURGE="-1" COMMENT="" />
    <EXPORT ORDINAL="13346" NAME="?SetIconicMetafile@COleClientItem@@QAEHPAX@Z" PURGE="-1" COMMENT="" />
    <EXPORT ORDINAL="13352" NAME="?SetIconSpacing@CListCtrl@@QAE?AVCSize@@V2@@Z" PURGE="-1" COMMENT="" />
    <EXPORT ORDINAL="13351" NAME="?SetIconSpacing@CListCtrl@@QAE?AVCSize@@HH@Z" PURGE="-1" COMMENT="" />
    <EXPORT ORDINAL="13345" NAME="?SetIcon@CMFCRibbonConstructor@@MBEXAAVCMFCRibbonButton@@W4RibbonImageType@CMFCRibbonBaseElement@@ABVCMFCToolBarImages@@H@Z" PURGE="-1" COMMENT="" />
    <EXPORT ORDINAL="13344" NAME="?SetIcon@CMFCCaptionBar@@QAEXPAUHICON__@@W4BarElementAlignment@1@@Z" PURGE="-1" COMMENT="" />
    <EXPORT ORDINAL="13356" NAME="?SetID@CProperty@@QAEXK@Z" PURGE="-1" COMMENT="" />
    <EXPORT ORDINAL="13355" NAME="?SetID@CMFCRibbonConstructor@@MBEXAAVCMFCRibbonBaseElement@@ABVXID@CMFCRibbonInfo@@@Z" PURGE="-1" COMMENT="" />
    <EXPORT ORDINAL="13354" NAME="?SetID@CMFCRibbonBaseElement@@UAEXI@Z" PURGE="-1" COMMENT="" />
    <EXPORT ORDINAL="13353" NAME="?SetID@CAnimationBaseObject@@QAEXII@Z" PURGE="-1" COMMENT="" />
    <EXPORT ORDINAL="13343" NAME="?SetHotTextColor@CMFCToolBar@@SGXK@Z" PURGE="-1" COMMENT="" />
    <EXPORT ORDINAL="13342" NAME="?SetHotRibbonButton@CMFCToolTipCtrl@@QAEXPAVCMFCRibbonButton@@@Z" PURGE="-1" COMMENT="" />
    <EXPORT ORDINAL="13341" NAME="?SetHotEdit@CMFCToolBarEditBoxButton@@IAEXH@Z" PURGE="-1" COMMENT="" />
    <EXPORT ORDINAL="13340" NAME="?SetHotEdit@CMFCToolBarComboBoxButton@@IAEXH@Z" PURGE="-1" COMMENT="" />
    <EXPORT ORDINAL="13339" NAME="?SetHot@CMFCToolBar@@QAEHPAVCMFCToolBarButton@@@Z" PURGE="-1" COMMENT="" />
    <EXPORT ORDINAL="13338" NAME="?SetHostNames@XOleObject@COleServerItem@@UAGJPB_W0@Z" PURGE="-1" COMMENT="" />
    <EXPORT ORDINAL="13337" NAME="?SetHostNames@XOleObject@COleServerDoc@@UAGJPB_W0@Z" PURGE="-1" COMMENT="" />
    <EXPORT ORDINAL="13336" NAME="?SetHostNames@XOleObject@COleControl@@UAGJPB_W0@Z" PURGE="-1" COMMENT="" />
    <EXPORT ORDINAL="13335" NAME="?SetHostNames@XOleObject@CDocObjectServer@@UAGJPB_W0@Z" PURGE="-1" COMMENT="" />
    <EXPORT ORDINAL="13334" NAME="?SetHostNames@COleClientItem@@QAEXPBD0@Z" PURGE="-1" COMMENT="" />
    <EXPORT ORDINAL="13333" NAME="?SetHostFlags@CDHtmlDialog@@QAEXK@Z" PURGE="-1" COMMENT="" />
    <EXPORT ORDINAL="13332" NAME="?SetHost@CMFCPreviewCtrlImpl@@UAEXPAUHWND__@@@Z" PURGE="-1" COMMENT="" />
    <EXPORT ORDINAL="13331" NAME="?SetHorzMargin@CMFCColorBar@@QAEXH@Z" PURGE="-1" COMMENT="" />
    <EXPORT ORDINAL="13329" NAME="?SetHighlightedSysButton@CFrameImpl@@IAEXI@Z" PURGE="-1" COMMENT="" />
    <EXPORT ORDINAL="13328" NAME="?SetHelpMode@CMFCToolBar@@SGXH@Z" PURGE="-1" COMMENT="" />
    <EXPORT ORDINAL="13327" NAME="?SetHelpInfo@COlePropertyPage@@QAEXPBD0K@Z" PURGE="-1" COMMENT="" />
    <EXPORT ORDINAL="13326" NAME="?SetHelpCapture@CFrameWnd@@IAEPAUHWND__@@UtagPOINT@@PAH@Z" PURGE="-1" COMMENT="" />
    <EXPORT ORDINAL="13325" NAME="?SetHeight@CToolBar@@QAEXH@Z" PURGE="-1" COMMENT="" />
    <EXPORT ORDINAL="13324" NAME="?SetHeight@CMFCToolBar@@QAEXH@Z" PURGE="-1" COMMENT="" />
    <EXPORT ORDINAL="13323" NAME="?SetHandles@CMDIChildWnd@@QAEXPAUHMENU__@@PAUHACCEL__@@@Z" PURGE="-1" COMMENT="" />
    <EXPORT ORDINAL="13322" NAME="?SetHandle@CSharedFile@@QAEXPAXH@Z" PURGE="-1" COMMENT="" />
    <EXPORT ORDINAL="13330" NAME="?SetHLS@CMFCColorPickerCtrl@@QAEXNNNH@Z" PURGE="-1" COMMENT="" />
    <EXPORT ORDINAL="13321" NAME="?SetGroupTextColor@CMFCTasksPane@@QAEHHKK@Z" PURGE="-1" COMMENT="" />
    <EXPORT ORDINAL="13320" NAME="?SetGroupNameFullWidth@CMFCPropertyGridCtrl@@QAEXHH@Z" PURGE="-1" COMMENT="" />
    <EXPORT ORDINAL="13319" NAME="?SetGroupName@CMFCTasksPane@@QAEHHPBD@Z" PURGE="-1" COMMENT="" />
    <EXPORT ORDINAL="13318" NAME="?SetGroupName@CMFCRibbonGallery@@QAEXHPBD@Z" PURGE="-1" COMMENT="" />
    <EXPORT ORDINAL="13317" NAME="?SetGrayDisabledButtons@CVSListBoxBase@@QAEXH@Z" PURGE="-1" COMMENT="" />
    <EXPORT ORDINAL="13316" NAME="?SetGraphicsMode@CDC@@QAEHH@Z" PURGE="-1" COMMENT="" />
    <EXPORT ORDINAL="13315" NAME="?SetGradientOriginOffset@CD2DRadialGradientBrush@@QAEXVCD2DPointF@@@Z" PURGE="-1" COMMENT="" />
    <EXPORT ORDINAL="13314" NAME="?SetGestureConfig@CWnd@@QAEHPAVCGestureConfig@@@Z" PURGE="-1" COMMENT="" />
    <EXPORT ORDINAL="13313" NAME="?SetFrameCustMode@CMFCToolBarsCustomizeDialog@@IAEXH@Z" PURGE="-1" COMMENT="" />
    <EXPORT ORDINAL="13312" NAME="?SetFormatVersion@CPropertySet@@QAEXG@Z" PURGE="-1" COMMENT="" />
    <EXPORT ORDINAL="13311" NAME="?SetFormatID@CPropertySection@@QAEXU_GUID@@@Z" PURGE="-1" COMMENT="" />
    <EXPORT ORDINAL="13310" NAME="?SetForeColor@COleControl@@QAEXK@Z" PURGE="-1" COMMENT="" />
    <EXPORT ORDINAL="13309" NAME="?SetFontNotifySink@CFontHolder@@QAEXPAUIPropertyNotifySink@@@Z" PURGE="-1" COMMENT="" />
    <EXPORT ORDINAL="13308" NAME="?SetFontFamilyName@CD2DTextLayout@@QAEHPB_WUDWRITE_TEXT_RANGE@@@Z" PURGE="-1" COMMENT="" />
    <EXPORT ORDINAL="13307" NAME="?SetFont@XPreviewHandlerVisuals@CDocument@@UAGJPBUtagLOGFONTW@@@Z" PURGE="-1" COMMENT="" />
    <EXPORT ORDINAL="13306" NAME="?SetFont@COleControl@@QAEXPAUIFontDisp@@@Z" PURGE="-1" COMMENT="" />
    <EXPORT ORDINAL="13305" NAME="?SetFont@CMFCToolBarFontComboBox@@QAEHPBDEH@Z" PURGE="-1" COMMENT="" />
    <EXPORT ORDINAL="13304" NAME="?SetFont@CMFCTasksPane@@IAEPAUHFONT__@@PAVCDC@@@Z" PURGE="-1" COMMENT="" />
    <EXPORT ORDINAL="13303" NAME="?SetFont@CMFCRibbonFontComboBox@@QAEHPBDEH@Z" PURGE="-1" COMMENT="" />
    <EXPORT ORDINAL="13302" NAME="?SetFont@CFontHolder@@QAEXPAUIFont@@@Z" PURGE="-1" COMMENT="" />
    <EXPORT ORDINAL="13301" NAME="?SetFont@CDialogTemplate@@QAEHPBDG@Z" PURGE="-1" COMMENT="" />
    <EXPORT ORDINAL="13299" NAME="?SetFocused@CMFCRibbonPanel@@QAEXPAVCMFCRibbonBaseElement@@@Z" PURGE="-1" COMMENT="" />
    <EXPORT ORDINAL="13300" NAME="?SetFocusToElement@CDHtmlDialog@@IAEXPBD@Z" PURGE="-1" COMMENT="" />
    <EXPORT ORDINAL="13298" NAME="?SetFocus@XPreviewHandler@CDocument@@UAGJXZ" PURGE="-1" COMMENT="" />
    <EXPORT ORDINAL="13297" NAME="?SetFocus@XOleIPSite@COleControlSite@@UAGJH@Z" PURGE="-1" COMMENT="" />
    <EXPORT ORDINAL="13296" NAME="?SetFocus@CWnd@@QAEPAV1@XZ" PURGE="-1" COMMENT="" />
    <EXPORT ORDINAL="13295" NAME="?SetFocus@COleControlSite@@UAEPAVCWnd@@XZ" PURGE="-1" COMMENT="" />
    <EXPORT ORDINAL="13294" NAME="?SetFocus@COleControlSite@@UAEPAVCWnd@@PAUtagMSG@@@Z" PURGE="-1" COMMENT="" />
    <EXPORT ORDINAL="13293" NAME="?SetFocus@COleControl@@QAEPAVCWnd@@XZ" PURGE="-1" COMMENT="" />
    <EXPORT ORDINAL="13292" NAME="?SetFlags@CMFCShellTreeCtrl@@QAEXKH@Z" PURGE="-1" COMMENT="" />
    <EXPORT ORDINAL="13291" NAME="?SetFlags@CMFCPropertyGridProperty@@IAEXXZ" PURGE="-1" COMMENT="" />
    <EXPORT ORDINAL="13290" NAME="?SetFirstDayOfWeek@CMonthCalCtrl@@QAEHHPAH@Z" PURGE="-1" COMMENT="" />
    <EXPORT ORDINAL="13289" NAME="?SetFillMode@CD2DGeometrySink@@QAEXW4D2D1_FILL_MODE@@@Z" PURGE="-1" COMMENT="" />
    <EXPORT ORDINAL="13288" NAME="?SetFileTimeValue@CMFCFilterChunkValueImpl@@UAEJABU_tagpropertykey@@U_FILETIME@@W4tagCHUNKSTATE@@KKKW4tagCHUNK_BREAKTYPE@@@Z" PURGE="-1" COMMENT="" />
    <EXPORT ORDINAL="13287" NAME="?SetFieldValueNull@CDaoRecordset@@QAEXPBD@Z" PURGE="-1" COMMENT="" />
    <EXPORT ORDINAL="13286" NAME="?SetFieldValueNull@CDaoRecordset@@QAEXH@Z" PURGE="-1" COMMENT="" />
    <EXPORT ORDINAL="13285" NAME="?SetFieldValue@CDaoRecordset@@UAEXPBDABVCOleVariant@@@Z" PURGE="-1" COMMENT="" />
    <EXPORT ORDINAL="13284" NAME="?SetFieldValue@CDaoRecordset@@UAEXHABVCOleVariant@@@Z" PURGE="-1" COMMENT="" />
    <EXPORT ORDINAL="13283" NAME="?SetFieldValue@CDaoRecordset@@QAEXPBD0@Z" PURGE="-1" COMMENT="" />
    <EXPORT ORDINAL="13282" NAME="?SetFieldValue@CDaoRecordset@@QAEXHPBD@Z" PURGE="-1" COMMENT="" />
    <EXPORT ORDINAL="13281" NAME="?SetFieldStatus@CRecordset@@QAEXKE@Z" PURGE="-1" COMMENT="" />
    <EXPORT ORDINAL="13280" NAME="?SetFieldNull@CRecordset@@QAEXPAXH@Z" PURGE="-1" COMMENT="" />
    <EXPORT ORDINAL="13279" NAME="?SetFieldNull@CDaoRecordset@@QAEXPAXH@Z" PURGE="-1" COMMENT="" />
    <EXPORT ORDINAL="13278" NAME="?SetFieldDirty@CRecordset@@QAEXPAXH@Z" PURGE="-1" COMMENT="" />
    <EXPORT ORDINAL="13277" NAME="?SetFieldDirty@CDaoRecordset@@QAEXPAXH@Z" PURGE="-1" COMMENT="" />
    <EXPORT ORDINAL="13276" NAME="?SetFaceColor@CMFCButton@@QAEXKH@Z" PURGE="-1" COMMENT="" />
    <EXPORT ORDINAL="13275" NAME="?SetExternalDispatch@CDHtmlDialog@@QAEXPAUIDispatch@@@Z" PURGE="-1" COMMENT="" />
    <EXPORT ORDINAL="13274" NAME="?SetExtent@XOleObject@COleServerItem@@UAGJKPAUtagSIZE@@@Z" PURGE="-1" COMMENT="" />
    <EXPORT ORDINAL="13273" NAME="?SetExtent@XOleObject@COleServerDoc@@UAGJKPAUtagSIZE@@@Z" PURGE="-1" COMMENT="" />
    <EXPORT ORDINAL="13272" NAME="?SetExtent@XOleObject@COleControl@@UAGJKPAUtagSIZE@@@Z" PURGE="-1" COMMENT="" />
    <EXPORT ORDINAL="13271" NAME="?SetExtent@XOleObject@CDocObjectServer@@UAGJKPAUtagSIZE@@@Z" PURGE="-1" COMMENT="" />
    <EXPORT ORDINAL="13270" NAME="?SetExtent@COleControlSite@@IAEHXZ" PURGE="-1" COMMENT="" />
    <EXPORT ORDINAL="13269" NAME="?SetExtent@COleClientItem@@QAEXABVCSize@@W4tagDVASPECT@@@Z" PURGE="-1" COMMENT="" />
    <EXPORT ORDINAL="13268" NAME="?SetExtendModeY@CD2DBitmapBrush@@QAEXW4D2D1_EXTEND_MODE@@@Z" PURGE="-1" COMMENT="" />
    <EXPORT ORDINAL="13267" NAME="?SetExtendModeX@CD2DBitmapBrush@@QAEXW4D2D1_EXTEND_MODE@@@Z" PURGE="-1" COMMENT="" />
    <EXPORT ORDINAL="13266" NAME="?SetError@XInfoError@CMFCRibbonInfo@@QAEXW4XError@12@ABV?$CStringT@DV?$StrTraitMFC_DLL@DV?$ChTraitsCRT@D@ATL@@@@@ATL@@JJ@Z" PURGE="-1" COMMENT="" />
    <EXPORT ORDINAL="13265" NAME="?SetEndPoint@CD2DLinearGradientBrush@@QAEXVCD2DPointF@@@Z" PURGE="-1" COMMENT="" />
    <EXPORT ORDINAL="13264" NAME="?SetEnabled@COleControl@@QAEXH@Z" PURGE="-1" COMMENT="" />
    <EXPORT ORDINAL="13263" NAME="?SetElementText@CDHtmlDialog@@QAEXPBDPA_W@Z" PURGE="-1" COMMENT="" />
    <EXPORT ORDINAL="13262" NAME="?SetElementText@CDHtmlDialog@@QAEXPAUIUnknown@@PA_W@Z" PURGE="-1" COMMENT="" />
    <EXPORT ORDINAL="13261" NAME="?SetElementRTCByID@CMFCRibbonPanel@@QAEPAVCMFCRibbonBaseElement@@IPAUCRuntimeClass@@@Z" PURGE="-1" COMMENT="" />
    <EXPORT ORDINAL="13260" NAME="?SetElementRTC@CMFCRibbonPanel@@QAEPAVCMFCRibbonBaseElement@@HPAUCRuntimeClass@@@Z" PURGE="-1" COMMENT="" />
    <EXPORT ORDINAL="13259" NAME="?SetElementProperty@CDHtmlDialog@@QAEXPBDJPAUtagVARIANT@@@Z" PURGE="-1" COMMENT="" />
    <EXPORT ORDINAL="13258" NAME="?SetElementMenu@CMFCRibbonPanel@@QAEHIPAUHMENU__@@HH@Z" PURGE="-1" COMMENT="" />
    <EXPORT ORDINAL="13257" NAME="?SetElementMenu@CMFCRibbonPanel@@QAEHIIHH@Z" PURGE="-1" COMMENT="" />
    <EXPORT ORDINAL="13256" NAME="?SetElementKeys@CMFCRibbonBar@@QAEHIPBD0@Z" PURGE="-1" COMMENT="" />
    <EXPORT ORDINAL="13255" NAME="?SetElementHtml@CDHtmlDialog@@QAEXPBDPA_W@Z" PURGE="-1" COMMENT="" />
    <EXPORT ORDINAL="13254" NAME="?SetElementHtml@CDHtmlDialog@@QAEXPAUIUnknown@@PA_W@Z" PURGE="-1" COMMENT="" />
    <EXPORT ORDINAL="13253" NAME="?SetEditText@CMFCRibbonEdit@@QAEXV?$CStringT@DV?$StrTraitMFC_DLL@DV?$ChTraitsCRT@D@ATL@@@@@ATL@@@Z" PURGE="-1" COMMENT="" />
    <EXPORT ORDINAL="13252" NAME="?SetEditBoxText@CFileDialog@@QAEJKABV?$CStringT@DV?$StrTraitMFC_DLL@DV?$ChTraitsCRT@D@ATL@@@@@ATL@@@Z" PURGE="-1" COMMENT="" />
    <EXPORT ORDINAL="13251" NAME="?SetDwordValue@CMFCFilterChunkValueImpl@@UAEJABU_tagpropertykey@@KW4tagCHUNKSTATE@@KKKW4tagCHUNK_BREAKTYPE@@@Z" PURGE="-1" COMMENT="" />
    <EXPORT ORDINAL="13249" NAME="?SetDroppedDown@CMFCRibbonBaseElement@@IAEXPAVCMFCPopupMenu@@@Z" PURGE="-1" COMMENT="" />
    <EXPORT ORDINAL="13248" NAME="?SetDropDownHeight@CMFCToolBarComboBoxButton@@QAEXH@Z" PURGE="-1" COMMENT="" />
    <EXPORT ORDINAL="13247" NAME="?SetDropDownHeight@CMFCRibbonComboBox@@QAEXH@Z" PURGE="-1" COMMENT="" />
    <EXPORT ORDINAL="13246" NAME="?SetDrawNoPrefix@CMFCBaseTabCtrl@@QAEXHH@Z" PURGE="-1" COMMENT="" />
    <EXPORT ORDINAL="13245" NAME="?SetDrawFrame@CMFCTabCtrl@@QAEXH@Z" PURGE="-1" COMMENT="" />
    <EXPORT ORDINAL="13244" NAME="?SetDrawAspect@CRichEditCntrItem@@UAEXW4tagDVASPECT@@@Z" PURGE="-1" COMMENT="" />
    <EXPORT ORDINAL="13243" NAME="?SetDrawAspect@COleClientItem@@UAEXW4tagDVASPECT@@@Z" PURGE="-1" COMMENT="" />
    <EXPORT ORDINAL="13242" NAME="?SetDragMode@CPane@@MAEXH@Z" PURGE="-1" COMMENT="" />
    <EXPORT ORDINAL="13241" NAME="?SetDpi@CRenderTarget@@QAEXABVCD2DSizeF@@@Z" PURGE="-1" COMMENT="" />
    <EXPORT ORDINAL="13240" NAME="?SetDocumentColors@CMFCRibbonColorButton@@QAEXPBDAAV?$CList@KK@@@Z" PURGE="-1" COMMENT="" />
    <EXPORT ORDINAL="13239" NAME="?SetDocumentColors@CMFCColorButton@@QAEXPBDAAV?$CList@KK@@@Z" PURGE="-1" COMMENT="" />
    <EXPORT ORDINAL="13238" NAME="?SetDocumentColors@CMFCColorBar@@QAEXPBDAAV?$CList@KK@@H@Z" PURGE="-1" COMMENT="" />
    <EXPORT ORDINAL="13230" NAME="?SetDockingTimer@CPaneFrameWnd@@QAEXI@Z" PURGE="-1" COMMENT="" />
    <EXPORT ORDINAL="13229" NAME="?SetDockingMode@CDockingManager@@SGXW4AFX_DOCK_TYPE@@W4AFX_SMARTDOCK_THEME@@@Z" PURGE="-1" COMMENT="" />
    <EXPORT ORDINAL="13236" NAME="?SetDockState@CPaneFrameWnd@@UAEXPAVCDockingManager@@@Z" PURGE="-1" COMMENT="" />
    <EXPORT ORDINAL="13235" NAME="?SetDockState@CPane@@UAEXPAVCDockingManager@@@Z" PURGE="-1" COMMENT="" />
    <EXPORT ORDINAL="13234" NAME="?SetDockState@CMultiPaneFrameWnd@@UAEXPAVCDockingManager@@@Z" PURGE="-1" COMMENT="" />
    <EXPORT ORDINAL="13233" NAME="?SetDockState@CFrameWnd@@QAEXABVCDockState@@@Z" PURGE="-1" COMMENT="" />
    <EXPORT ORDINAL="13232" NAME="?SetDockState@CFrameImpl@@IAEXABVCDockState@@@Z" PURGE="-1" COMMENT="" />
    <EXPORT ORDINAL="13231" NAME="?SetDockState@CDockingManager@@UAEXXZ" PURGE="-1" COMMENT="" />
    <EXPORT ORDINAL="13237" NAME="?SetDocSite@CDocObjectServer@@QAEXPAUIOleDocumentSite@@@Z" PURGE="-1" COMMENT="" />
    <EXPORT ORDINAL="13228" NAME="?SetDlgItemTextA@CWnd@@QAEXHPBD@Z" PURGE="-1" COMMENT="" />
    <EXPORT ORDINAL="13227" NAME="?SetDlgItemTextA@COleControlContainer@@UAEXHPBD@Z" PURGE="-1" COMMENT="" />
    <EXPORT ORDINAL="13226" NAME="?SetDlgItemInt@CWnd@@QAEXHIH@Z" PURGE="-1" COMMENT="" />
    <EXPORT ORDINAL="13225" NAME="?SetDlgItemInt@COleControlContainer@@UAEXHIH@Z" PURGE="-1" COMMENT="" />
    <EXPORT ORDINAL="13224" NAME="?SetDlgCtrlID@CWnd@@QAEHH@Z" PURGE="-1" COMMENT="" />
    <EXPORT ORDINAL="13223" NAME="?SetDlgCtrlID@COleControlSite@@UAEHH@Z" PURGE="-1" COMMENT="" />
    <EXPORT ORDINAL="13220" NAME="?SetDirtyFields@CDaoRecordset@@MAEXXZ" PURGE="-1" COMMENT="" />
    <EXPORT ORDINAL="13222" NAME="?SetDirtyFieldStatus@CRecordset@@QAEXK@Z" PURGE="-1" COMMENT="" />
    <EXPORT ORDINAL="13221" NAME="?SetDirtyFieldStatus@CDaoRecordset@@QAEXI@Z" PURGE="-1" COMMENT="" />
    <EXPORT ORDINAL="13219" NAME="?SetDialogResource@COlePropertyPage@@QAEXPAX@Z" PURGE="-1" COMMENT="" />
    <EXPORT ORDINAL="13218" NAME="?SetDescriptionRows@CMFCPropertyGridCtrl@@QAEXH@Z" PURGE="-1" COMMENT="" />
    <EXPORT ORDINAL="13217" NAME="?SetDescription@CMFCToolTipCtrl@@UAEXV?$CStringT@DV?$StrTraitMFC_DLL@DV?$ChTraitsCRT@D@ATL@@@@@ATL@@@Z" PURGE="-1" COMMENT="" />
    <EXPORT ORDINAL="13216" NAME="?SetDescription@CMFCRibbonButton@@UAEXPBD@Z" PURGE="-1" COMMENT="" />
    <EXPORT ORDINAL="13215" NAME="?SetDescription@CMFCRibbonBaseElement@@UAEXPBD@Z" PURGE="-1" COMMENT="" />
    <EXPORT ORDINAL="13213" NAME="?SetDefaultWinXPColors@CMFCVisualManagerOffice2003@@SGXH@Z" PURGE="-1" COMMENT="" />
    <EXPORT ORDINAL="13212" NAME="?SetDefaultValue@CAnimationVariable@@QAEXN@Z" PURGE="-1" COMMENT="" />
    <EXPORT ORDINAL="13211" NAME="?SetDefaultValue@CAnimationSize@@QAEXABVCSize@@@Z" PURGE="-1" COMMENT="" />
    <EXPORT ORDINAL="13210" NAME="?SetDefaultValue@CAnimationRect@@QAEXABVCRect@@@Z" PURGE="-1" COMMENT="" />
    <EXPORT ORDINAL="13209" NAME="?SetDefaultValue@CAnimationPoint@@QAEXABUtagPOINT@@@Z" PURGE="-1" COMMENT="" />
    <EXPORT ORDINAL="13208" NAME="?SetDefaultValue@CAnimationColor@@QAEXK@Z" PURGE="-1" COMMENT="" />
    <EXPORT ORDINAL="13207" NAME="?SetDefaultUser@CDaoWorkspace@@SGXPBD@Z" PURGE="-1" COMMENT="" />
    <EXPORT ORDINAL="13206" NAME="?SetDefaultTitle@CSingleDocTemplate@@UAEXPAVCDocument@@@Z" PURGE="-1" COMMENT="" />
    <EXPORT ORDINAL="13205" NAME="?SetDefaultTitle@CMultiDocTemplate@@UAEXPAVCDocument@@@Z" PURGE="-1" COMMENT="" />
    <EXPORT ORDINAL="13204" NAME="?SetDefaultState@CMFCOutlookBarPane@@QAEXXZ" PURGE="-1" COMMENT="" />
    <EXPORT ORDINAL="13203" NAME="?SetDefaultPassword@CDaoWorkspace@@SGXPBD@Z" PURGE="-1" COMMENT="" />
    <EXPORT ORDINAL="13202" NAME="?SetDefaultPaneDividerForPanes@CPaneContainerManager@@QAEXPAVCPaneDivider@@@Z" PURGE="-1" COMMENT="" />
    <EXPORT ORDINAL="13201" NAME="?SetDefaultPaneDivider@CDockablePane@@QAEXPAUHWND__@@@Z" PURGE="-1" COMMENT="" />
    <EXPORT ORDINAL="13200" NAME="?SetDefaultMenuResId@CMFCMenuBar@@QAEXI@Z" PURGE="-1" COMMENT="" />
    <EXPORT ORDINAL="13199" NAME="?SetDefaultManager@CMFCVisualManager@@SGXPAUCRuntimeClass@@@Z" PURGE="-1" COMMENT="" />
    <EXPORT ORDINAL="13198" NAME="?SetDefaultCommand@CMFCDropDownToolbarButton@@QAEXI@Z" PURGE="-1" COMMENT="" />
    <EXPORT ORDINAL="13196" NAME="?SetDefaultCharFormat@CRichEditCtrl@@QAEHAAU_charformat@@@Z" PURGE="-1" COMMENT="" />
    <EXPORT ORDINAL="13197" NAME="?SetDefaultCharFormat@CRichEditCtrl@@QAEHAAUCHARFORMAT2A@@@Z" PURGE="-1" COMMENT="" />
    <EXPORT ORDINAL="13195" NAME="?SetDefaultButton@COleControlSite@@QAEXH@Z" PURGE="-1" COMMENT="" />
    <EXPORT ORDINAL="13194" NAME="?SetDefaultButton@COccManager@@SAXPAVCWnd@@H@Z" PURGE="-1" COMMENT="" />
    <EXPORT ORDINAL="13214" NAME="?SetDefExt@CFileDialog@@QAEXPBD@Z" PURGE="-1" COMMENT="" />
    <EXPORT ORDINAL="13193" NAME="?SetDayState@CMonthCalCtrl@@QAEHHPAK@Z" PURGE="-1" COMMENT="" />
    <EXPORT ORDINAL="13192" NAME="?SetData@XOleCache@COleControl@@UAGJPAUtagFORMATETC@@PAUtagSTGMEDIUM@@H@Z" PURGE="-1" COMMENT="" />
    <EXPORT ORDINAL="13191" NAME="?SetData@XDataObject@COleServerItem@@UAGJPAUtagFORMATETC@@PAUtagSTGMEDIUM@@H@Z" PURGE="-1" COMMENT="" />
    <EXPORT ORDINAL="13190" NAME="?SetData@XDataObject@COleServerDoc@@UAGJPAUtagFORMATETC@@PAUtagSTGMEDIUM@@H@Z" PURGE="-1" COMMENT="" />
    <EXPORT ORDINAL="13189" NAME="?SetData@XDataObject@COleDataSource@@UAGJPAUtagFORMATETC@@PAUtagSTGMEDIUM@@H@Z" PURGE="-1" COMMENT="" />
    <EXPORT ORDINAL="13188" NAME="?SetData@XDataObject@COleControl@@UAGJPAUtagFORMATETC@@PAUtagSTGMEDIUM@@H@Z" PURGE="-1" COMMENT="" />
    <EXPORT ORDINAL="13250" NAME="?SetDSCSite@CDataBoundProperty@@QAEXPAVCOleControlSite@@@Z" PURGE="-1" COMMENT="" />
    <EXPORT ORDINAL="13187" NAME="?SetCustomizeMode@CMFCToolBar@@SGHH@Z" PURGE="-1" COMMENT="" />
    <EXPORT ORDINAL="13186" NAME="?SetCustomColors@CMFCPropertyGridCtrl@@QAEXKKKKKKK@Z" PURGE="-1" COMMENT="" />
    <EXPORT ORDINAL="13185" NAME="?SetCursorAttributes@CDaoRecordset@@QAEXXZ" PURGE="-1" COMMENT="" />
    <EXPORT ORDINAL="13184" NAME="?SetCursor@CRectTracker@@QBEHPAVCWnd@@I@Z" PURGE="-1" COMMENT="" />
    <EXPORT ORDINAL="13178" NAME="?SetCurrentPage@CPreviewView@@IAEXIH@Z" PURGE="-1" COMMENT="" />
    <EXPORT ORDINAL="13177" NAME="?SetCurrentIndex@CDaoRecordset@@QAEXPBD@Z" PURGE="-1" COMMENT="" />
    <EXPORT ORDINAL="13176" NAME="?SetCurrentHandles@CWinApp@@QAEXXZ" PURGE="-1" COMMENT="" />
    <EXPORT ORDINAL="13175" NAME="?SetCurrentDirectoryA@CFtpConnection@@QAEHPBD@Z" PURGE="-1" COMMENT="" />
    <EXPORT ORDINAL="13174" NAME="?SetCurrentColor@CMFCColorDialog@@QAEXK@Z" PURGE="-1" COMMENT="" />
    <EXPORT ORDINAL="13173" NAME="?SetCurrentColor@CColorDialog@@QAEXK@Z" PURGE="-1" COMMENT="" />
    <EXPORT ORDINAL="13172" NAME="?SetCurrency@COleCurrency@@QAEXJJ@Z" PURGE="-1" COMMENT="" />
    <EXPORT ORDINAL="13179" NAME="?SetCurrFont@CMFCPropertyGridCtrl@@IAEPAUHFONT__@@PAVCDC@@@Z" PURGE="-1" COMMENT="" />
    <EXPORT ORDINAL="13183" NAME="?SetCurSel@CMonthCalCtrl@@QAEHABVCTime@ATL@@@Z" PURGE="-1" COMMENT="" />
    <EXPORT ORDINAL="13182" NAME="?SetCurSel@CMonthCalCtrl@@QAEHABVCOleDateTime@ATL@@@Z" PURGE="-1" COMMENT="" />
    <EXPORT ORDINAL="13181" NAME="?SetCurSel@CMFCPropertyGridCtrl@@QAEXPAVCMFCPropertyGridProperty@@H@Z" PURGE="-1" COMMENT="" />
    <EXPORT ORDINAL="13180" NAME="?SetCurSel@CMFCDropDownListBox@@QAEHH@Z" PURGE="-1" COMMENT="" />
    <EXPORT ORDINAL="13171" NAME="?SetCookie@CInternetSession@@SAHPBD00@Z" PURGE="-1" COMMENT="" />
    <EXPORT ORDINAL="13170" NAME="?SetControlText@CFileDialog@@QAEXHPBD@Z" PURGE="-1" COMMENT="" />
    <EXPORT ORDINAL="13169" NAME="?SetControlStatus@COlePropertyPage@@QAEHIH@Z" PURGE="-1" COMMENT="" />
    <EXPORT ORDINAL="13168" NAME="?SetControlState@CFileDialog@@QAEJKW4CDCONTROLSTATEF@@@Z" PURGE="-1" COMMENT="" />
    <EXPORT ORDINAL="13167" NAME="?SetControlSize@COleControl@@QAEHHH@Z" PURGE="-1" COMMENT="" />
    <EXPORT ORDINAL="13166" NAME="?SetControlProperty@CDHtmlDialog@@QAEXPBDJPAUtagVARIANT@@@Z" PURGE="-1" COMMENT="" />
    <EXPORT ORDINAL="13165" NAME="?SetControlProperty@CDHtmlDialog@@QAEXPBD0PAUtagVARIANT@@@Z" PURGE="-1" COMMENT="" />
    <EXPORT ORDINAL="13164" NAME="?SetControlProperty@CDHtmlDialog@@QAEXPAUIDispatch@@JPAUtagVARIANT@@@Z" PURGE="-1" COMMENT="" />
    <EXPORT ORDINAL="13163" NAME="?SetControlLabel@CFileDialog@@QAEJKABV?$CStringT@DV?$StrTraitMFC_DLL@DV?$ChTraitsCRT@D@ATL@@@@@ATL@@@Z" PURGE="-1" COMMENT="" />
    <EXPORT ORDINAL="13162" NAME="?SetControlItemText@CFileDialog@@QAEJKKABV?$CStringT@DV?$StrTraitMFC_DLL@DV?$ChTraitsCRT@D@ATL@@@@@ATL@@@Z" PURGE="-1" COMMENT="" />
    <EXPORT ORDINAL="13161" NAME="?SetControlItemState@CFileDialog@@QAEJKKW4CDCONTROLSTATEF@@@Z" PURGE="-1" COMMENT="" />
    <EXPORT ORDINAL="13160" NAME="?SetControlData@CMFCControlContainer@@QAEXGKPAE@Z" PURGE="-1" COMMENT="" />
    <EXPORT ORDINAL="13159" NAME="?SetControl@CReflectorWnd@@QAEXPAVCOleControl@@@Z" PURGE="-1" COMMENT="" />
    <EXPORT ORDINAL="13158" NAME="?SetContext@CMFCToolBarFontComboBox@@IAEXXZ" PURGE="-1" COMMENT="" />
    <EXPORT ORDINAL="13157" NAME="?SetContentsAll@CMFCToolBarEditBoxButton@@SGHIABV?$CStringT@DV?$StrTraitMFC_DLL@DV?$ChTraitsCRT@D@ATL@@@@@ATL@@@Z" PURGE="-1" COMMENT="" />
    <EXPORT ORDINAL="13156" NAME="?SetContents@CMFCToolBarEditBoxButton@@UAEXABV?$CStringT@DV?$StrTraitMFC_DLL@DV?$ChTraitsCRT@D@ATL@@@@@ATL@@@Z" PURGE="-1" COMMENT="" />
    <EXPORT ORDINAL="13155" NAME="?SetContentExtent@XQuickActivate@COleControl@@UAGJPAUtagSIZE@@@Z" PURGE="-1" COMMENT="" />
    <EXPORT ORDINAL="13154" NAME="?SetContainerInfo@CDocTemplate@@QAEXI@Z" PURGE="-1" COMMENT="" />
    <EXPORT ORDINAL="13153" NAME="?SetConnect@CDaoTableDef@@QAEXPBD@Z" PURGE="-1" COMMENT="" />
    <EXPORT ORDINAL="13152" NAME="?SetConnect@CDaoQueryDef@@QAEXPBD@Z" PURGE="-1" COMMENT="" />
    <EXPORT ORDINAL="13151" NAME="?SetConcurrencyAndCursorType@CRecordset@@IAEXPAXK@Z" PURGE="-1" COMMENT="" />
    <EXPORT ORDINAL="13149" NAME="?SetCommands@CMFCRibbonQuickAccessToolBar@@IAEXPAVCMFCRibbonBar@@ABV?$CList@II@@PBD@Z" PURGE="-1" COMMENT="" />
    <EXPORT ORDINAL="13148" NAME="?SetCommands@CMFCRibbonQuickAccessToolBar@@IAEXPAVCMFCRibbonBar@@ABV?$CList@II@@PAVCMFCRibbonQuickAccessCustomizeButton@@@Z" PURGE="-1" COMMENT="" />
    <EXPORT ORDINAL="13147" NAME="?SetCommands@CMFCRibbonMiniToolBar@@QAEXPAVCMFCRibbonBar@@ABV?$CList@II@@@Z" PURGE="-1" COMMENT="" />
    <EXPORT ORDINAL="13150" NAME="?SetCommandUsageOptions@CMFCToolBar@@SGHII@Z" PURGE="-1" COMMENT="" />
    <EXPORT ORDINAL="13146" NAME="?SetCommandForDblClk@CMouseManager@@QAEXHI@Z" PURGE="-1" COMMENT="" />
    <EXPORT ORDINAL="13145" NAME="?SetCommand@CUserTool@@QAEXPBD@Z" PURGE="-1" COMMENT="" />
    <EXPORT ORDINAL="13144" NAME="?SetColumnsWidth@CMFCKeyMapDialog@@MAEXXZ" PURGE="-1" COMMENT="" />
    <EXPORT ORDINAL="13143" NAME="?SetColumnsNumber@CMFCPropertyGridColorProperty@@QAEXH@Z" PURGE="-1" COMMENT="" />
    <EXPORT ORDINAL="13142" NAME="?SetColumnOrderArray@CListCtrl@@QAEHHPAH@Z" PURGE="-1" COMMENT="" />
    <EXPORT ORDINAL="13141" NAME="?SetColumnInfo@CSplitterWnd@@QAEXHHH@Z" PURGE="-1" COMMENT="" />
    <EXPORT ORDINAL="13140" NAME="?SetColorScheme@XOleObject@COleServerItem@@UAGJPAUtagLOGPALETTE@@@Z" PURGE="-1" COMMENT="" />
    <EXPORT ORDINAL="13139" NAME="?SetColorScheme@XOleObject@COleServerDoc@@UAGJPAUtagLOGPALETTE@@@Z" PURGE="-1" COMMENT="" />
    <EXPORT ORDINAL="13138" NAME="?SetColorScheme@XOleObject@COleControl@@UAGJPAUtagLOGPALETTE@@@Z" PURGE="-1" COMMENT="" />
    <EXPORT ORDINAL="13137" NAME="?SetColorScheme@XOleObject@CDocObjectServer@@UAGJPAUtagLOGPALETTE@@@Z" PURGE="-1" COMMENT="" />
    <EXPORT ORDINAL="13136" NAME="?SetColorScheme@CReBarCtrl@@QAEXPBUtagCOLORSCHEME@@@Z" PURGE="-1" COMMENT="" />
    <EXPORT ORDINAL="13135" NAME="?SetColorName@CMFCColorMenuButton@@SGXKABV?$CStringT@DV?$StrTraitMFC_DLL@DV?$ChTraitsCRT@D@ATL@@@@@ATL@@@Z" PURGE="-1" COMMENT="" />
    <EXPORT ORDINAL="13134" NAME="?SetColorBoxSize@CMFCRibbonColorButton@@QAEXVCSize@@@Z" PURGE="-1" COMMENT="" />
    <EXPORT ORDINAL="13133" NAME="?SetColorAdjustment@CDC@@QAEHPBUtagCOLORADJUSTMENT@@@Z" PURGE="-1" COMMENT="" />
    <EXPORT ORDINAL="13126" NAME="?SetColor@CMenuImages@@SGXW4IMAGE_STATE@1@K@Z" PURGE="-1" COMMENT="" />
    <EXPORT ORDINAL="13132" NAME="?SetColor@CMFCPropertyGridColorProperty@@QAEXK@Z" PURGE="-1" COMMENT="" />
    <EXPORT ORDINAL="13131" NAME="?SetColor@CMFCImagePaintArea@@QAEXK@Z" PURGE="-1" COMMENT="" />
    <EXPORT ORDINAL="13130" NAME="?SetColor@CMFCColorPickerCtrl@@QAEXK@Z" PURGE="-1" COMMENT="" />
    <EXPORT ORDINAL="13129" NAME="?SetColor@CMFCColorMenuButton@@UAEXKH@Z" PURGE="-1" COMMENT="" />
    <EXPORT ORDINAL="13128" NAME="?SetColor@CMFCColorButton@@QAEXK@Z" PURGE="-1" COMMENT="" />
    <EXPORT ORDINAL="13127" NAME="?SetColor@CMFCColorBar@@QAEXK@Z" PURGE="-1" COMMENT="" />
    <EXPORT ORDINAL="13125" NAME="?SetColor@CD2DSolidColorBrush@@QAEXUD3DCOLORVALUE@@@Z" PURGE="-1" COMMENT="" />
    <EXPORT ORDINAL="13124" NAME="?SetCollapseOrder@CMFCRibbonCategory@@QAEXABV?$CArray@HH@@@Z" PURGE="-1" COMMENT="" />
    <EXPORT ORDINAL="13123" NAME="?SetCmdImage@CCommandManager@@QAEXIHH@Z" PURGE="-1" COMMENT="" />
    <EXPORT ORDINAL="13122" NAME="?SetClipboardFormatName@CMFCToolBarButton@@SGXPBD@Z" PURGE="-1" COMMENT="" />
    <EXPORT ORDINAL="13121" NAME="?SetClipboard@COleDataSource@@QAEXXZ" PURGE="-1" COMMENT="" />
    <EXPORT ORDINAL="13120" NAME="?SetClientSite@XOleObject@COleServerItem@@UAGJPAUIOleClientSite@@@Z" PURGE="-1" COMMENT="" />
    <EXPORT ORDINAL="13119" NAME="?SetClientSite@XOleObject@COleServerDoc@@UAGJPAUIOleClientSite@@@Z" PURGE="-1" COMMENT="" />
    <EXPORT ORDINAL="13118" NAME="?SetClientSite@XOleObject@COleControl@@UAGJPAUIOleClientSite@@@Z" PURGE="-1" COMMENT="" />
    <EXPORT ORDINAL="13117" NAME="?SetClientSite@XOleObject@CDocObjectServer@@UAGJPAUIOleClientSite@@@Z" PURGE="-1" COMMENT="" />
    <EXPORT ORDINAL="13116" NAME="?SetClientSite@CDataBoundProperty@@QAEXPAVCOleControlSite@@@Z" PURGE="-1" COMMENT="" />
    <EXPORT ORDINAL="13115" NAME="?SetClassID@CPropertySet@@QAEXU_GUID@@@Z" PURGE="-1" COMMENT="" />
    <EXPORT ORDINAL="13114" NAME="?SetChunkValue@CDocument@@UAEHPAUIFilterChunkValue@ATL@@@Z" PURGE="-1" COMMENT="" />
    <EXPORT ORDINAL="13113" NAME="?SetChunk@CMFCFilterChunkValueImpl@@IAEJABU_tagpropertykey@@W4tagCHUNKSTATE@@KKKW4tagCHUNK_BREAKTYPE@@@Z" PURGE="-1" COMMENT="" />
    <EXPORT ORDINAL="13111" NAME="?SetCheckedImage@CMFCButton@@QAEXPAUHICON__@@H00H@Z" PURGE="-1" COMMENT="" />
    <EXPORT ORDINAL="13110" NAME="?SetCheckedImage@CMFCButton@@QAEXPAUHBITMAP__@@H0H0@Z" PURGE="-1" COMMENT="" />
    <EXPORT ORDINAL="13109" NAME="?SetCheckedImage@CMFCButton@@QAEXIII@Z" PURGE="-1" COMMENT="" />
    <EXPORT ORDINAL="13112" NAME="?SetCheckStyle@CCheckListBox@@QAEXI@Z" PURGE="-1" COMMENT="" />
    <EXPORT ORDINAL="13108" NAME="?SetCheckButtonState@CFileDialog@@QAEJKH@Z" PURGE="-1" COMMENT="" />
    <EXPORT ORDINAL="13107" NAME="?SetCheck@CTreeCtrl@@QAEHPAU_TREEITEM@@H@Z" PURGE="-1" COMMENT="" />
    <EXPORT ORDINAL="13106" NAME="?SetCheck@CToolCmdUI@@UAEXH@Z" PURGE="-1" COMMENT="" />
    <EXPORT ORDINAL="13105" NAME="?SetCheck@CTestCmdUI@@UAEXH@Z" PURGE="-1" COMMENT="" />
    <EXPORT ORDINAL="13104" NAME="?SetCheck@CStatusCmdUI@@UAEXH@Z" PURGE="-1" COMMENT="" />
    <EXPORT ORDINAL="13103" NAME="?SetCheck@COleCmdUI@@UAEXH@Z" PURGE="-1" COMMENT="" />
    <EXPORT ORDINAL="13102" NAME="?SetCheck@CMFCToolBarCmdUI@@UAEXH@Z" PURGE="-1" COMMENT="" />
    <EXPORT ORDINAL="13101" NAME="?SetCheck@CMFCStatusBarCmdUI@@UAEXH@Z" PURGE="-1" COMMENT="" />
    <EXPORT ORDINAL="13100" NAME="?SetCheck@CMFCRibbonCmdUI@@UAEXH@Z" PURGE="-1" COMMENT="" />
    <EXPORT ORDINAL="13099" NAME="?SetCheck@CListCtrl@@QAEHHH@Z" PURGE="-1" COMMENT="" />
    <EXPORT ORDINAL="13098" NAME="?SetCheck@CCmdUI@@UAEXH@Z" PURGE="-1" COMMENT="" />
    <EXPORT ORDINAL="13097" NAME="?SetCheck@CCheckListBox@@QAEXHH@Z" PURGE="-1" COMMENT="" />
    <EXPORT ORDINAL="13096" NAME="?SetCharFormat@CRichEditView@@QAEXUCHARFORMAT2A@@@Z" PURGE="-1" COMMENT="" />
    <EXPORT ORDINAL="13095" NAME="?SetCenter@CD2DRadialGradientBrush@@QAEXVCD2DPointF@@@Z" PURGE="-1" COMMENT="" />
    <EXPORT ORDINAL="13094" NAME="?SetCapture@XOleIPSite@COleControlSite@@UAGJH@Z" PURGE="-1" COMMENT="" />
    <EXPORT ORDINAL="13093" NAME="?SetCapture@COleControl@@QAEPAVCWnd@@XZ" PURGE="-1" COMMENT="" />
    <EXPORT ORDINAL="13091" NAME="?SetCaptionButtonsToolTips@CPaneFrameWnd@@IAEXXZ" PURGE="-1" COMMENT="" />
    <EXPORT ORDINAL="13090" NAME="?SetCaptionButtons@CPaneFrameWnd@@UAEXK@Z" PURGE="-1" COMMENT="" />
    <EXPORT ORDINAL="13089" NAME="?SetCaptionButtons@CMFCTasksPaneFrameWnd@@UAEXK@Z" PURGE="-1" COMMENT="" />
    <EXPORT ORDINAL="13088" NAME="?SetCaptionButtons@CMFCTasksPane@@MAEXXZ" PURGE="-1" COMMENT="" />
    <EXPORT ORDINAL="13087" NAME="?SetCaptionButtons@CDockablePane@@MAEXXZ" PURGE="-1" COMMENT="" />
    <EXPORT ORDINAL="13086" NAME="?SetCaption@CMFCTasksPane@@QAEXPBD@Z" PURGE="-1" COMMENT="" />
    <EXPORT ORDINAL="13085" NAME="?SetCacheStart@CDaoRecordset@@QAEXVCOleVariant@@@Z" PURGE="-1" COMMENT="" />
    <EXPORT ORDINAL="13084" NAME="?SetCacheSize@CDaoRecordset@@QAEXJ@Z" PURGE="-1" COMMENT="" />
    <EXPORT ORDINAL="13077" NAME="?SetButtonsFont@CMFCOutlookBar@@QAEXPAVCFont@@H@Z" PURGE="-1" COMMENT="" />
    <EXPORT ORDINAL="13076" NAME="?SetButtons@CToolBar@@QAEHPBIH@Z" PURGE="-1" COMMENT="" />
    <EXPORT ORDINAL="13075" NAME="?SetButtons@CMFCToolBar@@UAEHPBIHH@Z" PURGE="-1" COMMENT="" />
    <EXPORT ORDINAL="13083" NAME="?SetButtonToolTip@CMFCCaptionBar@@QAEXPBD0@Z" PURGE="-1" COMMENT="" />
    <EXPORT ORDINAL="13082" NAME="?SetButtonText@CToolBar@@QAEHHPBD@Z" PURGE="-1" COMMENT="" />
    <EXPORT ORDINAL="13081" NAME="?SetButtonText@CMFCToolBar@@QAEHHPBD@Z" PURGE="-1" COMMENT="" />
    <EXPORT ORDINAL="13080" NAME="?SetButtonStyle@CToolBar@@QAEXHI@Z" PURGE="-1" COMMENT="" />
    <EXPORT ORDINAL="13079" NAME="?SetButtonStyle@CMFCToolBar@@UAEXHI@Z" PURGE="-1" COMMENT="" />
    <EXPORT ORDINAL="13078" NAME="?SetButtonStyle@CMFCPopupMenuBar@@UAEXHI@Z" PURGE="-1" COMMENT="" />
    <EXPORT ORDINAL="13074" NAME="?SetButtonPressed@CMFCCaptionBar@@QAEXH@Z" PURGE="-1" COMMENT="" />
    <EXPORT ORDINAL="13073" NAME="?SetButtonInfo@CToolBar@@QAEXHIIH@Z" PURGE="-1" COMMENT="" />
    <EXPORT ORDINAL="13072" NAME="?SetButtonInfo@CMFCToolBar@@QAEXHIIH@Z" PURGE="-1" COMMENT="" />
    <EXPORT ORDINAL="13071" NAME="?SetButton@CMFCCaptionBar@@QAEXPBDIW4BarElementAlignment@1@H@Z" PURGE="-1" COMMENT="" />
    <EXPORT ORDINAL="13070" NAME="?SetBuffer@CTagManager@@QAEXPBD@Z" PURGE="-1" COMMENT="" />
    <EXPORT ORDINAL="13069" NAME="?SetBrowseButtonImage@CMFCEditBrowseCtrl@@QAEXPAUHICON__@@H@Z" PURGE="-1" COMMENT="" />
    <EXPORT ORDINAL="13068" NAME="?SetBrowseButtonImage@CMFCEditBrowseCtrl@@QAEXPAUHBITMAP__@@H@Z" PURGE="-1" COMMENT="" />
    <EXPORT ORDINAL="13067" NAME="?SetBrowseButtonImage@CMFCEditBrowseCtrl@@QAEXI@Z" PURGE="-1" COMMENT="" />
    <EXPORT ORDINAL="13062" NAME="?SetBorders@CPane@@QAEXPBUtagRECT@@@Z" PURGE="-1" COMMENT="" />
    <EXPORT ORDINAL="13061" NAME="?SetBorders@CPane@@QAEXHHHH@Z" PURGE="-1" COMMENT="" />
    <EXPORT ORDINAL="13060" NAME="?SetBorders@CControlBar@@QAEXHHHH@Z" PURGE="-1" COMMENT="" />
    <EXPORT ORDINAL="13066" NAME="?SetBorderStyle@COleControl@@QAEXF@Z" PURGE="-1" COMMENT="" />
    <EXPORT ORDINAL="13064" NAME="?SetBorderSpace@XOleInPlaceFrame@COleFrameHook@@UAGJPBUtagRECT@@@Z" PURGE="-1" COMMENT="" />
    <EXPORT ORDINAL="13065" NAME="?SetBorderSpace@XOleIPFrame@COleControlContainer@@UAGJPBUtagRECT@@@Z" PURGE="-1" COMMENT="" />
    <EXPORT ORDINAL="13063" NAME="?SetBorderSize@CMFCOutlookBarTabCtrl@@QAEXH@Z" PURGE="-1" COMMENT="" />
    <EXPORT ORDINAL="13059" NAME="?SetBoolValue@CMFCFilterChunkValueImpl@@UAEJABU_tagpropertykey@@HW4tagCHUNKSTATE@@KKKW4tagCHUNK_BREAKTYPE@@@Z" PURGE="-1" COMMENT="" />
    <EXPORT ORDINAL="13058" NAME="?SetBoolValue@CMFCFilterChunkValueImpl@@UAEJABU_tagpropertykey@@FW4tagCHUNKSTATE@@KKKW4tagCHUNK_BREAKTYPE@@@Z" PURGE="-1" COMMENT="" />
    <EXPORT ORDINAL="13057" NAME="?SetBoolLabels@CMFCPropertyGridCtrl@@QAEXPBD0@Z" PURGE="-1" COMMENT="" />
    <EXPORT ORDINAL="13056" NAME="?SetBookmark@CRecordset@@QAEXABVCDBVariant@@@Z" PURGE="-1" COMMENT="" />
    <EXPORT ORDINAL="13055" NAME="?SetBookmark@CDaoRecordset@@QAEXVCOleVariant@@@Z" PURGE="-1" COMMENT="" />
    <EXPORT ORDINAL="13054" NAME="?SetBkMode@CDC@@QAEHH@Z" PURGE="-1" COMMENT="" />
    <EXPORT ORDINAL="13053" NAME="?SetBkImage@CListCtrl@@QAEHPAUHBITMAP__@@HHH@Z" PURGE="-1" COMMENT="" />
    <EXPORT ORDINAL="13052" NAME="?SetBkImage@CListCtrl@@QAEHPADHHH@Z" PURGE="-1" COMMENT="" />
    <EXPORT ORDINAL="13051" NAME="?SetBkColor@CPreviewDC@@UAEKK@Z" PURGE="-1" COMMENT="" />
    <EXPORT ORDINAL="13050" NAME="?SetBkColor@CDC@@UAEKK@Z" PURGE="-1" COMMENT="" />
    <EXPORT ORDINAL="13049" NAME="?SetBitmap@CToolBar@@QAEHPAUHBITMAP__@@@Z" PURGE="-1" COMMENT="" />
    <EXPORT ORDINAL="13048" NAME="?SetBitmap@CMFCImagePaintArea@@QAEXPAVCBitmap@@@Z" PURGE="-1" COMMENT="" />
    <EXPORT ORDINAL="13047" NAME="?SetBitmap@CMFCCaptionBar@@QAEXPAUHBITMAP__@@KHW4BarElementAlignment@1@@Z" PURGE="-1" COMMENT="" />
    <EXPORT ORDINAL="13046" NAME="?SetBitmap@CMFCCaptionBar@@QAEXIKHW4BarElementAlignment@1@@Z" PURGE="-1" COMMENT="" />
    <EXPORT ORDINAL="13045" NAME="?SetBitmap@CD2DBitmapBrush@@QAEXPAVCD2DBitmap@@@Z" PURGE="-1" COMMENT="" />
    <EXPORT ORDINAL="13044" NAME="?SetBasicCommands@CMFCToolBar@@SGXAAV?$CList@II@@@Z" PURGE="-1" COMMENT="" />
    <EXPORT ORDINAL="13043" NAME="?SetBarStyle@CControlBar@@QAEXK@Z" PURGE="-1" COMMENT="" />
    <EXPORT ORDINAL="13042" NAME="?SetBarInfo@CDockBar@@QAEXPAVCControlBarInfo@@PAVCFrameWnd@@@Z" PURGE="-1" COMMENT="" />
    <EXPORT ORDINAL="13041" NAME="?SetBarInfo@CControlBar@@QAEXPAVCControlBarInfo@@PAVCFrameWnd@@@Z" PURGE="-1" COMMENT="" />
    <EXPORT ORDINAL="13039" NAME="?SetBackgroundImage@CDialogEx@@QAEXPAUHBITMAP__@@W4BackgroundLocation@1@HH@Z" PURGE="-1" COMMENT="" />
    <EXPORT ORDINAL="13038" NAME="?SetBackgroundImage@CDialogEx@@QAEHIW4BackgroundLocation@1@H@Z" PURGE="-1" COMMENT="" />
    <EXPORT ORDINAL="13037" NAME="?SetBackgroundColor@XPreviewHandlerVisuals@CDocument@@UAGJK@Z" PURGE="-1" COMMENT="" />
    <EXPORT ORDINAL="13036" NAME="?SetBackgroundColor@CDialogEx@@QAEXKH@Z" PURGE="-1" COMMENT="" />
    <EXPORT ORDINAL="13040" NAME="?SetBackImage@CMFCOutlookBarPane@@QAEXI@Z" PURGE="-1" COMMENT="" />
    <EXPORT ORDINAL="13035" NAME="?SetBackColor@COleControl@@QAEXK@Z" PURGE="-1" COMMENT="" />
    <EXPORT ORDINAL="13034" NAME="?SetBackColor@CMFCOutlookBarPane@@QAEXK@Z" PURGE="-1" COMMENT="" />
    <EXPORT ORDINAL="13033" NAME="?SetAutosaveInterval@CDataRecoveryHandler@@UAEXH@Z" PURGE="-1" COMMENT="" />
    <EXPORT ORDINAL="13032" NAME="?SetAutorepeatMode@CMFCButton@@QAEXH@Z" PURGE="-1" COMMENT="" />
    <EXPORT ORDINAL="13031" NAME="?SetAutohideZOrder@CDockingManager@@QAEXPAVCDockablePane@@@Z" PURGE="-1" COMMENT="" />
    <EXPORT ORDINAL="13027" NAME="?SetAutodestroyTransitions@CAnimationGroup@@QAEXH@Z" PURGE="-1" COMMENT="" />
    <EXPORT ORDINAL="13030" NAME="?SetAutoHideParents@CDockablePane@@QAEXPAVCMFCAutoHideBar@@PAVCMFCAutoHideButton@@@Z" PURGE="-1" COMMENT="" />
    <EXPORT ORDINAL="13029" NAME="?SetAutoHideMode@CDockablePane@@UAEPAVCMFCAutoHideBar@@HKPAV2@H@Z" PURGE="-1" COMMENT="" />
    <EXPORT ORDINAL="13028" NAME="?SetAutoHideMode@CBaseTabbedPane@@UAEPAVCMFCAutoHideBar@@HKPAV2@H@Z" PURGE="-1" COMMENT="" />
    <EXPORT ORDINAL="13026" NAME="?SetAutoColors@CMFCBaseTabCtrl@@QAEXABV?$CArray@KK@@@Z" PURGE="-1" COMMENT="" />
    <EXPORT ORDINAL="13025" NAME="?SetAttributes@CDaoTableDef@@QAEXJ@Z" PURGE="-1" COMMENT="" />
    <EXPORT ORDINAL="13024" NAME="?SetAttribDC@CPreviewDC@@UAEXPAUHDC__@@@Z" PURGE="-1" COMMENT="" />
    <EXPORT ORDINAL="13023" NAME="?SetAttribDC@CMetaFileDC@@UAEXPAUHDC__@@@Z" PURGE="-1" COMMENT="" />
    <EXPORT ORDINAL="13022" NAME="?SetAttribDC@CDC@@UAEXPAUHDC__@@@Z" PURGE="-1" COMMENT="" />
    <EXPORT ORDINAL="13021" NAME="?SetAtGrow@CWordArray@@QAEXHG@Z" PURGE="-1" COMMENT="" />
    <EXPORT ORDINAL="13020" NAME="?SetAtGrow@CUIntArray@@QAEXHI@Z" PURGE="-1" COMMENT="" />
    <EXPORT ORDINAL="13019" NAME="?SetAtGrow@CStringArray@@QAEXHPBD@Z" PURGE="-1" COMMENT="" />
    <EXPORT ORDINAL="13018" NAME="?SetAtGrow@CStringArray@@QAEXHABV?$CStringT@DV?$StrTraitMFC_DLL@DV?$ChTraitsCRT@D@ATL@@@@@ATL@@@Z" PURGE="-1" COMMENT="" />
    <EXPORT ORDINAL="13017" NAME="?SetAtGrow@CPtrArray@@QAEXHPAX@Z" PURGE="-1" COMMENT="" />
    <EXPORT ORDINAL="13016" NAME="?SetAtGrow@CObArray@@QAEXHPAVCObject@@@Z" PURGE="-1" COMMENT="" />
    <EXPORT ORDINAL="13015" NAME="?SetAtGrow@CDWordArray@@QAEXHK@Z" PURGE="-1" COMMENT="" />
    <EXPORT ORDINAL="13014" NAME="?SetAtGrow@CByteArray@@QAEXHE@Z" PURGE="-1" COMMENT="" />
    <EXPORT ORDINAL="13012" NAME="?SetAt@?$CSimpleStringT@_W$00@ATL@@QAEXH_W@Z" PURGE="-1" COMMENT="" />
    <EXPORT ORDINAL="13013" NAME="?SetAt@?$CSimpleStringT@D$00@ATL@@QAEXHD@Z" PURGE="-1" COMMENT="" />
    <EXPORT ORDINAL="13011" NAME="?SetArcDirection@CDC@@QAEHH@Z" PURGE="-1" COMMENT="" />
    <EXPORT ORDINAL="13010" NAME="?SetApplicationButton@CMFCRibbonBar@@QAEXPAVCMFCRibbonApplicationButton@@VCSize@@@Z" PURGE="-1" COMMENT="" />
    <EXPORT ORDINAL="13007" NAME="?SetAppearance@COleControl@@QAEXF@Z" PURGE="-1" COMMENT="" />
    <EXPORT ORDINAL="13009" NAME="?SetAppID@CWinApp@@IAEXPBD@Z" PURGE="-1" COMMENT="" />
    <EXPORT ORDINAL="13008" NAME="?SetAppID@CAppDestinations@@QAEXPBD@Z" PURGE="-1" COMMENT="" />
    <EXPORT ORDINAL="13006" NAME="?SetAntialiasMode@CRenderTarget@@QAEXW4D2D1_ANTIALIAS_MODE@@@Z" PURGE="-1" COMMENT="" />
    <EXPORT ORDINAL="13005" NAME="?SetAnimationSpeed@CMFCPopupMenu@@SGXI@Z" PURGE="-1" COMMENT="" />
    <EXPORT ORDINAL="13004" NAME="?SetAnimationSpeed@CMFCDesktopAlertWnd@@QAEXI@Z" PURGE="-1" COMMENT="" />
    <EXPORT ORDINAL="13003" NAME="?SetAnimationList@CMFCRibbonStatusBarPane@@QAEXPAUHBITMAP__@@HK@Z" PURGE="-1" COMMENT="" />
    <EXPORT ORDINAL="13002" NAME="?SetAnimationList@CMFCRibbonStatusBarPane@@QAEHIHK@Z" PURGE="-1" COMMENT="" />
    <EXPORT ORDINAL="13001" NAME="?SetAlphabeticMode@CMFCPropertyGridCtrl@@QAEXH@Z" PURGE="-1" COMMENT="" />
    <EXPORT ORDINAL="13000" NAME="?SetAllCategory@CMFCToolBarsKeyboardPropertyPage@@QAEXPBD@Z" PURGE="-1" COMMENT="" />
    <EXPORT ORDINAL="12999" NAME="?SetAllCategory@CMFCToolBarsCommandsPropertyPage@@QAEXPBD@Z" PURGE="-1" COMMENT="" />
    <EXPORT ORDINAL="12998" NAME="?SetAdvise@XViewObject@COleControl@@UAGJKKPAUIAdviseSink@@@Z" PURGE="-1" COMMENT="" />
    <EXPORT ORDINAL="12997" NAME="?SetActiveView@CTabView@@QAEHH@Z" PURGE="-1" COMMENT="" />
    <EXPORT ORDINAL="12996" NAME="?SetActiveView@CFrameWnd@@QAEXPAVCView@@H@Z" PURGE="-1" COMMENT="" />
    <EXPORT ORDINAL="12995" NAME="?SetActiveTabTextColor@CMFCBaseTabCtrl@@UAEXK@Z" PURGE="-1" COMMENT="" />
    <EXPORT ORDINAL="12994" NAME="?SetActiveTabColor@CMFCBaseTabCtrl@@UAEXK@Z" PURGE="-1" COMMENT="" />
    <EXPORT ORDINAL="12993" NAME="?SetActiveTabBoldFont@CMFCTabCtrl@@QAEXH@Z" PURGE="-1" COMMENT="" />
    <EXPORT ORDINAL="12992" NAME="?SetActiveTab@CMFCTabCtrl@@UAEHH@Z" PURGE="-1" COMMENT="" />
    <EXPORT ORDINAL="12991" NAME="?SetActiveTab@CMFCPropertySheetTabCtrl@@EAEHH@Z" PURGE="-1" COMMENT="" />
    <EXPORT ORDINAL="12990" NAME="?SetActiveTab@CMFCOutlookBarTabCtrl@@UAEHH@Z" PURGE="-1" COMMENT="" />
    <EXPORT ORDINAL="12989" NAME="?SetActiveTab@CMDIClientAreaWnd@@QAEXPAUHWND__@@@Z" PURGE="-1" COMMENT="" />
    <EXPORT ORDINAL="12988" NAME="?SetActivePreviewView@CFrameWnd@@QAEXPAVCView@@@Z" PURGE="-1" COMMENT="" />
    <EXPORT ORDINAL="12987" NAME="?SetActivePane@CSplitterWnd@@UAEXHHPAVCWnd@@@Z" PURGE="-1" COMMENT="" />
    <EXPORT ORDINAL="12986" NAME="?SetActivePage@CPropertySheet@@QAEHPAVCPropertyPage@@@Z" PURGE="-1" COMMENT="" />
    <EXPORT ORDINAL="12985" NAME="?SetActivePage@CPropertySheet@@QAEHH@Z" PURGE="-1" COMMENT="" />
    <EXPORT ORDINAL="12984" NAME="?SetActivePage@CMFCTasksPane@@QAEXH@Z" PURGE="-1" COMMENT="" />
    <EXPORT ORDINAL="12982" NAME="?SetActiveObject@XOleInPlaceFrame@COleFrameHook@@UAGJPAUIOleInPlaceActiveObject@@PB_W@Z" PURGE="-1" COMMENT="" />
    <EXPORT ORDINAL="12983" NAME="?SetActiveObject@XOleIPFrame@COleControlContainer@@UAGJPAUIOleInPlaceActiveObject@@PB_W@Z" PURGE="-1" COMMENT="" />
    <EXPORT ORDINAL="12981" NAME="?SetActiveMenu@CMFCPropertyPage@@IAEXPAVCMFCPopupMenu@@@Z" PURGE="-1" COMMENT="" />
    <EXPORT ORDINAL="12980" NAME="?SetActiveMenu@CDialogImpl@@IAEXPAVCMFCPopupMenu@@@Z" PURGE="-1" COMMENT="" />
    <EXPORT ORDINAL="12979" NAME="?SetActiveMenu@CDialogEx@@IAEXPAVCMFCPopupMenu@@@Z" PURGE="-1" COMMENT="" />
    <EXPORT ORDINAL="12978" NAME="?SetActiveMDIChild@CMFCRibbonBar@@QAEXPAVCWnd@@@Z" PURGE="-1" COMMENT="" />
    <EXPORT ORDINAL="12977" NAME="?SetActiveInGroup@CPane@@UAEXH@Z" PURGE="-1" COMMENT="" />
    <EXPORT ORDINAL="12976" NAME="?SetActiveInGroup@CMFCAutoHideBar@@UAEXH@Z" PURGE="-1" COMMENT="" />
    <EXPORT ORDINAL="12975" NAME="?SetActiveCategory@CMFCRibbonBar@@UAEHPAVCMFCRibbonCategory@@H@Z" PURGE="-1" COMMENT="" />
    <EXPORT ORDINAL="12974" NAME="?SetActive@CMFCRibbonPanelMenuBar@@QAEXH@Z" PURGE="-1" COMMENT="" />
    <EXPORT ORDINAL="12973" NAME="?SetActive@CMFCRibbonCategory@@IAEXH@Z" PURGE="-1" COMMENT="" />
    <EXPORT ORDINAL="12972" NAME="?SetAccelTable@CKeyboardManager@@KGXAAPAUtagACCEL@@AAPAUHACCEL__@@AAHQAU3@@Z" PURGE="-1" COMMENT="" />
    <EXPORT ORDINAL="12971" NAME="?SetAccelFlag@CMFCAcceleratorKeyAssignCtrl@@IAEXEH@Z" PURGE="-1" COMMENT="" />
    <EXPORT ORDINAL="12954" NAME="?SetAbsolutePosition@CDaoRecordset@@QAEXJ@Z" PURGE="-1" COMMENT="" />
    <EXPORT ORDINAL="12970" NAME="?SetACCData@CMFCToolBarSpinEditBoxButton@@UAEHPAVCWnd@@AAVCAccessibilityData@@@Z" PURGE="-1" COMMENT="" />
    <EXPORT ORDINAL="12969" NAME="?SetACCData@CMFCToolBarMenuButton@@UAEHPAVCWnd@@AAVCAccessibilityData@@@Z" PURGE="-1" COMMENT="" />
    <EXPORT ORDINAL="12968" NAME="?SetACCData@CMFCToolBarEditBoxButton@@UAEHPAVCWnd@@AAVCAccessibilityData@@@Z" PURGE="-1" COMMENT="" />
    <EXPORT ORDINAL="12967" NAME="?SetACCData@CMFCToolBarComboBoxButton@@UAEHPAVCWnd@@AAVCAccessibilityData@@@Z" PURGE="-1" COMMENT="" />
    <EXPORT ORDINAL="12966" NAME="?SetACCData@CMFCToolBarButton@@UAEHPAVCWnd@@AAVCAccessibilityData@@@Z" PURGE="-1" COMMENT="" />
    <EXPORT ORDINAL="12965" NAME="?SetACCData@CMFCTasksPaneTaskGroup@@UAEHPAVCWnd@@AAVCAccessibilityData@@@Z" PURGE="-1" COMMENT="" />
    <EXPORT ORDINAL="12964" NAME="?SetACCData@CMFCTasksPaneTask@@UAEHPAVCWnd@@AAVCAccessibilityData@@@Z" PURGE="-1" COMMENT="" />
    <EXPORT ORDINAL="12963" NAME="?SetACCData@CMFCTasksPanePropertyPage@@UAEHPAVCWnd@@AAVCAccessibilityData@@@Z" PURGE="-1" COMMENT="" />
    <EXPORT ORDINAL="12962" NAME="?SetACCData@CMFCRibbonTab@@UAEHPAVCWnd@@AAVCAccessibilityData@@@Z" PURGE="-1" COMMENT="" />
    <EXPORT ORDINAL="14456" NAME="?SetACCData@CMFCRibbonLaunchButton@@UAEHPAVCWnd@@AAVCAccessibilityData@@@Z" PURGE="-1" COMMENT="" />
    <EXPORT ORDINAL="12961" NAME="?SetACCData@CMFCRibbonLabel@@UAEHPAVCWnd@@AAVCAccessibilityData@@@Z" PURGE="-1" COMMENT="" />
    <EXPORT ORDINAL="12960" NAME="?SetACCData@CMFCRibbonGalleryIcon@@UAEHPAVCWnd@@AAVCAccessibilityData@@@Z" PURGE="-1" COMMENT="" />
    <EXPORT ORDINAL="12959" NAME="?SetACCData@CMFCRibbonEdit@@UAEHPAVCWnd@@AAVCAccessibilityData@@@Z" PURGE="-1" COMMENT="" />
    <EXPORT ORDINAL="12958" NAME="?SetACCData@CMFCRibbonDefaultPanelButton@@UAEHPAVCWnd@@AAVCAccessibilityData@@@Z" PURGE="-1" COMMENT="" />
    <EXPORT ORDINAL="12957" NAME="?SetACCData@CMFCRibbonColorButton@@UAEHPAVCWnd@@AAVCAccessibilityData@@@Z" PURGE="-1" COMMENT="" />
    <EXPORT ORDINAL="12956" NAME="?SetACCData@CMFCRibbonButton@@UAEHPAVCWnd@@AAVCAccessibilityData@@@Z" PURGE="-1" COMMENT="" />
    <EXPORT ORDINAL="12955" NAME="?SetACCData@CMFCRibbonBaseElement@@UAEHPAVCWnd@@AAVCAccessibilityData@@@Z" PURGE="-1" COMMENT="" />
    <EXPORT ORDINAL="12953" NAME="?Set@CPropertySet@@QAEHU_GUID@@KPAXK@Z" PURGE="-1" COMMENT="" />
    <EXPORT ORDINAL="12952" NAME="?Set@CPropertySet@@QAEHU_GUID@@KPAX@Z" PURGE="-1" COMMENT="" />
    <EXPORT ORDINAL="12951" NAME="?Set@CPropertySection@@QAEHKPAXK@Z" PURGE="-1" COMMENT="" />
    <EXPORT ORDINAL="12950" NAME="?Set@CPropertySection@@QAEHKPAX@Z" PURGE="-1" COMMENT="" />
    <EXPORT ORDINAL="12949" NAME="?Set@CProperty@@QAEHQAXK@Z" PURGE="-1" COMMENT="" />
    <EXPORT ORDINAL="12948" NAME="?Set@CProperty@@QAEHQAX@Z" PURGE="-1" COMMENT="" />
    <EXPORT ORDINAL="12947" NAME="?Set@CProperty@@QAEHKQAXK@Z" PURGE="-1" COMMENT="" />
    <EXPORT ORDINAL="12946" NAME="?SerializeVersion@COleControl@@QAEKAAVCArchive@@KH@Z" PURGE="-1" COMMENT="" />
    <EXPORT ORDINAL="12945" NAME="?SerializeTabWindow@CBaseTabbedPane@@UAEXAAVCArchive@@@Z" PURGE="-1" COMMENT="" />
    <EXPORT ORDINAL="12944" NAME="?SerializeTabGroup@CMDIClientAreaWnd@@AAEXAAVCArchive@@PAVCMFCTabCtrl@@H@Z" PURGE="-1" COMMENT="" />
    <EXPORT ORDINAL="12943" NAME="?SerializeStockProps@COleControl@@QAEXAAVCArchive@@@Z" PURGE="-1" COMMENT="" />
    <EXPORT ORDINAL="12942" NAME="?SerializeRaw@CEditView@@QAEXAAVCArchive@@@Z" PURGE="-1" COMMENT="" />
    <EXPORT ORDINAL="12941" NAME="?SerializeOpenChildren@CMDIClientAreaWnd@@AAEXAAVCArchive@@@Z" PURGE="-1" COMMENT="" />
    <EXPORT ORDINAL="12940" NAME="?SerializeExtent@COleControl@@QAEXAAVCArchive@@@Z" PURGE="-1" COMMENT="" />
    <EXPORT ORDINAL="12939" NAME="?SerializeClass@CArchive@@QAEXPBUCRuntimeClass@@@Z" PURGE="-1" COMMENT="" />
    <EXPORT ORDINAL="12936" NAME="?Serialize@CWordArray@@UAEXAAVCArchive@@@Z" PURGE="-1" COMMENT="" />
    <EXPORT ORDINAL="12935" NAME="?Serialize@CUserTool@@UAEXAAVCArchive@@@Z" PURGE="-1" COMMENT="" />
    <EXPORT ORDINAL="12934" NAME="?Serialize@CStringList@@UAEXAAVCArchive@@@Z" PURGE="-1" COMMENT="" />
    <EXPORT ORDINAL="12933" NAME="?Serialize@CStringArray@@UAEXAAVCArchive@@@Z" PURGE="-1" COMMENT="" />
    <EXPORT ORDINAL="12932" NAME="?Serialize@CRichEditView@@UAEXAAVCArchive@@@Z" PURGE="-1" COMMENT="" />
    <EXPORT ORDINAL="12931" NAME="?Serialize@CRichEditDoc@@UAEXAAVCArchive@@@Z" PURGE="-1" COMMENT="" />
    <EXPORT ORDINAL="12930" NAME="?Serialize@CPaneFrameWnd@@UAEXAAVCArchive@@@Z" PURGE="-1" COMMENT="" />
    <EXPORT ORDINAL="12929" NAME="?Serialize@CPaneDivider@@UAEXAAVCArchive@@@Z" PURGE="-1" COMMENT="" />
    <EXPORT ORDINAL="12928" NAME="?Serialize@CPaneContainerManager@@UAEXAAVCArchive@@@Z" PURGE="-1" COMMENT="" />
    <EXPORT ORDINAL="12927" NAME="?Serialize@CPaneContainer@@UAEXAAVCArchive@@@Z" PURGE="-1" COMMENT="" />
    <EXPORT ORDINAL="12926" NAME="?Serialize@COleServerDocEx@@UAEXAAVCArchive@@@Z" PURGE="-1" COMMENT="" />
    <EXPORT ORDINAL="12925" NAME="?Serialize@COleDocument@@UAEXAAVCArchive@@@Z" PURGE="-1" COMMENT="" />
    <EXPORT ORDINAL="12924" NAME="?Serialize@COleControl@@MAEXAAVCArchive@@@Z" PURGE="-1" COMMENT="" />
    <EXPORT ORDINAL="12923" NAME="?Serialize@COleClientItem@@UAEXAAVCArchive@@@Z" PURGE="-1" COMMENT="" />
    <EXPORT ORDINAL="12922" NAME="?Serialize@CObList@@UAEXAAVCArchive@@@Z" PURGE="-1" COMMENT="" />
    <EXPORT ORDINAL="12921" NAME="?Serialize@CObArray@@UAEXAAVCArchive@@@Z" PURGE="-1" COMMENT="" />
    <EXPORT ORDINAL="12920" NAME="?Serialize@CMultiPaneFrameWnd@@UAEXAAVCArchive@@@Z" PURGE="-1" COMMENT="" />
    <EXPORT ORDINAL="12919" NAME="?Serialize@CMouseManager@@MAEXAAVCArchive@@@Z" PURGE="-1" COMMENT="" />
    <EXPORT ORDINAL="12902" NAME="?Serialize@CMapWordToOb@@UAEXAAVCArchive@@@Z" PURGE="-1" COMMENT="" />
    <EXPORT ORDINAL="12901" NAME="?Serialize@CMapStringToString@@UAEXAAVCArchive@@@Z" PURGE="-1" COMMENT="" />
    <EXPORT ORDINAL="12900" NAME="?Serialize@CMapStringToOb@@UAEXAAVCArchive@@@Z" PURGE="-1" COMMENT="" />
    <EXPORT ORDINAL="12918" NAME="?Serialize@CMFCToolBarSpinEditBoxButton@@MAEXAAVCArchive@@@Z" PURGE="-1" COMMENT="" />
    <EXPORT ORDINAL="12917" NAME="?Serialize@CMFCToolBarMenuButton@@UAEXAAVCArchive@@@Z" PURGE="-1" COMMENT="" />
    <EXPORT ORDINAL="12916" NAME="?Serialize@CMFCToolBarFontComboBox@@MAEXAAVCArchive@@@Z" PURGE="-1" COMMENT="" />
    <EXPORT ORDINAL="12915" NAME="?Serialize@CMFCToolBarEditBoxButton@@UAEXAAVCArchive@@@Z" PURGE="-1" COMMENT="" />
    <EXPORT ORDINAL="12914" NAME="?Serialize@CMFCToolBarDateTimeCtrl@@UAEXAAVCArchive@@@Z" PURGE="-1" COMMENT="" />
    <EXPORT ORDINAL="12913" NAME="?Serialize@CMFCToolBarComboBoxButton@@UAEXAAVCArchive@@@Z" PURGE="-1" COMMENT="" />
    <EXPORT ORDINAL="12912" NAME="?Serialize@CMFCToolBarButton@@UAEXAAVCArchive@@@Z" PURGE="-1" COMMENT="" />
    <EXPORT ORDINAL="12911" NAME="?Serialize@CMFCToolBar@@UAEXAAVCArchive@@@Z" PURGE="-1" COMMENT="" />
    <EXPORT ORDINAL="12910" NAME="?Serialize@CMFCTasksPane@@UAEXAAVCArchive@@@Z" PURGE="-1" COMMENT="" />
    <EXPORT ORDINAL="12909" NAME="?Serialize@CMFCDropDownToolbarButton@@UAEXAAVCArchive@@@Z" PURGE="-1" COMMENT="" />
    <EXPORT ORDINAL="12908" NAME="?Serialize@CMFCColorMenuButton@@MAEXAAVCArchive@@@Z" PURGE="-1" COMMENT="" />
    <EXPORT ORDINAL="12907" NAME="?Serialize@CMFCColorBar@@MAEXAAVCArchive@@@Z" PURGE="-1" COMMENT="" />
    <EXPORT ORDINAL="12906" NAME="?Serialize@CMFCCmdUsageCount@@UAEXAAVCArchive@@@Z" PURGE="-1" COMMENT="" />
    <EXPORT ORDINAL="12905" NAME="?Serialize@CMFCBaseTabCtrl@@UAEXAAVCArchive@@@Z" PURGE="-1" COMMENT="" />
    <EXPORT ORDINAL="12904" NAME="?Serialize@CMDITabInfo@@QAEXAAVCArchive@@@Z" PURGE="-1" COMMENT="" />
    <EXPORT ORDINAL="12903" NAME="?Serialize@CMDIClientAreaWnd@@UAEXAAVCArchive@@@Z" PURGE="-1" COMMENT="" />
    <EXPORT ORDINAL="12899" NAME="?Serialize@CEditView@@UAEXAAVCArchive@@@Z" PURGE="-1" COMMENT="" />
    <EXPORT ORDINAL="12896" NAME="?Serialize@CDockingManager@@UAEXAAVCArchive@@@Z" PURGE="-1" COMMENT="" />
    <EXPORT ORDINAL="12895" NAME="?Serialize@CDockablePane@@UAEXAAVCArchive@@@Z" PURGE="-1" COMMENT="" />
    <EXPORT ORDINAL="12897" NAME="?Serialize@CDockState@@UAEXAAVCArchive@@@Z" PURGE="-1" COMMENT="" />
    <EXPORT ORDINAL="12894" NAME="?Serialize@CDocItem@@UAEXAAVCArchive@@@Z" PURGE="-1" COMMENT="" />
    <EXPORT ORDINAL="12898" NAME="?Serialize@CDWordArray@@UAEXAAVCArchive@@@Z" PURGE="-1" COMMENT="" />
    <EXPORT ORDINAL="12893" NAME="?Serialize@CControlBarInfo@@QAEXAAVCArchive@@PAVCDockState@@@Z" PURGE="-1" COMMENT="" />
    <EXPORT ORDINAL="12892" NAME="?Serialize@CByteArray@@UAEXAAVCArchive@@@Z" PURGE="-1" COMMENT="" />
    <EXPORT ORDINAL="12891" NAME="?Serialize@CBaseTabbedPane@@UAEXAAVCArchive@@@Z" PURGE="-1" COMMENT="" />
    <EXPORT ORDINAL="12890" NAME="?Serialize@CBasePane@@UAEXAAVCArchive@@@Z" PURGE="-1" COMMENT="" />
    <EXPORT ORDINAL="12889" NAME="?Serialize@AFX_AUTOHIDE_DOCKSITE_SAVE_INFO@@QAEXAAVCArchive@@@Z" PURGE="-1" COMMENT="" />
    <EXPORT ORDINAL="12938" NAME="?Serialize64@CTimeSpan@ATL@@QAEAAVCArchive@@AAV3@@Z" PURGE="-1" COMMENT="" />
    <EXPORT ORDINAL="12937" NAME="?Serialize64@CTime@ATL@@QAEAAVCArchive@@AAV3@@Z" PURGE="-1" COMMENT="" />
    <EXPORT ORDINAL="12888" NAME="?SendToHelper@CSocket@@MAEHPBXHPBUsockaddr@@HH@Z" PURGE="-1" COMMENT="" />
    <EXPORT ORDINAL="12887" NAME="?SendToHelper@CAsyncSocket@@MAEHPBXHPBUsockaddr@@HH@Z" PURGE="-1" COMMENT="" />
    <EXPORT ORDINAL="12886" NAME="?SendTo@CAsyncSocket@@QAEHPBXHIPBDH@Z" PURGE="-1" COMMENT="" />
    <EXPORT ORDINAL="12885" NAME="?SendRequestEx@CHttpFile@@QAEHPAU_INTERNET_BUFFERSA@@0KK@Z" PURGE="-1" COMMENT="" />
    <EXPORT ORDINAL="12884" NAME="?SendRequestEx@CHttpFile@@QAEHKKK@Z" PURGE="-1" COMMENT="" />
    <EXPORT ORDINAL="12883" NAME="?SendRequest@CHttpFile@@QAEHPBDKPAXK@Z" PURGE="-1" COMMENT="" />
    <EXPORT ORDINAL="12882" NAME="?SendRequest@CHttpFile@@QAEHAAV?$CStringT@DV?$StrTraitMFC_DLL@DV?$ChTraitsCRT@D@ATL@@@@@ATL@@PAXK@Z" PURGE="-1" COMMENT="" />
    <EXPORT ORDINAL="12881" NAME="?SendMnemonic@COleControlSite@@QAEXPAUtagMSG@@@Z" PURGE="-1" COMMENT="" />
    <EXPORT ORDINAL="12880" NAME="?SendMessageToMiniFrames@CDockingManager@@QAEHIIJ@Z" PURGE="-1" COMMENT="" />
    <EXPORT ORDINAL="12879" NAME="?SendMessageToDescendants@CWnd@@SGXPAUHWND__@@IIJHH@Z" PURGE="-1" COMMENT="" />
    <EXPORT ORDINAL="12878" NAME="?SendLongBinaryData@CRecordset@@IAEXPAX@Z" PURGE="-1" COMMENT="" />
    <EXPORT ORDINAL="12877" NAME="?SendInitialUpdate@CDocument@@QAEXXZ" PURGE="-1" COMMENT="" />
    <EXPORT ORDINAL="12876" NAME="?SendDlgItemMessageA@CWnd@@QAEJHIIJ@Z" PURGE="-1" COMMENT="" />
    <EXPORT ORDINAL="12875" NAME="?SendDlgItemMessageA@COleControlContainer@@UAEJHIIJ@Z" PURGE="-1" COMMENT="" />
    <EXPORT ORDINAL="12874" NAME="?SendChunk@CSocket@@QAEHPBXHH@Z" PURGE="-1" COMMENT="" />
    <EXPORT ORDINAL="12873" NAME="?SendChildNotifyLastMsg@CWnd@@QAEHPAJ@Z" PURGE="-1" COMMENT="" />
    <EXPORT ORDINAL="12872" NAME="?SendAdvise@COleControl@@IAEXI@Z" PURGE="-1" COMMENT="" />
    <EXPORT ORDINAL="12871" NAME="?Send@CSocket@@UAEHPBXHH@Z" PURGE="-1" COMMENT="" />
    <EXPORT ORDINAL="12870" NAME="?Send@CAsyncSocket@@UAEHPBXHH@Z" PURGE="-1" COMMENT="" />
    <EXPORT ORDINAL="12844" NAME="?SelectionChange@CPrintDialogEx@@UAGJXZ" PURGE="-1" COMMENT="" />
    <EXPORT ORDINAL="12829" NAME="?Select_FindString@CDHtmlDialog@@IAEJPAUIHTMLSelectElement@@PA_WH@Z" PURGE="-1" COMMENT="" />
    <EXPORT ORDINAL="12869" NAME="?SelectStockObject@CPreviewDC@@UAEPAVCGdiObject@@H@Z" PURGE="-1" COMMENT="" />
    <EXPORT ORDINAL="12868" NAME="?SelectStockObject@CDC@@UAEPAVCGdiObject@@H@Z" PURGE="-1" COMMENT="" />
    <EXPORT ORDINAL="12867" NAME="?SelectStockFont@COleControl@@QAEPAVCFont@@PAVCDC@@@Z" PURGE="-1" COMMENT="" />
    <EXPORT ORDINAL="12866" NAME="?SelectPrinter@CWinApp@@QAEXPAX0H@Z" PURGE="-1" COMMENT="" />
    <EXPORT ORDINAL="12865" NAME="?SelectPath@CMFCShellTreeCtrl@@QAEHPBU_ITEMIDLIST@@H@Z" PURGE="-1" COMMENT="" />
    <EXPORT ORDINAL="12864" NAME="?SelectPath@CMFCShellTreeCtrl@@QAEHPBDH@Z" PURGE="-1" COMMENT="" />
    <EXPORT ORDINAL="12863" NAME="?SelectPalette@CMFCColorBar@@IAEPAVCPalette@@PAVCDC@@@Z" PURGE="-1" COMMENT="" />
    <EXPORT ORDINAL="12862" NAME="?SelectPalette@CDC@@QAEPAVCPalette@@PAV2@H@Z" PURGE="-1" COMMENT="" />
    <EXPORT ORDINAL="12861" NAME="?SelectObject@CPreviewDC@@UAEPAVCFont@@PAV2@@Z" PURGE="-1" COMMENT="" />
    <EXPORT ORDINAL="12860" NAME="?SelectObject@CDC@@UAEPAVCFont@@PAV2@@Z" PURGE="-1" COMMENT="" />
    <EXPORT ORDINAL="12859" NAME="?SelectObject@CDC@@QAEPAVCPen@@PAV2@@Z" PURGE="-1" COMMENT="" />
    <EXPORT ORDINAL="12858" NAME="?SelectObject@CDC@@QAEPAVCBrush@@PAV2@@Z" PURGE="-1" COMMENT="" />
    <EXPORT ORDINAL="12857" NAME="?SelectObject@CDC@@QAEHPAVCRgn@@@Z" PURGE="-1" COMMENT="" />
    <EXPORT ORDINAL="12856" NAME="?SelectMenu@CMFCToolBarsMenuPropertyPage@@QAEHPAVCDocTemplate@@H@Z" PURGE="-1" COMMENT="" />
    <EXPORT ORDINAL="12855" NAME="?SelectItemAll@CMFCToolBarComboBoxButton@@SGHIPBD@Z" PURGE="-1" COMMENT="" />
    <EXPORT ORDINAL="12854" NAME="?SelectItemAll@CMFCToolBarComboBoxButton@@SGHIK@Z" PURGE="-1" COMMENT="" />
    <EXPORT ORDINAL="12853" NAME="?SelectItemAll@CMFCToolBarComboBoxButton@@SGHIH@Z" PURGE="-1" COMMENT="" />
    <EXPORT ORDINAL="12852" NAME="?SelectItem@CVSListBox@@UAEHH@Z" PURGE="-1" COMMENT="" />
    <EXPORT ORDINAL="12851" NAME="?SelectItem@CMFCToolBarComboBoxButton@@QAEHPBD@Z" PURGE="-1" COMMENT="" />
    <EXPORT ORDINAL="12850" NAME="?SelectItem@CMFCToolBarComboBoxButton@@QAEHK@Z" PURGE="-1" COMMENT="" />
    <EXPORT ORDINAL="12849" NAME="?SelectItem@CMFCToolBarComboBoxButton@@QAEHHH@Z" PURGE="-1" COMMENT="" />
    <EXPORT ORDINAL="12848" NAME="?SelectItem@CMFCRibbonGallery@@QAEXH@Z" PURGE="-1" COMMENT="" />
    <EXPORT ORDINAL="12847" NAME="?SelectItem@CMFCRibbonComboBox@@QAEHPBD@Z" PURGE="-1" COMMENT="" />
    <EXPORT ORDINAL="12846" NAME="?SelectItem@CMFCRibbonComboBox@@QAEHK@Z" PURGE="-1" COMMENT="" />
    <EXPORT ORDINAL="12845" NAME="?SelectItem@CMFCRibbonComboBox@@QAEHH@Z" PURGE="-1" COMMENT="" />
    <EXPORT ORDINAL="12843" NAME="?SelectGdiObject@CDC@@KGPAVCGdiObject@@PAUHDC__@@PAX@Z" PURGE="-1" COMMENT="" />
    <EXPORT ORDINAL="12842" NAME="?SelectFontObject@COleControl@@QAEPAVCFont@@PAVCDC@@AAVCFontHolder@@@Z" PURGE="-1" COMMENT="" />
    <EXPORT ORDINAL="12841" NAME="?SelectFont@CMFCHeaderCtrl@@IAEPAVCFont@@PAVCDC@@@Z" PURGE="-1" COMMENT="" />
    <EXPORT ORDINAL="12840" NAME="?SelectFont@CMFCFontComboBox@@QAEHPBDE@Z" PURGE="-1" COMMENT="" />
    <EXPORT ORDINAL="12839" NAME="?SelectFont@CMFCFontComboBox@@QAEHPAVCMFCFontInfo@@@Z" PURGE="-1" COMMENT="" />
    <EXPORT ORDINAL="12838" NAME="?SelectFont@CMFCButton@@MAEPAVCFont@@PAVCDC@@@Z" PURGE="-1" COMMENT="" />
    <EXPORT ORDINAL="12837" NAME="?SelectCommand@CMFCMousePropertyPage@@IAEHI@Z" PURGE="-1" COMMENT="" />
    <EXPORT ORDINAL="12836" NAME="?SelectClipRgn@CDC@@QAEHPAVCRgn@@H@Z" PURGE="-1" COMMENT="" />
    <EXPORT ORDINAL="12835" NAME="?SelectClipRgn@CDC@@QAEHPAVCRgn@@@Z" PURGE="-1" COMMENT="" />
    <EXPORT ORDINAL="12834" NAME="?SelectClipPath@CDC@@QAEHH@Z" PURGE="-1" COMMENT="" />
    <EXPORT ORDINAL="12833" NAME="?SelectCellHexagon@CMFCColorPickerCtrl@@QAEXEEE@Z" PURGE="-1" COMMENT="" />
    <EXPORT ORDINAL="12832" NAME="?SelectCellHexagon@CMFCColorPickerCtrl@@IAEHHH@Z" PURGE="-1" COMMENT="" />
    <EXPORT ORDINAL="12831" NAME="?SelectButton@CMFCToolBarButtonsListButton@@QAEHH@Z" PURGE="-1" COMMENT="" />
    <EXPORT ORDINAL="12830" NAME="?SelectButton@CMFCToolBarButtonsListButton@@IAEXPAVCMFCToolBarButton@@@Z" PURGE="-1" COMMENT="" />
    <EXPORT ORDINAL="12828" NAME="?Select@CFontHolder@@QAEPAVCFont@@PAVCDC@@JJ@Z" PURGE="-1" COMMENT="" />
    <EXPORT ORDINAL="12827" NAME="?SelActive@CMFCWindowsManagerDialog@@IAEXXZ" PURGE="-1" COMMENT="" />
    <EXPORT ORDINAL="12826" NAME="?Seek@CStdioFile@@UAE_K_JI@Z" PURGE="-1" COMMENT="" />
    <EXPORT ORDINAL="12825" NAME="?Seek@CSocketFile@@UAE_K_JI@Z" PURGE="-1" COMMENT="" />
    <EXPORT ORDINAL="12824" NAME="?Seek@COleStreamFile@@UAE_K_JI@Z" PURGE="-1" COMMENT="" />
    <EXPORT ORDINAL="12823" NAME="?Seek@CMemFile@@UAE_K_JI@Z" PURGE="-1" COMMENT="" />
    <EXPORT ORDINAL="12822" NAME="?Seek@CInternetFile@@UAE_K_JI@Z" PURGE="-1" COMMENT="" />
    <EXPORT ORDINAL="12821" NAME="?Seek@CFile@@UAE_K_JI@Z" PURGE="-1" COMMENT="" />
    <EXPORT ORDINAL="12820" NAME="?Seek@CDaoRecordset@@QAEHPBDPAVCOleVariant@@G@Z" PURGE="-1" COMMENT="" />
    <EXPORT ORDINAL="12819" NAME="?Seek@CDaoRecordset@@QAEHPBDPAVCOleVariant@@11@Z" PURGE="-1" COMMENT="" />
    <EXPORT ORDINAL="12818" NAME="?Seek@CArchiveStream@@UAGJT_LARGE_INTEGER@@KPAT_ULARGE_INTEGER@@@Z" PURGE="-1" COMMENT="" />
    <EXPORT ORDINAL="12817" NAME="?SearchCommandText@CMFCCustomizeMenuButton@@IAE?AV?$CStringT@DV?$StrTraitMFC_DLL@DV?$ChTraitsCRT@D@ATL@@@@@ATL@@PAVCMenu@@I@Z" PURGE="-1" COMMENT="" />
    <EXPORT ORDINAL="12816" NAME="?ScrollWindowEx@CWnd@@QAEHHHPBUtagRECT@@0PAVCRgn@@PAU2@I@Z" PURGE="-1" COMMENT="" />
    <EXPORT ORDINAL="12815" NAME="?ScrollWindow@CWnd@@QAEXHHPBUtagRECT@@0@Z" PURGE="-1" COMMENT="" />
    <EXPORT ORDINAL="12814" NAME="?ScrollWindow@COleControl@@QAEXHHPBUtagRECT@@0@Z" PURGE="-1" COMMENT="" />
    <EXPORT ORDINAL="12813" NAME="?ScrollUp@CMFCOutlookBarPane@@IAEXXZ" PURGE="-1" COMMENT="" />
    <EXPORT ORDINAL="12812" NAME="?ScrollToPosition@CScrollView@@QAEXUtagPOINT@@@Z" PURGE="-1" COMMENT="" />
    <EXPORT ORDINAL="12811" NAME="?ScrollToDevicePosition@CScrollView@@IAEXUtagPOINT@@@Z" PURGE="-1" COMMENT="" />
    <EXPORT ORDINAL="12810" NAME="?ScrollRect@XOleIPSite@COleControlSite@@UAGJHHPBUtagRECT@@0@Z" PURGE="-1" COMMENT="" />
    <EXPORT ORDINAL="12809" NAME="?ScrollPalette@CMFCRibbonPanel@@IAEXHH@Z" PURGE="-1" COMMENT="" />
    <EXPORT ORDINAL="12808" NAME="?ScrollPageUp@CMFCOutlookBarPane@@IAEXXZ" PURGE="-1" COMMENT="" />
    <EXPORT ORDINAL="12807" NAME="?ScrollPageDown@CMFCOutlookBarPane@@IAEXXZ" PURGE="-1" COMMENT="" />
    <EXPORT ORDINAL="12806" NAME="?ScrollDown@CMFCOutlookBarPane@@IAEXXZ" PURGE="-1" COMMENT="" />
    <EXPORT ORDINAL="12805" NAME="?ScrollContainerBy@COleServerDoc@@QAEHVCSize@@@Z" PURGE="-1" COMMENT="" />
    <EXPORT ORDINAL="12804" NAME="?ScrollChildren@COleControlContainer@@UAEXHH@Z" PURGE="-1" COMMENT="" />
    <EXPORT ORDINAL="12803" NAME="?Scroll@XOleIPSite@COleControlSite@@UAGJUtagSIZE@@@Z" PURGE="-1" COMMENT="" />
    <EXPORT ORDINAL="12802" NAME="?Scroll@XOleIPSite@COleClientItem@@UAGJUtagSIZE@@@Z" PURGE="-1" COMMENT="" />
    <EXPORT ORDINAL="12801" NAME="?ScreenToClient@CWnd@@QBEXPAUtagRECT@@@Z" PURGE="-1" COMMENT="" />
    <EXPORT ORDINAL="12800" NAME="?ScreenToClient@CDockingPanesRow@@QBEXAAVCRect@@@Z" PURGE="-1" COMMENT="" />
    <EXPORT ORDINAL="12799" NAME="?ScreenToBitmap@CMFCImagePaintArea@@IAEXAAVCPoint@@@Z" PURGE="-1" COMMENT="" />
    <EXPORT ORDINAL="12798" NAME="?ScheduleGroup@CAnimationController@@QAEHIN@Z" PURGE="-1" COMMENT="" />
    <EXPORT ORDINAL="12797" NAME="?Schedule@CAnimationGroup@@QAEHPAUIUIAnimationTimer@@N@Z" PURGE="-1" COMMENT="" />
    <EXPORT ORDINAL="12796" NAME="?ScaleWindowExt@CPreviewDC@@UAE?AVCSize@@HHHH@Z" PURGE="-1" COMMENT="" />
    <EXPORT ORDINAL="12795" NAME="?ScaleWindowExt@CDC@@UAE?AVCSize@@HHHH@Z" PURGE="-1" COMMENT="" />
    <EXPORT ORDINAL="12794" NAME="?ScaleViewportExt@CPreviewDC@@UAE?AVCSize@@HHHH@Z" PURGE="-1" COMMENT="" />
    <EXPORT ORDINAL="12793" NAME="?ScaleViewportExt@CMetaFileDC@@UAE?AVCSize@@HHHH@Z" PURGE="-1" COMMENT="" />
    <EXPORT ORDINAL="12792" NAME="?ScaleViewportExt@CDC@@UAE?AVCSize@@HHHH@Z" PURGE="-1" COMMENT="" />
    <EXPORT ORDINAL="12791" NAME="?ScaleRectPos@CDockState@@QAEXAAVCRect@@@Z" PURGE="-1" COMMENT="" />
    <EXPORT ORDINAL="12790" NAME="?ScalePoint@CDockState@@QAEXAAVCPoint@@@Z" PURGE="-1" COMMENT="" />
    <EXPORT ORDINAL="12789" NAME="?SaveViewState@XOleDocumentView@CDocObjectServer@@UAGJPAUIStream@@@Z" PURGE="-1" COMMENT="" />
    <EXPORT ORDINAL="12788" NAME="?SaveUserToolbars@CFrameImpl@@IAEXH@Z" PURGE="-1" COMMENT="" />
    <EXPORT ORDINAL="12787" NAME="?SaveToXMLFile@CMFCRibbonBar@@QBEHPBD@Z" PURGE="-1" COMMENT="" />
    <EXPORT ORDINAL="12786" NAME="?SaveToXMLBuffer@CMFCRibbonBar@@QBEIPAPAE@Z" PURGE="-1" COMMENT="" />
    <EXPORT ORDINAL="12785" NAME="?SaveToStorage@COleLinkingDoc@@MAEXPAVCObject@@@Z" PURGE="-1" COMMENT="" />
    <EXPORT ORDINAL="12784" NAME="?SaveToStorage@COleDocument@@MAEXPAVCObject@@@Z" PURGE="-1" COMMENT="" />
    <EXPORT ORDINAL="12783" NAME="?SaveTearOffMenus@CFrameImpl@@IAEXH@Z" PURGE="-1" COMMENT="" />
    <EXPORT ORDINAL="12782" NAME="?SaveTabbedPane@CPaneContainer@@IAEXAAVCArchive@@PAVCDockablePane@@@Z" PURGE="-1" COMMENT="" />
    <EXPORT ORDINAL="12781" NAME="?SaveStdProfileSettings@CWinApp@@IAEXXZ" PURGE="-1" COMMENT="" />
    <EXPORT ORDINAL="12780" NAME="?SaveState@CWinAppEx@@UAEHPBDPAVCFrameImpl@@@Z" PURGE="-1" COMMENT="" />
    <EXPORT ORDINAL="12779" NAME="?SaveState@CWinAppEx@@QAEHPAVCOleIPFrameWndEx@@PBD@Z" PURGE="-1" COMMENT="" />
    <EXPORT ORDINAL="12778" NAME="?SaveState@CWinAppEx@@QAEHPAVCMDIFrameWndEx@@PBD@Z" PURGE="-1" COMMENT="" />
    <EXPORT ORDINAL="12777" NAME="?SaveState@CWinAppEx@@QAEHPAVCFrameWndEx@@PBD@Z" PURGE="-1" COMMENT="" />
    <EXPORT ORDINAL="12776" NAME="?SaveState@CUserToolsManager@@QAEHPBD@Z" PURGE="-1" COMMENT="" />
    <EXPORT ORDINAL="12775" NAME="?SaveState@CToolBarCtrl@@QAEXPAUHKEY__@@PBD1@Z" PURGE="-1" COMMENT="" />
    <EXPORT ORDINAL="12774" NAME="?SaveState@CPaneFrameWnd@@UAEHPBDI@Z" PURGE="-1" COMMENT="" />
    <EXPORT ORDINAL="12773" NAME="?SaveState@CPane@@UAEHPBDHI@Z" PURGE="-1" COMMENT="" />
    <EXPORT ORDINAL="12772" NAME="?SaveState@COleControl@@IAEJPAUIStream@@@Z" PURGE="-1" COMMENT="" />
    <EXPORT ORDINAL="12771" NAME="?SaveState@CMultiPaneFrameWnd@@UAEHPBDI@Z" PURGE="-1" COMMENT="" />
    <EXPORT ORDINAL="12770" NAME="?SaveState@CMouseManager@@QAEHPBD@Z" PURGE="-1" COMMENT="" />
    <EXPORT ORDINAL="12769" NAME="?SaveState@CMFCToolBar@@UAEHPBDHI@Z" PURGE="-1" COMMENT="" />
    <EXPORT ORDINAL="12768" NAME="?SaveState@CMFCTasksPane@@UAEHPBDHI@Z" PURGE="-1" COMMENT="" />
    <EXPORT ORDINAL="12767" NAME="?SaveState@CMFCRibbonStatusBar@@MAEHPBDHI@Z" PURGE="-1" COMMENT="" />
    <EXPORT ORDINAL="12766" NAME="?SaveState@CMFCRibbonBar@@MAEHPBDHI@Z" PURGE="-1" COMMENT="" />
    <EXPORT ORDINAL="12765" NAME="?SaveState@CMFCReBarState@@SGXAAV?$CStringT@DV?$StrTraitMFC_DLL@DV?$ChTraitsCRT@D@ATL@@@@@ATL@@PAVCFrameWnd@@@Z" PURGE="-1" COMMENT="" />
    <EXPORT ORDINAL="12764" NAME="?SaveState@CMFCPopupMenu@@UAEXXZ" PURGE="-1" COMMENT="" />
    <EXPORT ORDINAL="12763" NAME="?SaveState@CMFCOutlookBar@@UAEHPBDHI@Z" PURGE="-1" COMMENT="" />
    <EXPORT ORDINAL="12762" NAME="?SaveState@CMFCMenuBar@@UAEHPBDHI@Z" PURGE="-1" COMMENT="" />
    <EXPORT ORDINAL="12761" NAME="?SaveState@CMDIClientAreaWnd@@QAEHPBDI@Z" PURGE="-1" COMMENT="" />
    <EXPORT ORDINAL="12760" NAME="?SaveState@CKeyboardManager@@QAEHPBDPAVCFrameWnd@@@Z" PURGE="-1" COMMENT="" />
    <EXPORT ORDINAL="12758" NAME="?SaveState@CDockingManager@@UAEHPBDI@Z" PURGE="-1" COMMENT="" />
    <EXPORT ORDINAL="12757" NAME="?SaveState@CDockablePaneAdapter@@UAEHPBDHI@Z" PURGE="-1" COMMENT="" />
    <EXPORT ORDINAL="12756" NAME="?SaveState@CDockablePane@@UAEHPBDHI@Z" PURGE="-1" COMMENT="" />
    <EXPORT ORDINAL="12759" NAME="?SaveState@CDockState@@QAEXPBD@Z" PURGE="-1" COMMENT="" />
    <EXPORT ORDINAL="12755" NAME="?SaveState@CControlBarInfo@@QAEHPBDH@Z" PURGE="-1" COMMENT="" />
    <EXPORT ORDINAL="12754" NAME="?SaveState@CContextMenuManager@@UAEHPBD@Z" PURGE="-1" COMMENT="" />
    <EXPORT ORDINAL="12753" NAME="?SaveState@CCommandManager@@QAEHPBD@Z" PURGE="-1" COMMENT="" />
    <EXPORT ORDINAL="12752" NAME="?SaveState@CBaseTabbedPane@@MAEHPBDHI@Z" PURGE="-1" COMMENT="" />
    <EXPORT ORDINAL="12751" NAME="?SaveState@CBasePane@@UAEHPBDHI@Z" PURGE="-1" COMMENT="" />
    <EXPORT ORDINAL="12750" NAME="?SaveSiblingBarIDs@CBaseTabbedPane@@UAEXAAVCArchive@@@Z" PURGE="-1" COMMENT="" />
    <EXPORT ORDINAL="12749" NAME="?SaveResetOriginalState@CMFCToolBar@@IAEXAAVCSettingsStore@@@Z" PURGE="-1" COMMENT="" />
    <EXPORT ORDINAL="12748" NAME="?SaveRecentFloatingState@CPaneFrameWnd@@MAEXXZ" PURGE="-1" COMMENT="" />
    <EXPORT ORDINAL="12747" NAME="?SaveRecentFloatingState@CMultiPaneFrameWnd@@MAEXXZ" PURGE="-1" COMMENT="" />
    <EXPORT ORDINAL="12746" NAME="?SaveRebarStateProc@CMFCReBarState@@CGHPAUHWND__@@J@Z" PURGE="-1" COMMENT="" />
    <EXPORT ORDINAL="12745" NAME="?SaveParameters@CMFCToolBar@@SGHPBD@Z" PURGE="-1" COMMENT="" />
    <EXPORT ORDINAL="12744" NAME="?SaveOriginalState@CMFCToolBar@@MAEXAAVCSettingsStore@@@Z" PURGE="-1" COMMENT="" />
    <EXPORT ORDINAL="12743" NAME="?SaveOpenDocumentList@CDataRecoveryHandler@@UAEHXZ" PURGE="-1" COMMENT="" />
    <EXPORT ORDINAL="12742" NAME="?SaveObject@XOleClientSite@COleControlSite@@UAGJXZ" PURGE="-1" COMMENT="" />
    <EXPORT ORDINAL="12741" NAME="?SaveObject@XOleClientSite@COleClientItem@@UAGJXZ" PURGE="-1" COMMENT="" />
    <EXPORT ORDINAL="12740" NAME="?SaveModifiedPrompt@COleServerDoc@@IAEHXZ" PURGE="-1" COMMENT="" />
    <EXPORT ORDINAL="12739" NAME="?SaveModified@COleServerDoc@@MAEHXZ" PURGE="-1" COMMENT="" />
    <EXPORT ORDINAL="12738" NAME="?SaveModified@COleDocument@@UAEHXZ" PURGE="-1" COMMENT="" />
    <EXPORT ORDINAL="12737" NAME="?SaveModified@CDocument@@UAEHXZ" PURGE="-1" COMMENT="" />
    <EXPORT ORDINAL="12736" NAME="?SaveMenuBar@CMenuHash@@QAEHPAUHMENU__@@PAVCMFCToolBar@@@Z" PURGE="-1" COMMENT="" />
    <EXPORT ORDINAL="12735" NAME="?SaveMenu@CMFCToolBarsMenuPropertyPage@@IAEXXZ" PURGE="-1" COMMENT="" />
    <EXPORT ORDINAL="12734" NAME="?SaveMDIState@CMDIFrameWndEx@@UAEHPBD@Z" PURGE="-1" COMMENT="" />
    <EXPORT ORDINAL="12733" NAME="?SaveListOfRecentPanes@CRecentDockSiteInfo@@QAEXAAV?$CList@PAUHWND__@@PAU1@@@H@Z" PURGE="-1" COMMENT="" />
    <EXPORT ORDINAL="12732" NAME="?SaveHistory@CMFCTasksPane@@IAEXH@Z" PURGE="-1" COMMENT="" />
    <EXPORT ORDINAL="12731" NAME="?SaveFocusControl@CFormView@@IAEHXZ" PURGE="-1" COMMENT="" />
    <EXPORT ORDINAL="12730" NAME="?SaveEmbedding@COleServerDoc@@QAEXXZ" PURGE="-1" COMMENT="" />
    <EXPORT ORDINAL="12729" NAME="?SaveDrawingState@CRenderTarget@@QBEXAAUID2D1DrawingStateBlock@@@Z" PURGE="-1" COMMENT="" />
    <EXPORT ORDINAL="12728" NAME="?SaveDockState@CFrameImpl@@IAEXPBD@Z" PURGE="-1" COMMENT="" />
    <EXPORT ORDINAL="12727" NAME="?SaveDC@CPreviewDC@@UAEHXZ" PURGE="-1" COMMENT="" />
    <EXPORT ORDINAL="12726" NAME="?SaveDC@CDC@@UAEHXZ" PURGE="-1" COMMENT="" />
    <EXPORT ORDINAL="12725" NAME="?SaveCompleted@XPersistStorage@COleServerDoc@@UAGJPAUIStorage@@@Z" PURGE="-1" COMMENT="" />
    <EXPORT ORDINAL="12724" NAME="?SaveCompleted@XPersistStorage@COleControl@@UAGJPAUIStorage@@@Z" PURGE="-1" COMMENT="" />
    <EXPORT ORDINAL="12723" NAME="?SaveCompleted@XPersistFile@COleLinkingDoc@@UAGJPB_W@Z" PURGE="-1" COMMENT="" />
    <EXPORT ORDINAL="12722" NAME="?SaveBarState@CMFCToolBarMenuButton@@UAEXXZ" PURGE="-1" COMMENT="" />
    <EXPORT ORDINAL="12721" NAME="?SaveBarState@CFrameWnd@@QBEXPBD@Z" PURGE="-1" COMMENT="" />
    <EXPORT ORDINAL="12720" NAME="?SaveAllModified@CWinApp@@UAEHXZ" PURGE="-1" COMMENT="" />
    <EXPORT ORDINAL="12719" NAME="?SaveAllModified@CDocTemplate@@UAEHXZ" PURGE="-1" COMMENT="" />
    <EXPORT ORDINAL="12718" NAME="?SaveAllModified@CDocManager@@UAEHXZ" PURGE="-1" COMMENT="" />
    <EXPORT ORDINAL="12717" NAME="?SaveAcceleratorState@CKeyboardManager@@IAEHPBDIPAUHACCEL__@@@Z" PURGE="-1" COMMENT="" />
    <EXPORT ORDINAL="12716" NAME="?Save@XPersistStreamInit@COleControl@@UAGJPAUIStream@@H@Z" PURGE="-1" COMMENT="" />
    <EXPORT ORDINAL="12715" NAME="?Save@XPersistStorage@COleServerDoc@@UAGJPAUIStorage@@H@Z" PURGE="-1" COMMENT="" />
    <EXPORT ORDINAL="12714" NAME="?Save@XPersistStorage@COleControl@@UAGJPAUIStorage@@H@Z" PURGE="-1" COMMENT="" />
    <EXPORT ORDINAL="12713" NAME="?Save@XPersistPropertyBag@COleControl@@UAGJPAUIPropertyBag@@HH@Z" PURGE="-1" COMMENT="" />
    <EXPORT ORDINAL="12712" NAME="?Save@XPersistMemory@COleControl@@UAGJPAXHK@Z" PURGE="-1" COMMENT="" />
    <EXPORT ORDINAL="12711" NAME="?Save@XPersistFile@COleLinkingDoc@@UAGJPB_WH@Z" PURGE="-1" COMMENT="" />
    <EXPORT ORDINAL="12710" NAME="?Save@CMFCToolBarImages@@QAEHPBD@Z" PURGE="-1" COMMENT="" />
    <EXPORT ORDINAL="12709" NAME="?Save@CBlobProperty@@UAGJPAUIStream@@H@Z" PURGE="-1" COMMENT="" />
    <EXPORT ORDINAL="12708" NAME="?SameAsSelected@CRichEditView@@IAEHPBDHH@Z" PURGE="-1" COMMENT="" />
    <EXPORT ORDINAL="12707" NAME="?SameAsSelected@CEditView@@IAEHPBDH@Z" PURGE="-1" COMMENT="" />
    <EXPORT ORDINAL="12706" NAME="?SafeSetProperty@COleControlSite@@UAAHJGZZ" PURGE="-1" COMMENT="" />
    <EXPORT ORDINAL="12705" NAME="?RunModalLoop@CWnd@@QAEHK@Z" PURGE="-1" COMMENT="" />
    <EXPORT ORDINAL="12704" NAME="?RunEmbedded@CWinApp@@QAEHXZ" PURGE="-1" COMMENT="" />
    <EXPORT ORDINAL="12703" NAME="?RunAutomated@CWinApp@@QAEHXZ" PURGE="-1" COMMENT="" />
    <EXPORT ORDINAL="12702" NAME="?Run@CWinThread@@UAEHXZ" PURGE="-1" COMMENT="" />
    <EXPORT ORDINAL="12701" NAME="?Run@CWinApp@@UAEHXZ" PURGE="-1" COMMENT="" />
    <EXPORT ORDINAL="12700" NAME="?Run@COleClientItem@@QAEXXZ" PURGE="-1" COMMENT="" />
    <EXPORT ORDINAL="12699" NAME="?RowFromPoint@CDockSite@@IBEPAVCDockingPanesRow@@VCPoint@@AA_N@Z" PURGE="-1" COMMENT="" />
    <EXPORT ORDINAL="12698" NAME="?RowFromPane@CDockSite@@IBEPAVCDockingPanesRow@@PAVCBasePane@@@Z" PURGE="-1" COMMENT="" />
    <EXPORT ORDINAL="12697" NAME="?Rollback@CDatabase@@QAEHXZ" PURGE="-1" COMMENT="" />
    <EXPORT ORDINAL="12696" NAME="?Rollback@CDaoWorkspace@@QAEXXZ" PURGE="-1" COMMENT="" />
    <EXPORT ORDINAL="12694" NAME="?Right@?$CStringT@_WV?$StrTraitMFC_DLL@_WV?$ChTraitsCRT@_W@ATL@@@@@ATL@@QBE?AV12@H@Z" PURGE="-1" COMMENT="" />
    <EXPORT ORDINAL="12695" NAME="?Right@?$CStringT@DV?$StrTraitMFC_DLL@DV?$ChTraitsCRT@D@ATL@@@@@ATL@@QBE?AV12@H@Z" PURGE="-1" COMMENT="" />
    <EXPORT ORDINAL="12693" NAME="?RibbonCategoryColorToRGB@CMFCVisualManager@@UAEKW4AFX_RibbonCategoryColor@@@Z" PURGE="-1" COMMENT="" />
    <EXPORT ORDINAL="12664" NAME="?RevokeAll@COleObjectFactory@@SGXXZ" PURGE="-1" COMMENT="" />
    <EXPORT ORDINAL="12663" NAME="?Revoke@COleObjectFactory@@QAEXXZ" PURGE="-1" COMMENT="" />
    <EXPORT ORDINAL="12662" NAME="?Revoke@COleMessageFilter@@QAEXXZ" PURGE="-1" COMMENT="" />
    <EXPORT ORDINAL="12661" NAME="?Revoke@COleLinkingDoc@@QAEXXZ" PURGE="-1" COMMENT="" />
    <EXPORT ORDINAL="12660" NAME="?Revoke@COleDropTarget@@UAEXXZ" PURGE="-1" COMMENT="" />
    <EXPORT ORDINAL="12659" NAME="?Revert@CArchiveStream@@UAGJXZ" PURGE="-1" COMMENT="" />
    <EXPORT ORDINAL="12657" NAME="?ReverseFind@?$CStringT@_WV?$StrTraitMFC_DLL@_WV?$ChTraitsCRT@_W@ATL@@@@@ATL@@QBEH_W@Z" PURGE="-1" COMMENT="" />
    <EXPORT ORDINAL="12658" NAME="?ReverseFind@?$CStringT@DV?$StrTraitMFC_DLL@DV?$ChTraitsCRT@D@ATL@@@@@ATL@@QBEHD@Z" PURGE="-1" COMMENT="" />
    <EXPORT ORDINAL="12656" NAME="?RetryRejectedCall@XMessageFilter@COleMessageFilter@@UAGKPAUHTASK__@@KK@Z" PURGE="-1" COMMENT="" />
    <EXPORT ORDINAL="12655" NAME="?Resume@AFX_GLOBAL_DATA@@QAEHXZ" PURGE="-1" COMMENT="" />
    <EXPORT ORDINAL="12653" NAME="?RestoreWaitCursor@CCmdTarget@@QAEXXZ" PURGE="-1" COMMENT="" />
    <EXPORT ORDINAL="12652" NAME="?RestoreState@CToolBarCtrl@@QAEXPAUHKEY__@@PBD1@Z" PURGE="-1" COMMENT="" />
    <EXPORT ORDINAL="12651" NAME="?RestoreState@CFullScreenImpl@@QAEXPAVCFrameWnd@@@Z" PURGE="-1" COMMENT="" />
    <EXPORT ORDINAL="12650" NAME="?RestorePosition@CFrameImpl@@IAEXAAUtagCREATESTRUCTA@@@Z" PURGE="-1" COMMENT="" />
    <EXPORT ORDINAL="12649" NAME="?RestoreOriginalState@CMFCToolBar@@UAEHXZ" PURGE="-1" COMMENT="" />
    <EXPORT ORDINAL="12648" NAME="?RestoreOriginalState@CMFCOutlookBarPane@@UAEHXZ" PURGE="-1" COMMENT="" />
    <EXPORT ORDINAL="12647" NAME="?RestoreOriginalState@CMFCMenuBar@@UAEHXZ" PURGE="-1" COMMENT="" />
    <EXPORT ORDINAL="12646" NAME="?RestoreMaximizeMode@CMFCMenuBar@@IAEXH@Z" PURGE="-1" COMMENT="" />
    <EXPORT ORDINAL="12645" NAME="?RestoreFocus@CMFCToolBar@@UAEXXZ" PURGE="-1" COMMENT="" />
    <EXPORT ORDINAL="12644" NAME="?RestoreDrawingState@CRenderTarget@@QAEXAAUID2D1DrawingStateBlock@@@Z" PURGE="-1" COMMENT="" />
    <EXPORT ORDINAL="12643" NAME="?RestoreDelayedSubMenu@CMFCRibbonPanelMenuBar@@UAEXXZ" PURGE="-1" COMMENT="" />
    <EXPORT ORDINAL="12642" NAME="?RestoreDelayedSubMenu@CMFCPopupMenuBar@@UAEXXZ" PURGE="-1" COMMENT="" />
    <EXPORT ORDINAL="12641" NAME="?RestoreDC@CPreviewDC@@UAEHH@Z" PURGE="-1" COMMENT="" />
    <EXPORT ORDINAL="12640" NAME="?RestoreDC@CDC@@UAEHH@Z" PURGE="-1" COMMENT="" />
    <EXPORT ORDINAL="12639" NAME="?RestoreAutosavedDocuments@CDataRecoveryHandler@@UAEHXZ" PURGE="-1" COMMENT="" />
    <EXPORT ORDINAL="12638" NAME="?RestartInstance@CWinApp@@UAEHXZ" PURGE="-1" COMMENT="" />
    <EXPORT ORDINAL="12637" NAME="?ResortMiniFramesForZOrder@CDockingManager@@QAEXXZ" PURGE="-1" COMMENT="" />
    <EXPORT ORDINAL="12636" NAME="?ResolveIntersectionRect@CDockingPanesRow@@IAEXPAVCPane@@_N@Z" PURGE="-1" COMMENT="" />
    <EXPORT ORDINAL="12635" NAME="?ResolveIntersection@CDockingPanesRow@@AAEXPAVCPane@@_NAAPAX@Z" PURGE="-1" COMMENT="" />
    <EXPORT ORDINAL="12634" NAME="?ResizeRow@CDockSite@@QAEHPAVCDockingPanesRow@@HH@Z" PURGE="-1" COMMENT="" />
    <EXPORT ORDINAL="12633" NAME="?ResizePartOfPaneContainer@CPaneContainer@@UAEXHHAAPAX@Z" PURGE="-1" COMMENT="" />
    <EXPORT ORDINAL="12632" NAME="?ResizeParentToFit@CScrollView@@QAEXH@Z" PURGE="-1" COMMENT="" />
    <EXPORT ORDINAL="12631" NAME="?ResizePaneContainers@CPaneContainerManager@@UAEXVCRect@@AAPAX@Z" PURGE="-1" COMMENT="" />
    <EXPORT ORDINAL="12630" NAME="?ResizePaneContainers@CPaneContainerManager@@UAEXIHHAAPAX@Z" PURGE="-1" COMMENT="" />
    <EXPORT ORDINAL="12629" NAME="?ResizePane@CPaneContainer@@UAEXHPAVCPane@@PAV1@HHAAPAX@Z" PURGE="-1" COMMENT="" />
    <EXPORT ORDINAL="12628" NAME="?ResizeOpenControl@COleControl@@IAEXHH@Z" PURGE="-1" COMMENT="" />
    <EXPORT ORDINAL="12627" NAME="?ResizeOneDim@COleSafeArray@@QAEXK@Z" PURGE="-1" COMMENT="" />
    <EXPORT ORDINAL="12626" NAME="?ResizeFrameWindow@COleControl@@MAEXHH@Z" PURGE="-1" COMMENT="" />
    <EXPORT ORDINAL="12625" NAME="?ResizeDockSiteByOffset@CDockSite@@IAEXHH@Z" PURGE="-1" COMMENT="" />
    <EXPORT ORDINAL="12624" NAME="?ResizeDockSite@CDockSite@@QAEXHH@Z" PURGE="-1" COMMENT="" />
    <EXPORT ORDINAL="12623" NAME="?ResizeControl@CMFCColorPropertySheet@@IAEXXZ" PURGE="-1" COMMENT="" />
    <EXPORT ORDINAL="12622" NAME="?ResizeBorder@XOleInPlaceActiveObject@COleServerDoc@@UAGJPBUtagRECT@@PAUIOleInPlaceUIWindow@@H@Z" PURGE="-1" COMMENT="" />
    <EXPORT ORDINAL="12621" NAME="?ResizeBorder@XOleInPlaceActiveObject@COleControl@@UAGJPBUtagRECT@@PAUIOleInPlaceUIWindow@@H@Z" PURGE="-1" COMMENT="" />
    <EXPORT ORDINAL="12620" NAME="?ResizeBorder@XDocHostUIHandler@CHtmlControlSite@@UAGJPBUtagRECT@@PAUIOleInPlaceUIWindow@@H@Z" PURGE="-1" COMMENT="" />
    <EXPORT ORDINAL="12619" NAME="?ResizeBorder@CDHtmlDialog@@UAGJPBUtagRECT@@PAUIOleInPlaceUIWindow@@H@Z" PURGE="-1" COMMENT="" />
    <EXPORT ORDINAL="12618" NAME="?ResizeBorder@CBrowserControlSite@@MAGJPBUtagRECT@@PAUIOleInPlaceUIWindow@@H@Z" PURGE="-1" COMMENT="" />
    <EXPORT ORDINAL="12617" NAME="?Resize@CPaneContainer@@UAEXVCRect@@AAPAXH@Z" PURGE="-1" COMMENT="" />
    <EXPORT ORDINAL="12616" NAME="?Resize@CHwndRenderTarget@@QAEHABVCD2DSizeU@@@Z" PURGE="-1" COMMENT="" />
    <EXPORT ORDINAL="12615" NAME="?Resize@CDockingPanesRow@@UAEHH@Z" PURGE="-1" COMMENT="" />
    <EXPORT ORDINAL="12614" NAME="?ResetVersion@COleControl@@QAEXK@Z" PURGE="-1" COMMENT="" />
    <EXPORT ORDINAL="12613" NAME="?ResetTimer@CControlBar@@QAEXII@Z" PURGE="-1" COMMENT="" />
    <EXPORT ORDINAL="12612" NAME="?ResetTabs@CTabbedPane@@SGXXZ" PURGE="-1" COMMENT="" />
    <EXPORT ORDINAL="12611" NAME="?ResetStockProps@COleControl@@QAEXXZ" PURGE="-1" COMMENT="" />
    <EXPORT ORDINAL="12610" NAME="?ResetState@CMFCDragFrameImpl@@QAEXXZ" PURGE="-1" COMMENT="" />
    <EXPORT ORDINAL="12609" NAME="?ResetState@CContextMenuManager@@UAEHXZ" PURGE="-1" COMMENT="" />
    <EXPORT ORDINAL="12608" NAME="?ResetPanelsLayout@CMFCRibbonCategory@@IAEXXZ" PURGE="-1" COMMENT="" />
    <EXPORT ORDINAL="12607" NAME="?ResetOriginalValues@CMFCPropertyGridCtrl@@QAEXH@Z" PURGE="-1" COMMENT="" />
    <EXPORT ORDINAL="12606" NAME="?ResetOriginalValue@CMFCPropertyGridProperty@@UAEXXZ" PURGE="-1" COMMENT="" />
    <EXPORT ORDINAL="12605" NAME="?ResetOriginalValue@CMFCPropertyGridFontProperty@@MAEXXZ" PURGE="-1" COMMENT="" />
    <EXPORT ORDINAL="12604" NAME="?ResetOriginalValue@CMFCPropertyGridColorProperty@@MAEXXZ" PURGE="-1" COMMENT="" />
    <EXPORT ORDINAL="12603" NAME="?ResetKey@CMFCAcceleratorKeyAssignCtrl@@QAEXXZ" PURGE="-1" COMMENT="" />
    <EXPORT ORDINAL="12600" NAME="?ResetImages@CMFCToolBar@@UAEXXZ" PURGE="-1" COMMENT="" />
    <EXPORT ORDINAL="12599" NAME="?ResetImages@CMFCMenuBar@@MAEXXZ" PURGE="-1" COMMENT="" />
    <EXPORT ORDINAL="12602" NAME="?ResetImageToDefault@CMFCToolBarMenuButton@@UAEXXZ" PURGE="-1" COMMENT="" />
    <EXPORT ORDINAL="12601" NAME="?ResetImageToDefault@CMFCToolBarButton@@UAEXXZ" PURGE="-1" COMMENT="" />
    <EXPORT ORDINAL="12598" NAME="?ResetImageList@CMFCBaseTabCtrl@@QAEXXZ" PURGE="-1" COMMENT="" />
    <EXPORT ORDINAL="12597" NAME="?ResetData@CDataPathProperty@@UAEXXZ" PURGE="-1" COMMENT="" />
    <EXPORT ORDINAL="12596" NAME="?ResetData@CCachedDataPathProperty@@UAEXXZ" PURGE="-1" COMMENT="" />
    <EXPORT ORDINAL="12595" NAME="?ResetCursor@CRecordset@@QAEXXZ" PURGE="-1" COMMENT="" />
    <EXPORT ORDINAL="12594" NAME="?ResetContent@CMFCDropDownListBox@@QAEXXZ" PURGE="-1" COMMENT="" />
    <EXPORT ORDINAL="12593" NAME="?ResetCommands@CMFCRibbonQuickAccessToolBar@@IAEXXZ" PURGE="-1" COMMENT="" />
    <EXPORT ORDINAL="12592" NAME="?ResetAllImages@CMFCToolBar@@SGXXZ" PURGE="-1" COMMENT="" />
    <EXPORT ORDINAL="12591" NAME="?ResetAll@CMFCToolBar@@SGXXZ" PURGE="-1" COMMENT="" />
    <EXPORT ORDINAL="12590" NAME="?ResetAll@CKeyboardManager@@QAEXXZ" PURGE="-1" COMMENT="" />
    <EXPORT ORDINAL="12589" NAME="?Reset@XEnumVOID@CEnumArray@@UAGJXZ" PURGE="-1" COMMENT="" />
    <EXPORT ORDINAL="12587" NAME="?Reset@CMenuTearOffManager@@QAEXPAUHMENU__@@@Z" PURGE="-1" COMMENT="" />
    <EXPORT ORDINAL="12588" NAME="?Reset@CMFCCmdUsageCount@@QAEXXZ" PURGE="-1" COMMENT="" />
    <EXPORT ORDINAL="12586" NAME="?RequestUIActivate@XOleIPSite@COleControlSite@@UAGJXZ" PURGE="-1" COMMENT="" />
    <EXPORT ORDINAL="12585" NAME="?RequestPositionChange@COleServerDoc@@QAEXPBUtagRECT@@@Z" PURGE="-1" COMMENT="" />
    <EXPORT ORDINAL="12584" NAME="?RequestNewObjectLayout@XOleClientSite@COleControlSite@@UAGJXZ" PURGE="-1" COMMENT="" />
    <EXPORT ORDINAL="12583" NAME="?RequestNewObjectLayout@XOleClientSite@COleClientItem@@UAGJXZ" PURGE="-1" COMMENT="" />
    <EXPORT ORDINAL="12582" NAME="?RequestLicKey@XClassFactory@COleObjectFactory@@UAGJKPAPA_W@Z" PURGE="-1" COMMENT="" />
    <EXPORT ORDINAL="12580" NAME="?RequestBorderSpace@XOleInPlaceFrame@COleFrameHook@@UAGJPBUtagRECT@@@Z" PURGE="-1" COMMENT="" />
    <EXPORT ORDINAL="12581" NAME="?RequestBorderSpace@XOleIPFrame@COleControlContainer@@UAGJPBUtagRECT@@@Z" PURGE="-1" COMMENT="" />
    <EXPORT ORDINAL="12579" NAME="?Requery@CRecordset@@UAEHXZ" PURGE="-1" COMMENT="" />
    <EXPORT ORDINAL="12578" NAME="?Requery@CDaoRecordset@@UAEXXZ" PURGE="-1" COMMENT="" />
    <EXPORT ORDINAL="12573" NAME="?RepositionRibbonEditCtrl@CMFCRibbonEdit@@IAEXXZ" PURGE="-1" COMMENT="" />
    <EXPORT ORDINAL="12572" NAME="?RepositionPanes@CPaneDivider@@UAEXAAVCRect@@AAPAX@Z" PURGE="-1" COMMENT="" />
    <EXPORT ORDINAL="12570" NAME="?RepositionPanes@CDockingPanesRow@@UAEXAAVCRect@@IHH@Z" PURGE="-1" COMMENT="" />
    <EXPORT ORDINAL="12571" NAME="?RepositionPanes@CDockSite@@UAEXAAVCRect@@@Z" PURGE="-1" COMMENT="" />
    <EXPORT ORDINAL="12569" NAME="?RepositionPanes@CAutoHideDockSite@@UAEXAAVCRect@@@Z" PURGE="-1" COMMENT="" />
    <EXPORT ORDINAL="12568" NAME="?RepositionMenu@CMFCRibbonPanel@@MAEXPAVCDC@@ABVCRect@@@Z" PURGE="-1" COMMENT="" />
    <EXPORT ORDINAL="12567" NAME="?RepositionFrame@COleIPFrameWnd@@UAEXPBUtagRECT@@0@Z" PURGE="-1" COMMENT="" />
    <EXPORT ORDINAL="12566" NAME="?RepositionBars@CWnd@@QAEXIIIIPAUtagRECT@@PBU2@H@Z" PURGE="-1" COMMENT="" />
    <EXPORT ORDINAL="12565" NAME="?Reposition@CMFCRibbonPanel@@MAEXPAVCDC@@ABVCRect@@@Z" PURGE="-1" COMMENT="" />
    <EXPORT ORDINAL="12564" NAME="?Reposition@CMFCRibbonMainPanel@@MAEXPAVCDC@@ABVCRect@@@Z" PURGE="-1" COMMENT="" />
    <EXPORT ORDINAL="12563" NAME="?Reposition@CMFCPropertyGridProperty@@IAEXAAH@Z" PURGE="-1" COMMENT="" />
    <EXPORT ORDINAL="12577" NAME="?ReposTasks@CMFCTasksPane@@MAEHH@Z" PURGE="-1" COMMENT="" />
    <EXPORT ORDINAL="12576" NAME="?ReposProperties@CMFCPropertyGridCtrl@@IAEXXZ" PURGE="-1" COMMENT="" />
    <EXPORT ORDINAL="12575" NAME="?ReposPanels@CMFCRibbonCategory@@UAEXPAVCDC@@@Z" PURGE="-1" COMMENT="" />
    <EXPORT ORDINAL="12574" NAME="?ReposPalette@CMFCRibbonPanel@@MAEXPAVCDC@@ABVCRect@@@Z" PURGE="-1" COMMENT="" />
    <EXPORT ORDINAL="12562" NAME="?ReposButtons@CMFCTabCtrl@@IAEXVCPoint@@VCSize@@HH@Z" PURGE="-1" COMMENT="" />
    <EXPORT ORDINAL="12561" NAME="?Repos@CMFCShadowWnd@@AAEXXZ" PURGE="-1" COMMENT="" />
    <EXPORT ORDINAL="12560" NAME="?ReportSaveLoadException@COleLinkingDoc@@UAEXPBDPAVCException@@HI@Z" PURGE="-1" COMMENT="" />
    <EXPORT ORDINAL="12559" NAME="?ReportSaveLoadException@CDocument@@UAEXPBDPAVCException@@HI@Z" PURGE="-1" COMMENT="" />
    <EXPORT ORDINAL="12558" NAME="?ReportError@COleClientItem@@UBEHJ@Z" PURGE="-1" COMMENT="" />
    <EXPORT ORDINAL="12557" NAME="?ReportError@CException@@UAEHII@Z" PURGE="-1" COMMENT="" />
    <EXPORT ORDINAL="12556" NAME="?ReplacePane@CPaneFrameWnd@@UAEXPAVCBasePane@@0@Z" PURGE="-1" COMMENT="" />
    <EXPORT ORDINAL="12555" NAME="?ReplacePane@CPaneDivider@@UAEHPAVCDockablePane@@0@Z" PURGE="-1" COMMENT="" />
    <EXPORT ORDINAL="12554" NAME="?ReplacePane@CPaneContainerManager@@UAEHPAVCDockablePane@@0@Z" PURGE="-1" COMMENT="" />
    <EXPORT ORDINAL="12553" NAME="?ReplacePane@CMultiPaneFrameWnd@@UAEXPAVCBasePane@@0@Z" PURGE="-1" COMMENT="" />
    <EXPORT ORDINAL="12552" NAME="?ReplacePane@CMFCAutoHideButton@@QAEXPAVCDockablePane@@@Z" PURGE="-1" COMMENT="" />
    <EXPORT ORDINAL="12550" NAME="?ReplacePane@CDockingPanesRow@@UAEHPAVCPane@@0@Z" PURGE="-1" COMMENT="" />
    <EXPORT ORDINAL="12549" NAME="?ReplacePane@CDockingManager@@QAEHPAVCDockablePane@@0@Z" PURGE="-1" COMMENT="" />
    <EXPORT ORDINAL="12548" NAME="?ReplacePane@CDockablePane@@QAEHPAV1@W4AFX_DOCK_METHOD@@H@Z" PURGE="-1" COMMENT="" />
    <EXPORT ORDINAL="12551" NAME="?ReplacePane@CDockSite@@QAEHPAVCPane@@0@Z" PURGE="-1" COMMENT="" />
    <EXPORT ORDINAL="12547" NAME="?ReplaceCommands@CMFCRibbonQuickAccessToolBar@@IAEXABV?$CList@II@@@Z" PURGE="-1" COMMENT="" />
    <EXPORT ORDINAL="12546" NAME="?ReplaceByID@CMFCRibbonPanel@@QAEHIPAVCMFCRibbonBaseElement@@@Z" PURGE="-1" COMMENT="" />
    <EXPORT ORDINAL="12545" NAME="?ReplaceByID@CMFCRibbonButtonsGroup@@MAEHIPAVCMFCRibbonBaseElement@@@Z" PURGE="-1" COMMENT="" />
    <EXPORT ORDINAL="12544" NAME="?ReplaceByID@CMFCRibbonBaseElement@@MAEHIPAV1@@Z" PURGE="-1" COMMENT="" />
    <EXPORT ORDINAL="12543" NAME="?ReplaceButton@CPaneFrameWnd@@IAEXII@Z" PURGE="-1" COMMENT="" />
    <EXPORT ORDINAL="12542" NAME="?ReplaceButton@CMFCToolBarsCustomizeDialog@@QAEXIABVCMFCToolBarButton@@@Z" PURGE="-1" COMMENT="" />
    <EXPORT ORDINAL="12541" NAME="?ReplaceButton@CMFCToolBar@@QAEHIABVCMFCToolBarButton@@H@Z" PURGE="-1" COMMENT="" />
    <EXPORT ORDINAL="12540" NAME="?ReplaceBrackets@CDatabase@@QAEXPAD@Z" PURGE="-1" COMMENT="" />
    <EXPORT ORDINAL="12539" NAME="?Replace@CMFCRibbonPanel@@QAEHHPAVCMFCRibbonBaseElement@@@Z" PURGE="-1" COMMENT="" />
    <EXPORT ORDINAL="12535" NAME="?Replace@?$CStringT@_WV?$StrTraitMFC_DLL@_WV?$ChTraitsCRT@_W@ATL@@@@@ATL@@QAEH_W0@Z" PURGE="-1" COMMENT="" />
    <EXPORT ORDINAL="12536" NAME="?Replace@?$CStringT@_WV?$StrTraitMFC_DLL@_WV?$ChTraitsCRT@_W@ATL@@@@@ATL@@QAEHPB_W0@Z" PURGE="-1" COMMENT="" />
    <EXPORT ORDINAL="12538" NAME="?Replace@?$CStringT@DV?$StrTraitMFC_DLL@DV?$ChTraitsCRT@D@ATL@@@@@ATL@@QAEHPBD0@Z" PURGE="-1" COMMENT="" />
    <EXPORT ORDINAL="12537" NAME="?Replace@?$CStringT@DV?$StrTraitMFC_DLL@DV?$ChTraitsCRT@D@ATL@@@@@ATL@@QAEHDD@Z" PURGE="-1" COMMENT="" />
    <EXPORT ORDINAL="12534" NAME="?ReparentControlWindow@COleControl@@UAEXPAUHWND__@@0@Z" PURGE="-1" COMMENT="" />
    <EXPORT ORDINAL="12533" NAME="?RepairDatabase@CDaoWorkspace@@SGXPBD@Z" PURGE="-1" COMMENT="" />
    <EXPORT ORDINAL="12532" NAME="?ReopenPreviousDocuments@CDataRecoveryHandler@@UAEHXZ" PURGE="-1" COMMENT="" />
    <EXPORT ORDINAL="12531" NAME="?Render@CPictureHolder@@QAEXPAVCDC@@ABVCRect@@1@Z" PURGE="-1" COMMENT="" />
    <EXPORT ORDINAL="12530" NAME="?RenameTab@CMFCBaseTabCtrl@@UAEHXZ" PURGE="-1" COMMENT="" />
    <EXPORT ORDINAL="12529" NAME="?RenameCategory@CMFCToolBarsCustomizeDialog@@QAEHPBD0@Z" PURGE="-1" COMMENT="" />
    <EXPORT ORDINAL="12528" NAME="?Rename@CFtpConnection@@QAEHPBD0@Z" PURGE="-1" COMMENT="" />
    <EXPORT ORDINAL="12527" NAME="?Rename@CFile@@SGXPBD0PAVCAtlTransactionManager@ATL@@@Z" PURGE="-1" COMMENT="" />
    <EXPORT ORDINAL="12526" NAME="?RemoveView@CTabView@@QAEHH@Z" PURGE="-1" COMMENT="" />
    <EXPORT ORDINAL="12525" NAME="?RemoveView@CDocument@@QAEXPAVCView@@@Z" PURGE="-1" COMMENT="" />
    <EXPORT ORDINAL="12524" NAME="?RemoveTransitions@CAnimationGroup@@QAEXXZ" PURGE="-1" COMMENT="" />
    <EXPORT ORDINAL="12523" NAME="?RemoveTransitions@CAnimationController@@QAEXI@Z" PURGE="-1" COMMENT="" />
    <EXPORT ORDINAL="12522" NAME="?RemoveTool@CUserToolsManager@@QAEHPAVCUserTool@@@Z" PURGE="-1" COMMENT="" />
    <EXPORT ORDINAL="12521" NAME="?RemoveText@CMFCCaptionBar@@QAEXXZ" PURGE="-1" COMMENT="" />
    <EXPORT ORDINAL="12520" NAME="?RemoveTearOffToolbar@CFrameImpl@@IAEXPAVCBasePane@@@Z" PURGE="-1" COMMENT="" />
    <EXPORT ORDINAL="12519" NAME="?RemoveTask@CMFCTasksPane@@QAEHHHH@Z" PURGE="-1" COMMENT="" />
    <EXPORT ORDINAL="12518" NAME="?RemoveTail@CStringList@@QAE?AV?$CStringT@DV?$StrTraitMFC_DLL@DV?$ChTraitsCRT@D@ATL@@@@@ATL@@XZ" PURGE="-1" COMMENT="" />
    <EXPORT ORDINAL="12517" NAME="?RemoveTail@CPtrList@@QAEPAXXZ" PURGE="-1" COMMENT="" />
    <EXPORT ORDINAL="12516" NAME="?RemoveTail@CObList@@QAEPAVCObject@@XZ" PURGE="-1" COMMENT="" />
    <EXPORT ORDINAL="12515" NAME="?RemoveTabPreDocking@CMFCDragFrameImpl@@QAEXPAVCDockablePane@@@Z" PURGE="-1" COMMENT="" />
    <EXPORT ORDINAL="12514" NAME="?RemoveTabGroup@CMDIClientAreaWnd@@QAEXPAVCMFCTabCtrl@@H@Z" PURGE="-1" COMMENT="" />
    <EXPORT ORDINAL="12513" NAME="?RemoveTab@CMFCBaseTabCtrl@@UAEHHH@Z" PURGE="-1" COMMENT="" />
    <EXPORT ORDINAL="12512" NAME="?RemoveSubItem@CMFCRibbonButton@@QAEHH@Z" PURGE="-1" COMMENT="" />
    <EXPORT ORDINAL="12511" NAME="?RemoveSubItem@CMFCPropertyGridProperty@@QAEHAAPAV1@H@Z" PURGE="-1" COMMENT="" />
    <EXPORT ORDINAL="12510" NAME="?RemoveStateFromRegistry@CMFCToolBar@@UAEHPBDHI@Z" PURGE="-1" COMMENT="" />
    <EXPORT ORDINAL="12509" NAME="?RemoveSource@CDataBoundProperty@@QAEXXZ" PURGE="-1" COMMENT="" />
    <EXPORT ORDINAL="12508" NAME="?RemoveSortColumn@CMFCListCtrl@@QAEXH@Z" PURGE="-1" COMMENT="" />
    <EXPORT ORDINAL="12507" NAME="?RemoveSortColumn@CMFCHeaderCtrl@@QAEXH@Z" PURGE="-1" COMMENT="" />
    <EXPORT ORDINAL="12506" NAME="?RemoveRow@CDockSite@@QAEXPAVCDockingPanesRow@@@Z" PURGE="-1" COMMENT="" />
    <EXPORT ORDINAL="12505" NAME="?RemoveResetStateButton@CMFCToolBar@@IAEHI@Z" PURGE="-1" COMMENT="" />
    <EXPORT ORDINAL="12504" NAME="?RemoveRadioCheckFromGroup@CWnd@@QBEXPBUCOleControlSiteOrWnd@@@Z" PURGE="-1" COMMENT="" />
    <EXPORT ORDINAL="12503" NAME="?RemovePlaceHolder@CDockBar@@QAEXPAVCControlBar@@@Z" PURGE="-1" COMMENT="" />
    <EXPORT ORDINAL="12502" NAME="?RemovePanel@CMFCRibbonCategory@@QAEHHH@Z" PURGE="-1" COMMENT="" />
    <EXPORT ORDINAL="12501" NAME="?RemovePaneFromPaneContainer@CPaneContainerManager@@UAEHPAVCDockablePane@@@Z" PURGE="-1" COMMENT="" />
    <EXPORT ORDINAL="12500" NAME="?RemovePaneFromDockManager@COleIPFrameWndEx@@QAEXPAVCBasePane@@HHH0@Z" PURGE="-1" COMMENT="" />
    <EXPORT ORDINAL="12499" NAME="?RemovePaneFromDockManager@COleDocIPFrameWndEx@@QAEXPAVCBasePane@@HHH0@Z" PURGE="-1" COMMENT="" />
    <EXPORT ORDINAL="12498" NAME="?RemovePaneFromDockManager@COleCntrFrameWndEx@@QAEXPAVCBasePane@@HHH0@Z" PURGE="-1" COMMENT="" />
    <EXPORT ORDINAL="12497" NAME="?RemovePaneFromDockManager@CMDIFrameWndEx@@QAEXPAVCBasePane@@HHH0@Z" PURGE="-1" COMMENT="" />
    <EXPORT ORDINAL="12496" NAME="?RemovePaneFromDockManager@CMDIChildWndEx@@QAEXPAVCBasePane@@HHH0@Z" PURGE="-1" COMMENT="" />
    <EXPORT ORDINAL="12495" NAME="?RemovePaneFromDockManager@CFrameWndEx@@QAEXPAVCBasePane@@HHH0@Z" PURGE="-1" COMMENT="" />
    <EXPORT ORDINAL="12494" NAME="?RemovePaneFromDockManager@CDockingManager@@QAEXPAVCBasePane@@HHH0@Z" PURGE="-1" COMMENT="" />
    <EXPORT ORDINAL="12493" NAME="?RemovePaneFromDockManager@CBasePane@@QAEXPAV1@HHH0@Z" PURGE="-1" COMMENT="" />
    <EXPORT ORDINAL="12492" NAME="?RemovePaneDivider@CPaneContainerManager@@UAEXPAVCPaneDivider@@@Z" PURGE="-1" COMMENT="" />
    <EXPORT ORDINAL="12491" NAME="?RemovePane@CPaneFrameWnd@@UAEXPAVCBasePane@@HH@Z" PURGE="-1" COMMENT="" />
    <EXPORT ORDINAL="12490" NAME="?RemovePane@CPaneDivider@@UAEXPAVCDockablePane@@@Z" PURGE="-1" COMMENT="" />
    <EXPORT ORDINAL="12489" NAME="?RemovePane@CPaneContainer@@UAEXPAVCDockablePane@@@Z" PURGE="-1" COMMENT="" />
    <EXPORT ORDINAL="12488" NAME="?RemovePane@CMultiPaneFrameWnd@@UAEXPAVCBasePane@@HH@Z" PURGE="-1" COMMENT="" />
    <EXPORT ORDINAL="12486" NAME="?RemovePane@CDockingPanesRow@@UAEXPAVCPane@@@Z" PURGE="-1" COMMENT="" />
    <EXPORT ORDINAL="12487" NAME="?RemovePane@CDockSite@@UAEXPAVCPane@@W4AFX_DOCK_METHOD@@@Z" PURGE="-1" COMMENT="" />
    <EXPORT ORDINAL="12485" NAME="?RemovePane@CBaseTabbedPane@@UAEHPAVCWnd@@@Z" PURGE="-1" COMMENT="" />
    <EXPORT ORDINAL="12484" NAME="?RemovePage@CPropertySheet@@QAEXPAVCPropertyPage@@@Z" PURGE="-1" COMMENT="" />
    <EXPORT ORDINAL="12483" NAME="?RemovePage@CPropertySheet@@QAEXH@Z" PURGE="-1" COMMENT="" />
    <EXPORT ORDINAL="12482" NAME="?RemovePage@CMFCTasksPane@@QAEXH@Z" PURGE="-1" COMMENT="" />
    <EXPORT ORDINAL="12481" NAME="?RemovePage@CMFCPropertySheet@@QAEXPAVCPropertyPage@@@Z" PURGE="-1" COMMENT="" />
    <EXPORT ORDINAL="12480" NAME="?RemovePage@CMFCPropertySheet@@QAEXH@Z" PURGE="-1" COMMENT="" />
    <EXPORT ORDINAL="12479" NAME="?RemoveNonValidPanes@CPaneFrameWnd@@UAEXXZ" PURGE="-1" COMMENT="" />
    <EXPORT ORDINAL="12478" NAME="?RemoveNonValidPanes@CPaneContainerManager@@QAEXXZ" PURGE="-1" COMMENT="" />
    <EXPORT ORDINAL="12477" NAME="?RemoveNonValidPanes@CPaneContainer@@QAEXXZ" PURGE="-1" COMMENT="" />
    <EXPORT ORDINAL="12476" NAME="?RemoveNonValidPanes@CMultiPaneFrameWnd@@UAEXXZ" PURGE="-1" COMMENT="" />
    <EXPORT ORDINAL="12475" NAME="?RemoveMiniFrame@CDockingManager@@UAEHPAVCPaneFrameWnd@@@Z" PURGE="-1" COMMENT="" />
    <EXPORT ORDINAL="12473" NAME="?RemoveMenus@XOleInPlaceFrame@COleFrameHook@@UAGJPAUHMENU__@@@Z" PURGE="-1" COMMENT="" />
    <EXPORT ORDINAL="12474" NAME="?RemoveMenus@XOleIPFrame@COleControlContainer@@UAGJPAUHMENU__@@@Z" PURGE="-1" COMMENT="" />
    <EXPORT ORDINAL="12472" NAME="?RemoveMenu@CMenuHash@@QAEHPAUHMENU__@@@Z" PURGE="-1" COMMENT="" />
    <EXPORT ORDINAL="12471" NAME="?RemoveKeyframes@CAnimationGroup@@QAEXXZ" PURGE="-1" COMMENT="" />
    <EXPORT ORDINAL="12470" NAME="?RemoveKey@CMapWordToPtr@@QAEHG@Z" PURGE="-1" COMMENT="" />
    <EXPORT ORDINAL="12469" NAME="?RemoveKey@CMapWordToOb@@QAEHG@Z" PURGE="-1" COMMENT="" />
    <EXPORT ORDINAL="12468" NAME="?RemoveKey@CMapStringToString@@QAEHPBD@Z" PURGE="-1" COMMENT="" />
    <EXPORT ORDINAL="12467" NAME="?RemoveKey@CMapStringToPtr@@QAEHPBD@Z" PURGE="-1" COMMENT="" />
    <EXPORT ORDINAL="12466" NAME="?RemoveKey@CMapStringToOb@@QAEHPBD@Z" PURGE="-1" COMMENT="" />
    <EXPORT ORDINAL="12465" NAME="?RemoveKey@CMapPtrToWord@@QAEHPAX@Z" PURGE="-1" COMMENT="" />
    <EXPORT ORDINAL="12464" NAME="?RemoveKey@CMapPtrToPtr@@QAEHPAX@Z" PURGE="-1" COMMENT="" />
    <EXPORT ORDINAL="12463" NAME="?RemoveItemToolTips@CMFCRibbonGallery@@QAEXXZ" PURGE="-1" COMMENT="" />
    <EXPORT ORDINAL="12462" NAME="?RemoveItem@CVSListBox@@UAEHH@Z" PURGE="-1" COMMENT="" />
    <EXPORT ORDINAL="12461" NAME="?RemoveItem@COleDocument@@UAEXPAVCDocItem@@@Z" PURGE="-1" COMMENT="" />
    <EXPORT ORDINAL="12460" NAME="?RemoveItem@CMFCPopupMenu@@QAEHH@Z" PURGE="-1" COMMENT="" />
    <EXPORT ORDINAL="12459" NAME="?RemoveImageList@CTreeView@@IAEXH@Z" PURGE="-1" COMMENT="" />
    <EXPORT ORDINAL="12458" NAME="?RemoveImageList@CTreeCtrl@@IAEXH@Z" PURGE="-1" COMMENT="" />
    <EXPORT ORDINAL="12457" NAME="?RemoveImageList@CListView@@IAEXH@Z" PURGE="-1" COMMENT="" />
    <EXPORT ORDINAL="12456" NAME="?RemoveImageList@CListCtrl@@IAEXH@Z" PURGE="-1" COMMENT="" />
    <EXPORT ORDINAL="12455" NAME="?RemoveIcon@CMFCCaptionBar@@QAEXXZ" PURGE="-1" COMMENT="" />
    <EXPORT ORDINAL="12454" NAME="?RemoveHiddenMDITabbedBar@CDockingManager@@QAEXPAVCDockablePane@@@Z" PURGE="-1" COMMENT="" />
    <EXPORT ORDINAL="12453" NAME="?RemoveHead@CStringList@@QAE?AV?$CStringT@DV?$StrTraitMFC_DLL@DV?$ChTraitsCRT@D@ATL@@@@@ATL@@XZ" PURGE="-1" COMMENT="" />
    <EXPORT ORDINAL="12452" NAME="?RemoveHead@CPtrList@@QAEPAXXZ" PURGE="-1" COMMENT="" />
    <EXPORT ORDINAL="12451" NAME="?RemoveHead@CObList@@QAEPAVCObject@@XZ" PURGE="-1" COMMENT="" />
    <EXPORT ORDINAL="12450" NAME="?RemoveGroup@CMFCTasksPane@@QAEXH@Z" PURGE="-1" COMMENT="" />
    <EXPORT ORDINAL="12449" NAME="?RemoveFromMiniframe@CPane@@MAEXPAVCWnd@@W4AFX_DOCK_METHOD@@@Z" PURGE="-1" COMMENT="" />
    <EXPORT ORDINAL="12448" NAME="?RemoveFromDefaultPaneDivider@CDockablePane@@QAEXXZ" PURGE="-1" COMMENT="" />
    <EXPORT ORDINAL="12447" NAME="?RemoveFrameWnd@CFrameWnd@@IAEXXZ" PURGE="-1" COMMENT="" />
    <EXPORT ORDINAL="12446" NAME="?RemoveFrameLevelUI@COleControl@@MAEXXZ" PURGE="-1" COMMENT="" />
    <EXPORT ORDINAL="12445" NAME="?RemoveFrame@CFrameImpl@@SGXPAVCFrameWnd@@@Z" PURGE="-1" COMMENT="" />
    <EXPORT ORDINAL="12444" NAME="?RemoveElement@CMFCRibbonStatusBar@@QAEHI@Z" PURGE="-1" COMMENT="" />
    <EXPORT ORDINAL="12443" NAME="?RemoveDocumentInfo@CDataRecoveryHandler@@UAEHPAVCDocument@@@Z" PURGE="-1" COMMENT="" />
    <EXPORT ORDINAL="12442" NAME="?RemoveDocument@CSingleDocTemplate@@UAEXPAVCDocument@@@Z" PURGE="-1" COMMENT="" />
    <EXPORT ORDINAL="12441" NAME="?RemoveDocument@CMultiDocTemplate@@UAEXPAVCDocument@@@Z" PURGE="-1" COMMENT="" />
    <EXPORT ORDINAL="12440" NAME="?RemoveDocument@CDocTemplate@@UAEXPAVCDocument@@@Z" PURGE="-1" COMMENT="" />
    <EXPORT ORDINAL="12439" NAME="?RemoveDirectoryA@CFtpConnection@@QAEHPBD@Z" PURGE="-1" COMMENT="" />
    <EXPORT ORDINAL="12438" NAME="?RemoveDestination@CAppDestinations@@QAEHPAUIUnknown@@@Z" PURGE="-1" COMMENT="" />
    <EXPORT ORDINAL="12437" NAME="?RemoveCustomPage@CMFCOutlookBar@@QAEHIPAVCMFCOutlookBarTabCtrl@@@Z" PURGE="-1" COMMENT="" />
    <EXPORT ORDINAL="12436" NAME="?RemoveControlItem@CFileDialog@@QAEJKK@Z" PURGE="-1" COMMENT="" />
    <EXPORT ORDINAL="12435" NAME="?RemoveControlBar@CFrameWnd@@QAEXPAVCControlBar@@@Z" PURGE="-1" COMMENT="" />
    <EXPORT ORDINAL="12434" NAME="?RemoveControlBar@CDockBar@@QAEHPAVCControlBar@@HH@Z" PURGE="-1" COMMENT="" />
    <EXPORT ORDINAL="12433" NAME="?RemoveChunk@CDocument@@UAEXABU_GUID@@K@Z" PURGE="-1" COMMENT="" />
    <EXPORT ORDINAL="12432" NAME="?RemoveCategory@CMFCRibbonBar@@QAEHH@Z" PURGE="-1" COMMENT="" />
    <EXPORT ORDINAL="12431" NAME="?RemoveCategory@CMFCPropertySheet@@QAEXPAVCMFCPropertySheetCategoryInfo@@@Z" PURGE="-1" COMMENT="" />
    <EXPORT ORDINAL="12430" NAME="?RemoveCaptionButtons@CDockablePane@@IAEXXZ" PURGE="-1" COMMENT="" />
    <EXPORT ORDINAL="12429" NAME="?RemoveButtons@CMFCToolBarButtonsListButton@@QAEXXZ" PURGE="-1" COMMENT="" />
    <EXPORT ORDINAL="14443" NAME="?RemoveButtonByIndex@CMFCOutlookBarPane@@QAEHH@Z" PURGE="-1" COMMENT="" />
    <EXPORT ORDINAL="12428" NAME="?RemoveButton@CPaneFrameWnd@@IAEXI@Z" PURGE="-1" COMMENT="" />
    <EXPORT ORDINAL="12427" NAME="?RemoveButton@CMFCToolBarsCustomizeDialog@@QAEHPBDI@Z" PURGE="-1" COMMENT="" />
    <EXPORT ORDINAL="12426" NAME="?RemoveButton@CMFCToolBarsCustomizeDialog@@QAEHII@Z" PURGE="-1" COMMENT="" />
    <EXPORT ORDINAL="12425" NAME="?RemoveButton@CMFCToolBar@@UAEHH@Z" PURGE="-1" COMMENT="" />
    <EXPORT ORDINAL="12424" NAME="?RemoveButton@CMFCOutlookBarPane@@QAEHI@Z" PURGE="-1" COMMENT="" />
    <EXPORT ORDINAL="12423" NAME="?RemoveButton@CMFCCaptionBar@@QAEXXZ" PURGE="-1" COMMENT="" />
    <EXPORT ORDINAL="12422" NAME="?RemoveBitmap@CMFCCaptionBar@@QAEXXZ" PURGE="-1" COMMENT="" />
    <EXPORT ORDINAL="12421" NAME="?RemoveAutoHideWindow@CMFCAutoHideBar@@QAEHPAVCDockablePane@@@Z" PURGE="-1" COMMENT="" />
    <EXPORT ORDINAL="12420" NAME="?RemoveAt@CWordArray@@QAEXHH@Z" PURGE="-1" COMMENT="" />
    <EXPORT ORDINAL="12419" NAME="?RemoveAt@CUIntArray@@QAEXHH@Z" PURGE="-1" COMMENT="" />
    <EXPORT ORDINAL="12418" NAME="?RemoveAt@CStringList@@QAEXPAU__POSITION@@@Z" PURGE="-1" COMMENT="" />
    <EXPORT ORDINAL="12417" NAME="?RemoveAt@CStringArray@@QAEXHH@Z" PURGE="-1" COMMENT="" />
    <EXPORT ORDINAL="12416" NAME="?RemoveAt@CPtrList@@QAEXPAU__POSITION@@@Z" PURGE="-1" COMMENT="" />
    <EXPORT ORDINAL="12415" NAME="?RemoveAt@CPtrArray@@QAEXHH@Z" PURGE="-1" COMMENT="" />
    <EXPORT ORDINAL="12414" NAME="?RemoveAt@CObList@@QAEXPAU__POSITION@@@Z" PURGE="-1" COMMENT="" />
    <EXPORT ORDINAL="12413" NAME="?RemoveAt@CObArray@@QAEXHH@Z" PURGE="-1" COMMENT="" />
    <EXPORT ORDINAL="12412" NAME="?RemoveAt@CDWordArray@@QAEXHH@Z" PURGE="-1" COMMENT="" />
    <EXPORT ORDINAL="12411" NAME="?RemoveAt@CByteArray@@QAEXHH@Z" PURGE="-1" COMMENT="" />
    <EXPORT ORDINAL="12410" NAME="?RemoveAnimationObject@CAnimationController@@QAEXPAVCAnimationBaseObject@@H@Z" PURGE="-1" COMMENT="" />
    <EXPORT ORDINAL="12409" NAME="?RemoveAnimationGroup@CAnimationController@@QAEXI@Z" PURGE="-1" COMMENT="" />
    <EXPORT ORDINAL="12408" NAME="?RemoveAllTasks@CMFCTasksPane@@QAEXH@Z" PURGE="-1" COMMENT="" />
    <EXPORT ORDINAL="12407" NAME="?RemoveAllTabs@CMFCBaseTabCtrl@@UAEXXZ" PURGE="-1" COMMENT="" />
    <EXPORT ORDINAL="12406" NAME="?RemoveAllSubItems@CMFCRibbonButton@@QAEXXZ" PURGE="-1" COMMENT="" />
    <EXPORT ORDINAL="12405" NAME="?RemoveAllPanesAndPaneDividers@CPaneContainerManager@@QAEXXZ" PURGE="-1" COMMENT="" />
    <EXPORT ORDINAL="12404" NAME="?RemoveAllPages@CMFCTasksPane@@QAEXXZ" PURGE="-1" COMMENT="" />
    <EXPORT ORDINAL="12403" NAME="?RemoveAllOptions@CMFCPropertyGridProperty@@QAEXXZ" PURGE="-1" COMMENT="" />
    <EXPORT ORDINAL="12402" NAME="?RemoveAllKeys@CMFCRibbonBar@@IAEXXZ" PURGE="-1" COMMENT="" />
    <EXPORT ORDINAL="12401" NAME="?RemoveAllItems@CMFCToolBarComboBoxButton@@QAEXXZ" PURGE="-1" COMMENT="" />
    <EXPORT ORDINAL="12400" NAME="?RemoveAllItems@CMFCRibbonComboBox@@QAEXXZ" PURGE="-1" COMMENT="" />
    <EXPORT ORDINAL="12399" NAME="?RemoveAllItems@CMFCPopupMenu@@QAEXXZ" PURGE="-1" COMMENT="" />
    <EXPORT ORDINAL="12398" NAME="?RemoveAllGroups@CMFCTasksPane@@QAEXH@Z" PURGE="-1" COMMENT="" />
    <EXPORT ORDINAL="12397" NAME="?RemoveAllFromTabs@CMFCRibbonBar@@QAEXXZ" PURGE="-1" COMMENT="" />
    <EXPORT ORDINAL="12396" NAME="?RemoveAllDestinations@CAppDestinations@@QAEHXZ" PURGE="-1" COMMENT="" />
    <EXPORT ORDINAL="12395" NAME="?RemoveAllColorGroups@CMFCRibbonColorButton@@QAEXXZ" PURGE="-1" COMMENT="" />
    <EXPORT ORDINAL="12394" NAME="?RemoveAllCategories@CMFCRibbonBar@@QAEXXZ" PURGE="-1" COMMENT="" />
    <EXPORT ORDINAL="12393" NAME="?RemoveAllCaptionButtons@CPaneFrameWnd@@IAEXXZ" PURGE="-1" COMMENT="" />
    <EXPORT ORDINAL="12392" NAME="?RemoveAllButtons@CMFCToolBar@@UAEXXZ" PURGE="-1" COMMENT="" />
    <EXPORT ORDINAL="12391" NAME="?RemoveAllButtons@CMFCOutlookBarPane@@UAEXXZ" PURGE="-1" COMMENT="" />
    <EXPORT ORDINAL="12390" NAME="?RemoveAllAnimationGroups@CAnimationController@@QAEXXZ" PURGE="-1" COMMENT="" />
    <EXPORT ORDINAL="12389" NAME="?RemoveAll@CTypeLibCacheMap@@UAEXPAX@Z" PURGE="-1" COMMENT="" />
    <EXPORT ORDINAL="12388" NAME="?RemoveAll@CStringList@@QAEXXZ" PURGE="-1" COMMENT="" />
    <EXPORT ORDINAL="12387" NAME="?RemoveAll@CPtrList@@QAEXXZ" PURGE="-1" COMMENT="" />
    <EXPORT ORDINAL="12386" NAME="?RemoveAll@CPropertySet@@QAEXXZ" PURGE="-1" COMMENT="" />
    <EXPORT ORDINAL="12385" NAME="?RemoveAll@CPropertySection@@QAEXXZ" PURGE="-1" COMMENT="" />
    <EXPORT ORDINAL="12384" NAME="?RemoveAll@CObList@@QAEXXZ" PURGE="-1" COMMENT="" />
    <EXPORT ORDINAL="12377" NAME="?RemoveAll@CMapWordToPtr@@QAEXXZ" PURGE="-1" COMMENT="" />
    <EXPORT ORDINAL="12376" NAME="?RemoveAll@CMapWordToOb@@QAEXXZ" PURGE="-1" COMMENT="" />
    <EXPORT ORDINAL="12375" NAME="?RemoveAll@CMapStringToString@@QAEXXZ" PURGE="-1" COMMENT="" />
    <EXPORT ORDINAL="12374" NAME="?RemoveAll@CMapStringToPtr@@QAEXXZ" PURGE="-1" COMMENT="" />
    <EXPORT ORDINAL="12373" NAME="?RemoveAll@CMapStringToOb@@QAEXXZ" PURGE="-1" COMMENT="" />
    <EXPORT ORDINAL="12372" NAME="?RemoveAll@CMapPtrToWord@@QAEXXZ" PURGE="-1" COMMENT="" />
    <EXPORT ORDINAL="12371" NAME="?RemoveAll@CMapPtrToPtr@@QAEXXZ" PURGE="-1" COMMENT="" />
    <EXPORT ORDINAL="12383" NAME="?RemoveAll@CMFCRibbonStatusBar@@QAEXXZ" PURGE="-1" COMMENT="" />
    <EXPORT ORDINAL="12382" NAME="?RemoveAll@CMFCRibbonQuickAccessToolBarDefaultState@@QAEXXZ" PURGE="-1" COMMENT="" />
    <EXPORT ORDINAL="12381" NAME="?RemoveAll@CMFCRibbonPanel@@QAEXXZ" PURGE="-1" COMMENT="" />
    <EXPORT ORDINAL="12380" NAME="?RemoveAll@CMFCRibbonGallery@@IAEXXZ" PURGE="-1" COMMENT="" />
    <EXPORT ORDINAL="12379" NAME="?RemoveAll@CMFCRibbonButtonsGroup@@QAEXXZ" PURGE="-1" COMMENT="" />
    <EXPORT ORDINAL="12378" NAME="?RemoveAll@CMFCPropertyGridCtrl@@QAEXXZ" PURGE="-1" COMMENT="" />
    <EXPORT ORDINAL="12370" NAME="?Remove@CSimpleList@@QAEHPAX@Z" PURGE="-1" COMMENT="" />
    <EXPORT ORDINAL="12369" NAME="?Remove@CRecentFileList@@UAEXH@Z" PURGE="-1" COMMENT="" />
    <EXPORT ORDINAL="12368" NAME="?Remove@CPropertySet@@QAEXU_GUID@@K@Z" PURGE="-1" COMMENT="" />
    <EXPORT ORDINAL="12367" NAME="?Remove@CPropertySet@@QAEXU_GUID@@@Z" PURGE="-1" COMMENT="" />
    <EXPORT ORDINAL="12366" NAME="?Remove@CPropertySection@@QAEXK@Z" PURGE="-1" COMMENT="" />
    <EXPORT ORDINAL="12365" NAME="?Remove@CMFCRibbonQuickAccessToolBar@@IAEXPAVCMFCRibbonBaseElement@@@Z" PURGE="-1" COMMENT="" />
    <EXPORT ORDINAL="12364" NAME="?Remove@CMFCRibbonPanel@@QAEHHH@Z" PURGE="-1" COMMENT="" />
    <EXPORT ORDINAL="12363" NAME="?Remove@CFtpConnection@@QAEHPBD@Z" PURGE="-1" COMMENT="" />
    <EXPORT ORDINAL="12362" NAME="?Remove@CFile@@SGXPBDPAVCAtlTransactionManager@ATL@@@Z" PURGE="-1" COMMENT="" />
    <EXPORT ORDINAL="12360" NAME="?Remove@?$CStringT@_WV?$StrTraitMFC_DLL@_WV?$ChTraitsCRT@_W@ATL@@@@@ATL@@QAEH_W@Z" PURGE="-1" COMMENT="" />
    <EXPORT ORDINAL="12361" NAME="?Remove@?$CStringT@DV?$StrTraitMFC_DLL@DV?$ChTraitsCRT@D@ATL@@@@@ATL@@QAEHD@Z" PURGE="-1" COMMENT="" />
    <EXPORT ORDINAL="12359" NAME="?ReloadWindowPlacement@CWinAppEx@@MAEHPAVCFrameWnd@@@Z" PURGE="-1" COMMENT="" />
    <EXPORT ORDINAL="12358" NAME="?Reload@COleClientItem@@QAEHXZ" PURGE="-1" COMMENT="" />
    <EXPORT ORDINAL="14433" NAME="?ReleaseTaskBarRefs@CWinApp@@QAEXXZ" PURGE="-1" COMMENT="" />
    <EXPORT ORDINAL="12356" NAME="?ReleaseOutputDC@CPreviewDC@@UAEXXZ" PURGE="-1" COMMENT="" />
    <EXPORT ORDINAL="12355" NAME="?ReleaseOutputDC@CMetaFileDC@@MAEXXZ" PURGE="-1" COMMENT="" />
    <EXPORT ORDINAL="12354" NAME="?ReleaseOutputDC@CDC@@UAEXXZ" PURGE="-1" COMMENT="" />
    <EXPORT ORDINAL="12353" NAME="?ReleaseObjectArray@CJumpList@@IAEXPAUIObjectArray@@H@Z" PURGE="-1" COMMENT="" />
    <EXPORT ORDINAL="12352" NAME="?ReleaseFont@CFontHolder@@QAEXXZ" PURGE="-1" COMMENT="" />
    <EXPORT ORDINAL="12351" NAME="?ReleaseFile@CDocument@@UAEXPAVCFile@@H@Z" PURGE="-1" COMMENT="" />
    <EXPORT ORDINAL="12350" NAME="?ReleaseEmptyPaneContainers@CPaneDivider@@QAEXXZ" PURGE="-1" COMMENT="" />
    <EXPORT ORDINAL="12349" NAME="?ReleaseEmptyPaneContainers@CPaneContainerManager@@QAEXXZ" PURGE="-1" COMMENT="" />
    <EXPORT ORDINAL="12348" NAME="?ReleaseEmptyPaneContainers@CDockingManager@@QAEXXZ" PURGE="-1" COMMENT="" />
    <EXPORT ORDINAL="12347" NAME="?ReleaseEmptyPaneContainer@CPaneContainer@@QAEXXZ" PURGE="-1" COMMENT="" />
    <EXPORT ORDINAL="12346" NAME="?ReleaseDocSite@CDocObjectServer@@QAEXXZ" PURGE="-1" COMMENT="" />
    <EXPORT ORDINAL="12345" NAME="?ReleaseDispatch@COleDispatchDriver@@QAEXXZ" PURGE="-1" COMMENT="" />
    <EXPORT ORDINAL="12344" NAME="?ReleaseDC@XOleIPSite@COleControlSite@@UAGJPAUHDC__@@@Z" PURGE="-1" COMMENT="" />
    <EXPORT ORDINAL="12343" NAME="?ReleaseDC@COleControl@@QAEHPAVCDC@@@Z" PURGE="-1" COMMENT="" />
    <EXPORT ORDINAL="14432" NAME="?ReleaseD2DRefs@_AFX_D2D_STATE@@QAEXXZ" PURGE="-1" COMMENT="" />
    <EXPORT ORDINAL="12341" NAME="?ReleaseCurrFolder@CMFCShellListCtrl@@IAEXXZ" PURGE="-1" COMMENT="" />
    <EXPORT ORDINAL="12340" NAME="?ReleaseCapture@COleControl@@QAEHXZ" PURGE="-1" COMMENT="" />
    <EXPORT ORDINAL="12339" NAME="?ReleaseCaches@COleControl@@IAEXXZ" PURGE="-1" COMMENT="" />
    <EXPORT ORDINAL="12337" NAME="?ReleaseBufferSetLength@?$CSimpleStringT@_W$00@ATL@@QAEXH@Z" PURGE="-1" COMMENT="" />
    <EXPORT ORDINAL="12338" NAME="?ReleaseBufferSetLength@?$CSimpleStringT@D$00@ATL@@QAEXH@Z" PURGE="-1" COMMENT="" />
    <EXPORT ORDINAL="12335" NAME="?ReleaseBuffer@?$CSimpleStringT@_W$00@ATL@@QAEXH@Z" PURGE="-1" COMMENT="" />
    <EXPORT ORDINAL="12336" NAME="?ReleaseBuffer@?$CSimpleStringT@D$00@ATL@@QAEXH@Z" PURGE="-1" COMMENT="" />
    <EXPORT ORDINAL="12334" NAME="?ReleaseAttribDC@CDC@@UAEXXZ" PURGE="-1" COMMENT="" />
    <EXPORT ORDINAL="12333" NAME="?Release@CPrintDialogEx@@UAGKXZ" PURGE="-1" COMMENT="" />
    <EXPORT ORDINAL="12332" NAME="?Release@CPaneContainer@@QAEKXZ" PURGE="-1" COMMENT="" />
    <EXPORT ORDINAL="12331" NAME="?Release@COleUILinkInfo@@UAGKXZ" PURGE="-1" COMMENT="" />
    <EXPORT ORDINAL="12330" NAME="?Release@COleDocObjectItem@@UAEXW4tagOLECLOSE@@@Z" PURGE="-1" COMMENT="" />
    <EXPORT ORDINAL="12329" NAME="?Release@COleDispatchImpl@@UAGKXZ" PURGE="-1" COMMENT="" />
    <EXPORT ORDINAL="12328" NAME="?Release@COleDataObject@@QAEXXZ" PURGE="-1" COMMENT="" />
    <EXPORT ORDINAL="12327" NAME="?Release@COleConnPtContainer@@UAGKXZ" PURGE="-1" COMMENT="" />
    <EXPORT ORDINAL="12326" NAME="?Release@COleClientItem@@UAEXW4tagOLECLOSE@@@Z" PURGE="-1" COMMENT="" />
    <EXPORT ORDINAL="12325" NAME="?Release@CInnerUnknown@@UAGKXZ" PURGE="-1" COMMENT="" />
    <EXPORT ORDINAL="12324" NAME="?Release@CDHtmlEventSink@@UAGKXZ" PURGE="-1" COMMENT="" />
    <EXPORT ORDINAL="12323" NAME="?Release@CDHtmlElementEventSink@@UAGKXZ" PURGE="-1" COMMENT="" />
    <EXPORT ORDINAL="12322" NAME="?Release@CDHtmlControlSink@@UAGKXZ" PURGE="-1" COMMENT="" />
    <EXPORT ORDINAL="12321" NAME="?Release@CBrowserControlSite@@MAGKXZ" PURGE="-1" COMMENT="" />
    <EXPORT ORDINAL="12320" NAME="?Release@CBlobProperty@@UAGKXZ" PURGE="-1" COMMENT="" />
    <EXPORT ORDINAL="12319" NAME="?Release@CArchiveStream@@UAGKXZ" PURGE="-1" COMMENT="" />
    <EXPORT ORDINAL="12318" NAME="?RegisterWithRestartManager@CWinApp@@UAEJPB_WKP6GKPAX@Z1KK@Z" PURGE="-1" COMMENT="" />
    <EXPORT ORDINAL="12317" NAME="?RegisterWithRestartManager@CWinApp@@UAEJHABV?$CStringT@DV?$StrTraitMFC_DLL@DV?$ChTraitsCRT@D@ATL@@@@@ATL@@@Z" PURGE="-1" COMMENT="" />
    <EXPORT ORDINAL="12316" NAME="?RegisterWindowClass@AFX_GLOBAL_DATA@@QAE?AV?$CStringT@DV?$StrTraitMFC_DLL@DV?$ChTraitsCRT@D@ATL@@@@@ATL@@PBD@Z" PURGE="-1" COMMENT="" />
    <EXPORT ORDINAL="12315" NAME="?RegisterTouchWindow@CWnd@@QAEHHK@Z" PURGE="-1" COMMENT="" />
    <EXPORT ORDINAL="12314" NAME="?RegisterTaskbarTab@CMDIChildWndEx@@UAEXPAV1@@Z" PURGE="-1" COMMENT="" />
    <EXPORT ORDINAL="12313" NAME="?RegisterSiteFactory@CControlSiteFactoryMgr@@QAEHPAVIControlSiteFactory@@@Z" PURGE="-1" COMMENT="" />
    <EXPORT ORDINAL="12312" NAME="?RegisterShellFileTypes@CWinApp@@IAEXH@Z" PURGE="-1" COMMENT="" />
    <EXPORT ORDINAL="12311" NAME="?RegisterShellFileTypes@CDocManager@@UAEXH@Z" PURGE="-1" COMMENT="" />
    <EXPORT ORDINAL="12310" NAME="?RegisterIfServerAttached@COleLinkingDoc@@MAEHPBDH@Z" PURGE="-1" COMMENT="" />
    <EXPORT ORDINAL="12309" NAME="?RegisterAllMDIChildrenWithTaskbar@CMDIFrameWndEx@@QAEXH@Z" PURGE="-1" COMMENT="" />
    <EXPORT ORDINAL="12308" NAME="?RegisterAll@COleObjectFactory@@SGHXZ" PURGE="-1" COMMENT="" />
    <EXPORT ORDINAL="12307" NAME="?Register@CWinApp@@UAEHXZ" PURGE="-1" COMMENT="" />
    <EXPORT ORDINAL="12306" NAME="?Register@COleTemplateServer@@UAEHXZ" PURGE="-1" COMMENT="" />
    <EXPORT ORDINAL="12305" NAME="?Register@COleObjectFactory@@UAEHXZ" PURGE="-1" COMMENT="" />
    <EXPORT ORDINAL="12304" NAME="?Register@COleMessageFilter@@QAEHXZ" PURGE="-1" COMMENT="" />
    <EXPORT ORDINAL="12303" NAME="?Register@COleLinkingDoc@@QAEHPAVCOleObjectFactory@@PBD@Z" PURGE="-1" COMMENT="" />
    <EXPORT ORDINAL="12302" NAME="?Register@COleDropTarget@@QAEHPAVCWnd@@@Z" PURGE="-1" COMMENT="" />
    <EXPORT ORDINAL="12301" NAME="?Register@CMFCToolBarDropTarget@@QAEHPAVCMFCToolBar@@@Z" PURGE="-1" COMMENT="" />
    <EXPORT ORDINAL="12300" NAME="?Register@CMFCTabDropTarget@@QAEHPAVCMFCBaseTabCtrl@@@Z" PURGE="-1" COMMENT="" />
    <EXPORT ORDINAL="12299" NAME="?RefreshRowset@CRecordset@@QAEXGG@Z" PURGE="-1" COMMENT="" />
    <EXPORT ORDINAL="12298" NAME="?RefreshLink@CDaoTableDef@@QAEXXZ" PURGE="-1" COMMENT="" />
    <EXPORT ORDINAL="12297" NAME="?Refresh@COleControl@@QAEXXZ" PURGE="-1" COMMENT="" />
    <EXPORT ORDINAL="12296" NAME="?Refresh@CMFCShellTreeCtrl@@QAEXXZ" PURGE="-1" COMMENT="" />
    <EXPORT ORDINAL="12295" NAME="?Refresh@CMFCShellListCtrl@@UAEJXZ" PURGE="-1" COMMENT="" />
    <EXPORT ORDINAL="12294" NAME="?ReflectLastMsg@CWnd@@KGHPAUHWND__@@PAJ@Z" PURGE="-1" COMMENT="" />
    <EXPORT ORDINAL="12293" NAME="?ReflectChildNotify@CWnd@@IAEHIIJPAJ@Z" PURGE="-1" COMMENT="" />
    <EXPORT ORDINAL="12292" NAME="?RedrawUnderlines@CMFCToolBar@@SGXXZ" PURGE="-1" COMMENT="" />
    <EXPORT ORDINAL="12291" NAME="?RedrawSelection@CMFCToolBarButtonsListButton@@IAEXXZ" PURGE="-1" COMMENT="" />
    <EXPORT ORDINAL="12290" NAME="?RedrawIcons@CMFCRibbonGallery@@QAEXXZ" PURGE="-1" COMMENT="" />
    <EXPORT ORDINAL="12289" NAME="?RedrawElement@CMFCRibbonPanel@@MAEXPAVCMFCRibbonBaseElement@@@Z" PURGE="-1" COMMENT="" />
    <EXPORT ORDINAL="12288" NAME="?RedrawCustomizeButton@CMFCToolBar@@IAEXXZ" PURGE="-1" COMMENT="" />
    <EXPORT ORDINAL="12287" NAME="?RedrawCaptionButton@CPaneFrameWnd@@IAEXPAVCMFCCaptionButton@@@Z" PURGE="-1" COMMENT="" />
    <EXPORT ORDINAL="12286" NAME="?RedrawCaptionButton@CFrameImpl@@IAEXPAVCMFCCaptionButtonEx@@@Z" PURGE="-1" COMMENT="" />
    <EXPORT ORDINAL="12285" NAME="?RedrawButton@CDockablePane@@IAEXPBVCMFCCaptionButton@@@Z" PURGE="-1" COMMENT="" />
    <EXPORT ORDINAL="14421" NAME="?RedrawAllMiniFrames@CDockingManager@@QAEXXZ" PURGE="-1" COMMENT="" />
    <EXPORT ORDINAL="12284" NAME="?RedrawAll@CPaneFrameWnd@@SGXXZ" PURGE="-1" COMMENT="" />
    <EXPORT ORDINAL="12283" NAME="?RedrawAll@CMFCVisualManager@@SGXXZ" PURGE="-1" COMMENT="" />
    <EXPORT ORDINAL="12282" NAME="?RedrawAll@CDockingPanesRow@@QAEXXZ" PURGE="-1" COMMENT="" />
    <EXPORT ORDINAL="12281" NAME="?Redraw@CMFCRibbonTab@@UAEXXZ" PURGE="-1" COMMENT="" />
    <EXPORT ORDINAL="12280" NAME="?Redraw@CMFCRibbonEdit@@UAEXXZ" PURGE="-1" COMMENT="" />
    <EXPORT ORDINAL="12279" NAME="?Redraw@CMFCRibbonBaseElement@@UAEXXZ" PURGE="-1" COMMENT="" />
    <EXPORT ORDINAL="12278" NAME="?Redraw@CMFCPropertyGridProperty@@QAEXXZ" PURGE="-1" COMMENT="" />
    <EXPORT ORDINAL="12277" NAME="?Redraw@CMFCPreviewCtrlImpl@@UAEXXZ" PURGE="-1" COMMENT="" />
    <EXPORT ORDINAL="12274" NAME="?Redim@COleSafeArray@@QAEXPAUtagSAFEARRAYBOUND@@@Z" PURGE="-1" COMMENT="" />
    <EXPORT ORDINAL="12273" NAME="?RectVisible@CMetaFileDC@@UBEHPBUtagRECT@@@Z" PURGE="-1" COMMENT="" />
    <EXPORT ORDINAL="12272" NAME="?RectSideFromPoint@CDockSite@@SGHABVCRect@@ABVCPoint@@@Z" PURGE="-1" COMMENT="" />
    <EXPORT ORDINAL="12270" NAME="?RecreateControlWindow@COleControl@@QAEXXZ" PURGE="-1" COMMENT="" />
    <EXPORT ORDINAL="12267" NAME="?ReceiveFromHelper@CSocket@@MAEHPAXHPAUsockaddr@@PAHH@Z" PURGE="-1" COMMENT="" />
    <EXPORT ORDINAL="12266" NAME="?ReceiveFromHelper@CAsyncSocket@@MAEHPAXHPAUsockaddr@@PAHH@Z" PURGE="-1" COMMENT="" />
    <EXPORT ORDINAL="12265" NAME="?ReceiveFrom@CAsyncSocket@@QAEHPAXHAAV?$CStringT@DV?$StrTraitMFC_DLL@DV?$ChTraitsCRT@D@ATL@@@@@ATL@@AAIH@Z" PURGE="-1" COMMENT="" />
    <EXPORT ORDINAL="12264" NAME="?Receive@CSocket@@UAEHPAXHH@Z" PURGE="-1" COMMENT="" />
    <EXPORT ORDINAL="12263" NAME="?Receive@CAsyncSocket@@UAEHPAXHH@Z" PURGE="-1" COMMENT="" />
    <EXPORT ORDINAL="12262" NAME="?RecalcWidths@CMFCRibbonPanel@@UAEXPAVCDC@@H@Z" PURGE="-1" COMMENT="" />
    <EXPORT ORDINAL="12261" NAME="?RecalcWidths@CMFCRibbonMainPanel@@MAEXPAVCDC@@H@Z" PURGE="-1" COMMENT="" />
    <EXPORT ORDINAL="12260" NAME="?RecalcPanelWidths@CMFCRibbonCategory@@IAEXPAVCDC@@@Z" PURGE="-1" COMMENT="" />
    <EXPORT ORDINAL="12259" NAME="?RecalcLayout@CSplitterWnd@@UAEXXZ" PURGE="-1" COMMENT="" />
    <EXPORT ORDINAL="12258" NAME="?RecalcLayout@CPane@@UAEXXZ" PURGE="-1" COMMENT="" />
    <EXPORT ORDINAL="12257" NAME="?RecalcLayout@COleIPFrameWndEx@@UAEXH@Z" PURGE="-1" COMMENT="" />
    <EXPORT ORDINAL="12256" NAME="?RecalcLayout@COleIPFrameWnd@@UAEXH@Z" PURGE="-1" COMMENT="" />
    <EXPORT ORDINAL="12255" NAME="?RecalcLayout@COleDocIPFrameWndEx@@UAEXH@Z" PURGE="-1" COMMENT="" />
    <EXPORT ORDINAL="12254" NAME="?RecalcLayout@COleDocIPFrameWnd@@MAEXH@Z" PURGE="-1" COMMENT="" />
    <EXPORT ORDINAL="12253" NAME="?RecalcLayout@COleCntrFrameWndEx@@UAEXH@Z" PURGE="-1" COMMENT="" />
    <EXPORT ORDINAL="12252" NAME="?RecalcLayout@COleCntrFrameWnd@@UAEXH@Z" PURGE="-1" COMMENT="" />
    <EXPORT ORDINAL="12251" NAME="?RecalcLayout@CMiniDockFrameWnd@@UAEXH@Z" PURGE="-1" COMMENT="" />
    <EXPORT ORDINAL="12250" NAME="?RecalcLayout@CMFCTasksPane@@QAEXH@Z" PURGE="-1" COMMENT="" />
    <EXPORT ORDINAL="12249" NAME="?RecalcLayout@CMFCTabCtrl@@UAEXXZ" PURGE="-1" COMMENT="" />
    <EXPORT ORDINAL="12248" NAME="?RecalcLayout@CMFCStatusBar@@MAEXXZ" PURGE="-1" COMMENT="" />
    <EXPORT ORDINAL="12247" NAME="?RecalcLayout@CMFCRibbonStatusBar@@UAEXXZ" PURGE="-1" COMMENT="" />
    <EXPORT ORDINAL="12246" NAME="?RecalcLayout@CMFCRibbonCategory@@UAEXPAVCDC@@@Z" PURGE="-1" COMMENT="" />
    <EXPORT ORDINAL="12245" NAME="?RecalcLayout@CMFCRibbonBar@@UAEXXZ" PURGE="-1" COMMENT="" />
    <EXPORT ORDINAL="12244" NAME="?RecalcLayout@CMFCPopupMenu@@UAEXH@Z" PURGE="-1" COMMENT="" />
    <EXPORT ORDINAL="12243" NAME="?RecalcLayout@CMFCOutlookBarTabCtrl@@UAEXXZ" PURGE="-1" COMMENT="" />
    <EXPORT ORDINAL="12242" NAME="?RecalcLayout@CMFCDropDownFrame@@UAEXH@Z" PURGE="-1" COMMENT="" />
    <EXPORT ORDINAL="12241" NAME="?RecalcLayout@CMFCCaptionBar@@MAEXXZ" PURGE="-1" COMMENT="" />
    <EXPORT ORDINAL="12240" NAME="?RecalcLayout@CMDIFrameWndEx@@UAEXH@Z" PURGE="-1" COMMENT="" />
    <EXPORT ORDINAL="12239" NAME="?RecalcLayout@CMDIChildWndEx@@UAEXH@Z" PURGE="-1" COMMENT="" />
    <EXPORT ORDINAL="12238" NAME="?RecalcLayout@CFrameWndEx@@UAEXH@Z" PURGE="-1" COMMENT="" />
    <EXPORT ORDINAL="12237" NAME="?RecalcLayout@CFrameWnd@@UAEXH@Z" PURGE="-1" COMMENT="" />
    <EXPORT ORDINAL="12236" NAME="?RecalcLayout@CDockingManager@@UAEXH@Z" PURGE="-1" COMMENT="" />
    <EXPORT ORDINAL="12235" NAME="?RecalcLayout@CBaseTabbedPane@@UAEXXZ" PURGE="-1" COMMENT="" />
    <EXPORT ORDINAL="12234" NAME="?RecalcDelayShow@CControlBar@@UAEKPAUAFX_SIZEPARENTPARAMS@@@Z" PURGE="-1" COMMENT="" />
    <EXPORT ORDINAL="12233" NAME="?RecalcCaptionHeight@CPaneFrameWnd@@MAEXXZ" PURGE="-1" COMMENT="" />
    <EXPORT ORDINAL="12232" NAME="?RebuildToolBar@CMFCOutlookBarTabCtrl@@IAEXXZ" PURGE="-1" COMMENT="" />
    <EXPORT ORDINAL="12231" NAME="?RebuildPalette@CMFCColorDialog@@IAEXXZ" PURGE="-1" COMMENT="" />
    <EXPORT ORDINAL="12230" NAME="?RebuildPalette@CMFCColorButton@@IAEXPAVCPalette@@@Z" PURGE="-1" COMMENT="" />
    <EXPORT ORDINAL="12229" NAME="?RebuildMenu@CMFCTasksPane@@IAEXXZ" PURGE="-1" COMMENT="" />
    <EXPORT ORDINAL="12228" NAME="?RebuildLocations@CMFCToolBarButtonsListButton@@IAEXXZ" PURGE="-1" COMMENT="" />
    <EXPORT ORDINAL="12227" NAME="?RebuildKeys@CMFCRibbonQuickAccessToolBar@@IAEXXZ" PURGE="-1" COMMENT="" />
    <EXPORT ORDINAL="12226" NAME="?RebuildImageList@CMFCToolBarButtonCustomizeDialog@@IAEXXZ" PURGE="-1" COMMENT="" />
    <EXPORT ORDINAL="12225" NAME="?RebuildIconLocations@CMFCRibbonGallery@@IAEXXZ" PURGE="-1" COMMENT="" />
    <EXPORT ORDINAL="12224" NAME="?RebuildHiddenItems@CMFCRibbonQuickAccessToolBar@@IAEXXZ" PURGE="-1" COMMENT="" />
    <EXPORT ORDINAL="12222" NAME="?RebuildFonts@CMFCToolBarFontComboBox@@IAEXXZ" PURGE="-1" COMMENT="" />
    <EXPORT ORDINAL="12221" NAME="?RebuildFonts@CMFCRibbonFontComboBox@@QAEXXZ" PURGE="-1" COMMENT="" />
    <EXPORT ORDINAL="12223" NAME="?RebuildFontSizes@CMFCToolBarFontSizeComboBox@@QAEXABV?$CStringT@DV?$StrTraitMFC_DLL@DV?$ChTraitsCRT@D@ATL@@@@@ATL@@@Z" PURGE="-1" COMMENT="" />
    <EXPORT ORDINAL="12220" NAME="?RebuildAccelerationKeys@CMFCToolBar@@IAEXXZ" PURGE="-1" COMMENT="" />
    <EXPORT ORDINAL="12219" NAME="?Rebuild@CMFCColorBar@@MAEXXZ" PURGE="-1" COMMENT="" />
    <EXPORT ORDINAL="12218" NAME="?RebindParams@CRecordset@@QAEXPAX@Z" PURGE="-1" COMMENT="" />
    <EXPORT ORDINAL="12216" NAME="?Reallocate@CAfxStringMgr@@UAEPAUCStringData@ATL@@PAU23@HH@Z" PURGE="-1" COMMENT="" />
    <EXPORT ORDINAL="12214" NAME="?Reallocate@?$CSimpleStringT@_W$00@ATL@@AAEXH@Z" PURGE="-1" COMMENT="" />
    <EXPORT ORDINAL="12215" NAME="?Reallocate@?$CSimpleStringT@D$00@ATL@@AAEXH@Z" PURGE="-1" COMMENT="" />
    <EXPORT ORDINAL="12217" NAME="?ReallocLongBinary@CFieldExchange@@QAEPAEAAVCLongBinary@@JJ@Z" PURGE="-1" COMMENT="" />
    <EXPORT ORDINAL="12213" NAME="?Realloc@CSharedFile@@MAEPAEPAEK@Z" PURGE="-1" COMMENT="" />
    <EXPORT ORDINAL="12212" NAME="?Realloc@CMemFile@@MAEPAEPAEK@Z" PURGE="-1" COMMENT="" />
    <EXPORT ORDINAL="12211" NAME="?ReadUInt@XRibbonInfoParser@CMFCRibbonInfo@@UAEHABV?$CStringT@DV?$StrTraitMFC_DLL@DV?$ChTraitsCRT@D@ATL@@@@@ATL@@AAI@Z" PURGE="-1" COMMENT="" />
    <EXPORT ORDINAL="12210" NAME="?ReadToolTipInfo@CTagManager@@QAEHABV?$CStringT@DV?$StrTraitMFC_DLL@DV?$ChTraitsCRT@D@ATL@@@@@ATL@@AAVCMFCToolTipInfo@@@Z" PURGE="-1" COMMENT="" />
    <EXPORT ORDINAL="12209" NAME="?ReadToolBarImages@CTagManager@@QAEHABV?$CStringT@DV?$StrTraitMFC_DLL@DV?$ChTraitsCRT@D@ATL@@@@@ATL@@AAVCMFCToolBarImages@@PBD@Z" PURGE="-1" COMMENT="" />
    <EXPORT ORDINAL="12208" NAME="?ReadToolBarImages@CTagManager@@QAEHABV?$CStringT@DV?$StrTraitMFC_DLL@DV?$ChTraitsCRT@D@ATL@@@@@ATL@@AAVCMFCToolBarImages@@I@Z" PURGE="-1" COMMENT="" />
    <EXPORT ORDINAL="12207" NAME="?ReadString@CStdioFile@@UAEPADPADI@Z" PURGE="-1" COMMENT="" />
    <EXPORT ORDINAL="12206" NAME="?ReadString@CStdioFile@@UAEHAAV?$CStringT@DV?$StrTraitMFC_DLL@DV?$ChTraitsCRT@D@ATL@@@@@ATL@@@Z" PURGE="-1" COMMENT="" />
    <EXPORT ORDINAL="12205" NAME="?ReadString@CInternetFile@@UAEPADPADI@Z" PURGE="-1" COMMENT="" />
    <EXPORT ORDINAL="12204" NAME="?ReadString@CInternetFile@@UAEHAAV?$CStringT@DV?$StrTraitMFC_DLL@DV?$ChTraitsCRT@D@ATL@@@@@ATL@@@Z" PURGE="-1" COMMENT="" />
    <EXPORT ORDINAL="12203" NAME="?ReadString@CArchive@@QAEPADPADI@Z" PURGE="-1" COMMENT="" />
    <EXPORT ORDINAL="12202" NAME="?ReadString@CArchive@@QAEHAAV?$CStringT@DV?$StrTraitMFC_DLL@DV?$ChTraitsCRT@D@ATL@@@@@ATL@@@Z" PURGE="-1" COMMENT="" />
    <EXPORT ORDINAL="12201" NAME="?ReadSize@XRibbonInfoParser@CMFCRibbonInfo@@UAEHABV?$CStringT@DV?$StrTraitMFC_DLL@DV?$ChTraitsCRT@D@ATL@@@@@ATL@@AAVCSize@@@Z" PURGE="-1" COMMENT="" />
    <EXPORT ORDINAL="12200" NAME="?ReadSize@CTagManager@@QAEHABV?$CStringT@DV?$StrTraitMFC_DLL@DV?$ChTraitsCRT@D@ATL@@@@@ATL@@AAVCSize@@@Z" PURGE="-1" COMMENT="" />
    <EXPORT ORDINAL="12199" NAME="?ReadRect@CTagManager@@QAEHABV?$CStringT@DV?$StrTraitMFC_DLL@DV?$ChTraitsCRT@D@ATL@@@@@ATL@@AAVCRect@@@Z" PURGE="-1" COMMENT="" />
    <EXPORT ORDINAL="12198" NAME="?ReadPoint@CTagManager@@QAEHABV?$CStringT@DV?$StrTraitMFC_DLL@DV?$ChTraitsCRT@D@ATL@@@@@ATL@@AAVCPoint@@@Z" PURGE="-1" COMMENT="" />
    <EXPORT ORDINAL="12197" NAME="?ReadOpenDocumentList@CDataRecoveryHandler@@UAEHXZ" PURGE="-1" COMMENT="" />
    <EXPORT ORDINAL="12196" NAME="?ReadObject@CArchive@@QAEPAVCObject@@PBUCRuntimeClass@@@Z" PURGE="-1" COMMENT="" />
    <EXPORT ORDINAL="12195" NAME="?ReadNextChunkValue@CDocument@@UAEHPAPAUIFilterChunkValue@ATL@@@Z" PURGE="-1" COMMENT="" />
    <EXPORT ORDINAL="12194" NAME="?ReadNameDictFromStream@CPropertySection@@QAEHPAUIStream@@@Z" PURGE="-1" COMMENT="" />
    <EXPORT ORDINAL="12193" NAME="?ReadList@CRecentFileList@@UAEXXZ" PURGE="-1" COMMENT="" />
    <EXPORT ORDINAL="12192" NAME="?ReadItemFlat@COleClientItem@@QAEXAAVCArchive@@@Z" PURGE="-1" COMMENT="" />
    <EXPORT ORDINAL="12191" NAME="?ReadItemCompound@COleClientItem@@QAEXAAVCArchive@@@Z" PURGE="-1" COMMENT="" />
    <EXPORT ORDINAL="12190" NAME="?ReadItem@COleClientItem@@UAEXAAVCArchive@@@Z" PURGE="-1" COMMENT="" />
    <EXPORT ORDINAL="12189" NAME="?ReadInt@XRibbonInfoParser@CMFCRibbonInfo@@UAEHABV?$CStringT@DV?$StrTraitMFC_DLL@DV?$ChTraitsCRT@D@ATL@@@@@ATL@@AAH@Z" PURGE="-1" COMMENT="" />
    <EXPORT ORDINAL="12188" NAME="?ReadInt@CTagManager@@QAEHABV?$CStringT@DV?$StrTraitMFC_DLL@DV?$ChTraitsCRT@D@ATL@@@@@ATL@@AAH@Z" PURGE="-1" COMMENT="" />
    <EXPORT ORDINAL="12187" NAME="?ReadFromStream@CPropertySet@@QAEHPAUIStream@@@Z" PURGE="-1" COMMENT="" />
    <EXPORT ORDINAL="12186" NAME="?ReadFromStream@CPropertySection@@QAEHPAUIStream@@T_LARGE_INTEGER@@@Z" PURGE="-1" COMMENT="" />
    <EXPORT ORDINAL="12185" NAME="?ReadFromStream@CProperty@@QAEHPAUIStream@@@Z" PURGE="-1" COMMENT="" />
    <EXPORT ORDINAL="12184" NAME="?ReadFromArchive@CEditView@@QAEXAAVCArchive@@I@Z" PURGE="-1" COMMENT="" />
    <EXPORT ORDINAL="12183" NAME="?ReadFont@CTagManager@@QAEHABV?$CStringT@DV?$StrTraitMFC_DLL@DV?$ChTraitsCRT@D@ATL@@@@@ATL@@AAUtagLOGFONTA@@@Z" PURGE="-1" COMMENT="" />
    <EXPORT ORDINAL="12182" NAME="?ReadCount@CArchive@@QAEKXZ" PURGE="-1" COMMENT="" />
    <EXPORT ORDINAL="12181" NAME="?ReadControlRendererInfo@CTagManager@@QAEHABV?$CStringT@DV?$StrTraitMFC_DLL@DV?$ChTraitsCRT@D@ATL@@@@@ATL@@AAVCMFCControlRendererInfo@@@Z" PURGE="-1" COMMENT="" />
    <EXPORT ORDINAL="12180" NAME="?ReadControlRenderer@CTagManager@@QAEHABV?$CStringT@DV?$StrTraitMFC_DLL@DV?$ChTraitsCRT@D@ATL@@@@@ATL@@AAVCMFCControlRenderer@@PBD@Z" PURGE="-1" COMMENT="" />
    <EXPORT ORDINAL="12179" NAME="?ReadControlRenderer@CTagManager@@QAEHABV?$CStringT@DV?$StrTraitMFC_DLL@DV?$ChTraitsCRT@D@ATL@@@@@ATL@@AAVCMFCControlRenderer@@I@Z" PURGE="-1" COMMENT="" />
    <EXPORT ORDINAL="12178" NAME="?ReadColor@XRibbonInfoParser@CMFCRibbonInfo@@UAEHABV?$CStringT@DV?$StrTraitMFC_DLL@DV?$ChTraitsCRT@D@ATL@@@@@ATL@@AAK@Z" PURGE="-1" COMMENT="" />
    <EXPORT ORDINAL="12177" NAME="?ReadColor@CTagManager@@QAEHABV?$CStringT@DV?$StrTraitMFC_DLL@DV?$ChTraitsCRT@D@ATL@@@@@ATL@@AAK@Z" PURGE="-1" COMMENT="" />
    <EXPORT ORDINAL="12176" NAME="?ReadClass@CArchive@@QAEPAUCRuntimeClass@@PBU2@PAIPAK@Z" PURGE="-1" COMMENT="" />
    <EXPORT ORDINAL="14431" NAME="?ReadBoolProp@@YGHAAVCTagManager@@PBDAAH@Z" PURGE="-1" COMMENT="" />
    <EXPORT ORDINAL="12174" NAME="?ReadBool@XRibbonInfoParser@CMFCRibbonInfo@@UAEHABV?$CStringT@DV?$StrTraitMFC_DLL@DV?$ChTraitsCRT@D@ATL@@@@@ATL@@AAH@Z" PURGE="-1" COMMENT="" />
    <EXPORT ORDINAL="12173" NAME="?ReadBool@CTagManager@@QAEHABV?$CStringT@DV?$StrTraitMFC_DLL@DV?$ChTraitsCRT@D@ATL@@@@@ATL@@AAH@Z" PURGE="-1" COMMENT="" />
    <EXPORT ORDINAL="12172" NAME="?Read@XRibbonBar@CMFCRibbonInfo@@UAEHAAVXRibbonInfoParser@2@@Z" PURGE="-1" COMMENT="" />
    <EXPORT ORDINAL="12171" NAME="?Read@XQATItem@XQAT@CMFCRibbonInfo@@QAEHAAVXRibbonInfoParser@3@@Z" PURGE="-1" COMMENT="" />
    <EXPORT ORDINAL="12170" NAME="?Read@XQAT@CMFCRibbonInfo@@UAEHAAVXRibbonInfoParser@2@@Z" PURGE="-1" COMMENT="" />
    <EXPORT ORDINAL="12169" NAME="?Read@XPanel@CMFCRibbonInfo@@UAEHAAVXRibbonInfoParser@2@@Z" PURGE="-1" COMMENT="" />
    <EXPORT ORDINAL="12168" NAME="?Read@XImage@CMFCRibbonInfo@@QAEHAAVXRibbonInfoParser@2@@Z" PURGE="-1" COMMENT="" />
    <EXPORT ORDINAL="12167" NAME="?Read@XID@CMFCRibbonInfo@@QAEHAAVXRibbonInfoParser@2@@Z" PURGE="-1" COMMENT="" />
    <EXPORT ORDINAL="12166" NAME="?Read@XGalleryGroup@XElementButtonGallery@CMFCRibbonInfo@@QAEHAAVXRibbonInfoParser@3@@Z" PURGE="-1" COMMENT="" />
    <EXPORT ORDINAL="12165" NAME="?Read@XElementSlider@CMFCRibbonInfo@@UAEHAAVXRibbonInfoParser@2@@Z" PURGE="-1" COMMENT="" />
    <EXPORT ORDINAL="12164" NAME="?Read@XElementSeparator@CMFCRibbonInfo@@UAEHAAVXRibbonInfoParser@2@@Z" PURGE="-1" COMMENT="" />
    <EXPORT ORDINAL="12163" NAME="?Read@XElementProgressBar@CMFCRibbonInfo@@UAEHAAVXRibbonInfoParser@2@@Z" PURGE="-1" COMMENT="" />
    <EXPORT ORDINAL="12162" NAME="?Read@XElementLabel@CMFCRibbonInfo@@UAEHAAVXRibbonInfoParser@2@@Z" PURGE="-1" COMMENT="" />
    <EXPORT ORDINAL="12161" NAME="?Read@XElementGroup@CMFCRibbonInfo@@UAEHAAVXRibbonInfoParser@2@@Z" PURGE="-1" COMMENT="" />
    <EXPORT ORDINAL="12160" NAME="?Read@XElementFontComboBox@CMFCRibbonInfo@@UAEHAAVXRibbonInfoParser@2@@Z" PURGE="-1" COMMENT="" />
    <EXPORT ORDINAL="12159" NAME="?Read@XElementEdit@CMFCRibbonInfo@@UAEHAAVXRibbonInfoParser@2@@Z" PURGE="-1" COMMENT="" />
    <EXPORT ORDINAL="12158" NAME="?Read@XElementComboBox@CMFCRibbonInfo@@UAEHAAVXRibbonInfoParser@2@@Z" PURGE="-1" COMMENT="" />
    <EXPORT ORDINAL="12157" NAME="?Read@XElementButtonUndo@CMFCRibbonInfo@@UAEHAAVXRibbonInfoParser@2@@Z" PURGE="-1" COMMENT="" />
    <EXPORT ORDINAL="12156" NAME="?Read@XElementButtonMainPanel@CMFCRibbonInfo@@UAEHAAVXRibbonInfoParser@2@@Z" PURGE="-1" COMMENT="" />
    <EXPORT ORDINAL="12155" NAME="?Read@XElementButtonLinkCtrl@CMFCRibbonInfo@@UAEHAAVXRibbonInfoParser@2@@Z" PURGE="-1" COMMENT="" />
    <EXPORT ORDINAL="12154" NAME="?Read@XElementButtonLaunch@CMFCRibbonInfo@@UAEHAAVXRibbonInfoParser@2@@Z" PURGE="-1" COMMENT="" />
    <EXPORT ORDINAL="12153" NAME="?Read@XElementButtonGallery@CMFCRibbonInfo@@UAEHAAVXRibbonInfoParser@2@@Z" PURGE="-1" COMMENT="" />
    <EXPORT ORDINAL="12152" NAME="?Read@XElementButtonColor@CMFCRibbonInfo@@UAEHAAVXRibbonInfoParser@2@@Z" PURGE="-1" COMMENT="" />
    <EXPORT ORDINAL="12151" NAME="?Read@XElementButtonCheck@CMFCRibbonInfo@@UAEHAAVXRibbonInfoParser@2@@Z" PURGE="-1" COMMENT="" />
    <EXPORT ORDINAL="12150" NAME="?Read@XElementButtonApplication@CMFCRibbonInfo@@UAEHAAVXRibbonInfoParser@2@@Z" PURGE="-1" COMMENT="" />
    <EXPORT ORDINAL="12149" NAME="?Read@XElementButton@CMFCRibbonInfo@@UAEHAAVXRibbonInfoParser@2@@Z" PURGE="-1" COMMENT="" />
    <EXPORT ORDINAL="12148" NAME="?Read@XElement@CMFCRibbonInfo@@UAEHAAVXRibbonInfoParser@2@@Z" PURGE="-1" COMMENT="" />
    <EXPORT ORDINAL="12147" NAME="?Read@XContext@CMFCRibbonInfo@@UAEHAAVXRibbonInfoParser@2@@Z" PURGE="-1" COMMENT="" />
    <EXPORT ORDINAL="12146" NAME="?Read@XCategoryMain@CMFCRibbonInfo@@UAEHAAVXRibbonInfoParser@2@@Z" PURGE="-1" COMMENT="" />
    <EXPORT ORDINAL="12145" NAME="?Read@XCategory@CMFCRibbonInfo@@UAEHAAVXRibbonInfoParser@2@@Z" PURGE="-1" COMMENT="" />
    <EXPORT ORDINAL="12144" NAME="?Read@CStdioFile@@UAEIPAXI@Z" PURGE="-1" COMMENT="" />
    <EXPORT ORDINAL="12143" NAME="?Read@CSocketFile@@UAEIPAXI@Z" PURGE="-1" COMMENT="" />
    <EXPORT ORDINAL="12142" NAME="?Read@CSettingsStore@@UAEHPBDPAPAEPAI@Z" PURGE="-1" COMMENT="" />
    <EXPORT ORDINAL="12141" NAME="?Read@CSettingsStore@@UAEHPBDAAVCRect@@@Z" PURGE="-1" COMMENT="" />
    <EXPORT ORDINAL="12140" NAME="?Read@CSettingsStore@@UAEHPBDAAVCObject@@@Z" PURGE="-1" COMMENT="" />
    <EXPORT ORDINAL="12139" NAME="?Read@CSettingsStore@@UAEHPBDAAV?$CStringT@DV?$StrTraitMFC_DLL@DV?$ChTraitsCRT@D@ATL@@@@@ATL@@@Z" PURGE="-1" COMMENT="" />
    <EXPORT ORDINAL="12138" NAME="?Read@CSettingsStore@@UAEHPBDAAPAVCObject@@@Z" PURGE="-1" COMMENT="" />
    <EXPORT ORDINAL="12137" NAME="?Read@CSettingsStore@@UAEHPBDAAK@Z" PURGE="-1" COMMENT="" />
    <EXPORT ORDINAL="12136" NAME="?Read@CSettingsStore@@UAEHPBDAAH@Z" PURGE="-1" COMMENT="" />
    <EXPORT ORDINAL="12135" NAME="?Read@COleStreamFile@@UAEIPAXI@Z" PURGE="-1" COMMENT="" />
    <EXPORT ORDINAL="12131" NAME="?Read@CMemFile@@UAEIPAXI@Z" PURGE="-1" COMMENT="" />
    <EXPORT ORDINAL="12134" NAME="?Read@CMFCRibbonInfo@@UAEHPAUIStream@@@Z" PURGE="-1" COMMENT="" />
    <EXPORT ORDINAL="12133" NAME="?Read@CMFCRibbonInfo@@UAEHPAEI@Z" PURGE="-1" COMMENT="" />
    <EXPORT ORDINAL="12132" NAME="?Read@CMFCRibbonInfo@@MAEHAAVXRibbonInfoParser@1@@Z" PURGE="-1" COMMENT="" />
    <EXPORT ORDINAL="12130" NAME="?Read@CInternetFile@@UAEIPAXI@Z" PURGE="-1" COMMENT="" />
    <EXPORT ORDINAL="12129" NAME="?Read@CImageList@@QAEHPAVCArchive@@@Z" PURGE="-1" COMMENT="" />
    <EXPORT ORDINAL="12128" NAME="?Read@CFile@@UAEIPAXI@Z" PURGE="-1" COMMENT="" />
    <EXPORT ORDINAL="12127" NAME="?Read@CAsyncMonikerFile@@UAEIPAXI@Z" PURGE="-1" COMMENT="" />
    <EXPORT ORDINAL="12126" NAME="?Read@CArchiveStream@@UAGJPAXKPAK@Z" PURGE="-1" COMMENT="" />
    <EXPORT ORDINAL="12125" NAME="?Read@CArchive@@QAEIPAXI@Z" PURGE="-1" COMMENT="" />
    <EXPORT ORDINAL="12124" NAME="?ReactivateAndUndo@XOleInPlaceObject@COleServerDoc@@UAGJXZ" PURGE="-1" COMMENT="" />
    <EXPORT ORDINAL="12123" NAME="?ReactivateAndUndo@XOleInPlaceObject@COleControl@@UAGJXZ" PURGE="-1" COMMENT="" />
    <EXPORT ORDINAL="12122" NAME="?ReactivateAndUndo@COleClientItem@@QAEHXZ" PURGE="-1" COMMENT="" />
    <EXPORT ORDINAL="12654" NAME="?ReSubclassControl@CMFCControlContainer@@QAEHPAUHWND__@@GAAVCWnd@@@Z" PURGE="-1" COMMENT="" />
    <EXPORT ORDINAL="12276" NAME="?ReDockControlBar@CFrameWnd@@QAEXPAVCControlBar@@PAVCDockBar@@PBUtagRECT@@@Z" PURGE="-1" COMMENT="" />
    <EXPORT ORDINAL="12275" NAME="?ReDockControlBar@CDockBar@@QAEXPAVCControlBar@@PBUtagRECT@@@Z" PURGE="-1" COMMENT="" />
    <EXPORT ORDINAL="12269" NAME="?ReCreate@CHwndRenderTarget@@QAEHPAUHWND__@@@Z" PURGE="-1" COMMENT="" />
    <EXPORT ORDINAL="12268" NAME="?ReCreate@CD2DResource@@MAEJPAVCRenderTarget@@@Z" PURGE="-1" COMMENT="" />
    <EXPORT ORDINAL="12692" NAME="?RGBtoHSV@CDrawingManager@@SGXKPAN00@Z" PURGE="-1" COMMENT="" />
    <EXPORT ORDINAL="12691" NAME="?RGBtoHSL@CDrawingManager@@SGXKPAN00@Z" PURGE="-1" COMMENT="" />
    <EXPORT ORDINAL="12689" NAME="?RFX_Text_Bulk@@YGXPAVCFieldExchange@@PBDPAPA_WPAPAJH@Z" PURGE="-1" COMMENT="" />
    <EXPORT ORDINAL="12690" NAME="?RFX_Text_Bulk@@YGXPAVCFieldExchange@@PBDPAPADPAPAJH@Z" PURGE="-1" COMMENT="" />
    <EXPORT ORDINAL="12687" NAME="?RFX_Text@@YGXPAVCFieldExchange@@PBDPA_WHHF@Z" PURGE="-1" COMMENT="" />
    <EXPORT ORDINAL="12688" NAME="?RFX_Text@@YGXPAVCFieldExchange@@PBDPADHHF@Z" PURGE="-1" COMMENT="" />
    <EXPORT ORDINAL="12685" NAME="?RFX_Text@@YGXPAVCFieldExchange@@PBDAAV?$CStringT@_WV?$StrTraitMFC_DLL@_WV?$ChTraitsCRT@_W@ATL@@@@@ATL@@HHF@Z" PURGE="-1" COMMENT="" />
    <EXPORT ORDINAL="12686" NAME="?RFX_Text@@YGXPAVCFieldExchange@@PBDAAV?$CStringT@DV?$StrTraitMFC_DLL@DV?$ChTraitsCRT@D@ATL@@@@@ATL@@HHF@Z" PURGE="-1" COMMENT="" />
    <EXPORT ORDINAL="12684" NAME="?RFX_Single_Bulk@@YGXPAVCFieldExchange@@PBDPAPAMPAPAJ@Z" PURGE="-1" COMMENT="" />
    <EXPORT ORDINAL="12683" NAME="?RFX_Single@@YGXPAVCFieldExchange@@PBDAAM@Z" PURGE="-1" COMMENT="" />
    <EXPORT ORDINAL="12681" NAME="?RFX_Long_Bulk@@YGXPAVCFieldExchange@@PBDPAPAJ2@Z" PURGE="-1" COMMENT="" />
    <EXPORT ORDINAL="12682" NAME="?RFX_LongBinary@@YGXPAVCFieldExchange@@PBDAAVCLongBinary@@@Z" PURGE="-1" COMMENT="" />
    <EXPORT ORDINAL="12680" NAME="?RFX_Long@@YGXPAVCFieldExchange@@PBDAAJ@Z" PURGE="-1" COMMENT="" />
    <EXPORT ORDINAL="12679" NAME="?RFX_Int_Bulk@@YGXPAVCFieldExchange@@PBDPAPAHPAPAJ@Z" PURGE="-1" COMMENT="" />
    <EXPORT ORDINAL="12678" NAME="?RFX_Int@@YGXPAVCFieldExchange@@PBDAAH@Z" PURGE="-1" COMMENT="" />
    <EXPORT ORDINAL="12677" NAME="?RFX_Double_Bulk@@YGXPAVCFieldExchange@@PBDPAPANPAPAJ@Z" PURGE="-1" COMMENT="" />
    <EXPORT ORDINAL="12676" NAME="?RFX_Double@@YGXPAVCFieldExchange@@PBDAAN@Z" PURGE="-1" COMMENT="" />
    <EXPORT ORDINAL="12675" NAME="?RFX_Date_Bulk@@YGXPAVCFieldExchange@@PBDPAPAUtagTIMESTAMP_STRUCT@@PAPAJ@Z" PURGE="-1" COMMENT="" />
    <EXPORT ORDINAL="12674" NAME="?RFX_Date@@YGXPAVCFieldExchange@@PBDAAVCTime@ATL@@@Z" PURGE="-1" COMMENT="" />
    <EXPORT ORDINAL="12673" NAME="?RFX_Date@@YGXPAVCFieldExchange@@PBDAAVCOleDateTime@ATL@@@Z" PURGE="-1" COMMENT="" />
    <EXPORT ORDINAL="12672" NAME="?RFX_Date@@YGXPAVCFieldExchange@@PBDAAUtagTIMESTAMP_STRUCT@@@Z" PURGE="-1" COMMENT="" />
    <EXPORT ORDINAL="12671" NAME="?RFX_Byte_Bulk@@YGXPAVCFieldExchange@@PBDPAPAEPAPAJ@Z" PURGE="-1" COMMENT="" />
    <EXPORT ORDINAL="12670" NAME="?RFX_Byte@@YGXPAVCFieldExchange@@PBDAAE@Z" PURGE="-1" COMMENT="" />
    <EXPORT ORDINAL="12669" NAME="?RFX_Bool_Bulk@@YGXPAVCFieldExchange@@PBDPAPAHPAPAJ@Z" PURGE="-1" COMMENT="" />
    <EXPORT ORDINAL="12668" NAME="?RFX_Bool@@YGXPAVCFieldExchange@@PBDAAH@Z" PURGE="-1" COMMENT="" />
    <EXPORT ORDINAL="12667" NAME="?RFX_Binary_Bulk@@YGXPAVCFieldExchange@@PBDPAPAEPAPAJH@Z" PURGE="-1" COMMENT="" />
    <EXPORT ORDINAL="12666" NAME="?RFX_Binary@@YGXPAVCFieldExchange@@PBDAAVCByteArray@@H@Z" PURGE="-1" COMMENT="" />
    <EXPORT ORDINAL="12665" NAME="?RFX_BigInt@@YGXPAVCFieldExchange@@PBDAA_J@Z" PURGE="-1" COMMENT="" />
    <EXPORT ORDINAL="12121" NAME="?QuickActivate@XQuickActivate@COleControl@@UAGJPAUtagQACONTAINER@@PAUtagQACONTROL@@@Z" PURGE="-1" COMMENT="" />
    <EXPORT ORDINAL="12120" NAME="?QuickActivate@COleControlSite@@UAEHXZ" PURGE="-1" COMMENT="" />
    <EXPORT ORDINAL="12119" NAME="?QueryTextMetrics@CFontHolder@@QAEXPAUtagTEXTMETRICA@@@Z" PURGE="-1" COMMENT="" />
    <EXPORT ORDINAL="12118" NAME="?QueryStatusWB@CHtmlView@@QBE?AW4OLECMDF@@W4OLECMDID@@@Z" PURGE="-1" COMMENT="" />
    <EXPORT ORDINAL="12117" NAME="?QueryStatus@XOleCommandTarget@COleFrameHook@@UAGJPBU_GUID@@KQAU_tagOLECMD@@PAU_tagOLECMDTEXT@@@Z" PURGE="-1" COMMENT="" />
    <EXPORT ORDINAL="12116" NAME="?QueryStatus@XOleCommandTarget@CDocObjectServer@@UAGJPBU_GUID@@KQAU_tagOLECMD@@PAU_tagOLECMDTEXT@@@Z" PURGE="-1" COMMENT="" />
    <EXPORT ORDINAL="12115" NAME="?QuerySinkInterface@XEventConnPt@COleControl@@UAEJPAUIUnknown@@PAPAX@Z" PURGE="-1" COMMENT="" />
    <EXPORT ORDINAL="12114" NAME="?QuerySinkInterface@CConnectionPoint@@UAEJPAUIUnknown@@PAPAX@Z" PURGE="-1" COMMENT="" />
    <EXPORT ORDINAL="12113" NAME="?QuerySiblings@CPropertyPage@@QAEJIJ@Z" PURGE="-1" COMMENT="" />
    <EXPORT ORDINAL="12112" NAME="?QueryRestoreAutosavedDocuments@CDataRecoveryHandler@@UAEXXZ" PURGE="-1" COMMENT="" />
    <EXPORT ORDINAL="12111" NAME="?QueryOption@CInternetSession@@QBEHKPAXPAK@Z" PURGE="-1" COMMENT="" />
    <EXPORT ORDINAL="12110" NAME="?QueryOption@CInternetSession@@QBEHKAAK@Z" PURGE="-1" COMMENT="" />
    <EXPORT ORDINAL="12109" NAME="?QueryOption@CInternetFile@@QBEHKPAXPAK@Z" PURGE="-1" COMMENT="" />
    <EXPORT ORDINAL="12108" NAME="?QueryOption@CInternetFile@@QBEHKAAK@Z" PURGE="-1" COMMENT="" />
    <EXPORT ORDINAL="12107" NAME="?QueryOption@CInternetConnection@@QBEHKPAXPAK@Z" PURGE="-1" COMMENT="" />
    <EXPORT ORDINAL="12106" NAME="?QueryOption@CInternetConnection@@QBEHKAAK@Z" PURGE="-1" COMMENT="" />
    <EXPORT ORDINAL="12105" NAME="?QueryInterface@CPrintDialogEx@@UAGJABU_GUID@@PAPAX@Z" PURGE="-1" COMMENT="" />
    <EXPORT ORDINAL="12104" NAME="?QueryInterface@COleUILinkInfo@@UAGJABU_GUID@@PAPAX@Z" PURGE="-1" COMMENT="" />
    <EXPORT ORDINAL="12103" NAME="?QueryInterface@COleDispatchImpl@@UAGJABU_GUID@@PAPAX@Z" PURGE="-1" COMMENT="" />
    <EXPORT ORDINAL="12102" NAME="?QueryInterface@COleConnPtContainer@@UAGJABU_GUID@@PAPAX@Z" PURGE="-1" COMMENT="" />
    <EXPORT ORDINAL="12101" NAME="?QueryInterface@CInnerUnknown@@UAGJABU_GUID@@PAPAX@Z" PURGE="-1" COMMENT="" />
    <EXPORT ORDINAL="12100" NAME="?QueryInterface@CDHtmlElementEventSink@@UAGJABU_GUID@@PAPAX@Z" PURGE="-1" COMMENT="" />
    <EXPORT ORDINAL="12099" NAME="?QueryInterface@CDHtmlControlSink@@UAGJABU_GUID@@PAPAX@Z" PURGE="-1" COMMENT="" />
    <EXPORT ORDINAL="12098" NAME="?QueryInterface@CBrowserControlSite@@MAGJABU_GUID@@PAPAX@Z" PURGE="-1" COMMENT="" />
    <EXPORT ORDINAL="12097" NAME="?QueryInterface@CBlobProperty@@UAGJABU_GUID@@PAPAX@Z" PURGE="-1" COMMENT="" />
    <EXPORT ORDINAL="12096" NAME="?QueryInterface@CArchiveStream@@UAGJABU_GUID@@PAPAX@Z" PURGE="-1" COMMENT="" />
    <EXPORT ORDINAL="12095" NAME="?QueryInsertObject@XRichEditOleCallback@CRichEditView@@UAGJPAU_GUID@@PAUIStorage@@J@Z" PURGE="-1" COMMENT="" />
    <EXPORT ORDINAL="12094" NAME="?QueryInfoStatusCode@CHttpFile@@QBEHAAK@Z" PURGE="-1" COMMENT="" />
    <EXPORT ORDINAL="12093" NAME="?QueryInfo@CHttpFile@@QBEHKPAXPAK1@Z" PURGE="-1" COMMENT="" />
    <EXPORT ORDINAL="12092" NAME="?QueryInfo@CHttpFile@@QBEHKPAU_SYSTEMTIME@@PAK@Z" PURGE="-1" COMMENT="" />
    <EXPORT ORDINAL="12091" NAME="?QueryInfo@CHttpFile@@QBEHKAAV?$CStringT@DV?$StrTraitMFC_DLL@DV?$ChTraitsCRT@D@ATL@@@@@ATL@@PAK@Z" PURGE="-1" COMMENT="" />
    <EXPORT ORDINAL="12090" NAME="?QueryInfo@CHttpFile@@QBEHKAAKPAK@Z" PURGE="-1" COMMENT="" />
    <EXPORT ORDINAL="12089" NAME="?QueryHitRect@XViewObject@COleControl@@UAGJKPBUtagRECT@@0JPAK@Z" PURGE="-1" COMMENT="" />
    <EXPORT ORDINAL="12088" NAME="?QueryHitPoint@XViewObject@COleControl@@UAGJKPBUtagRECT@@UtagPOINT@@JPAK@Z" PURGE="-1" COMMENT="" />
    <EXPORT ORDINAL="12087" NAME="?QueryGetData@XDataObject@COleServerItem@@UAGJPAUtagFORMATETC@@@Z" PURGE="-1" COMMENT="" />
    <EXPORT ORDINAL="12086" NAME="?QueryGetData@XDataObject@COleServerDoc@@UAGJPAUtagFORMATETC@@@Z" PURGE="-1" COMMENT="" />
    <EXPORT ORDINAL="12085" NAME="?QueryGetData@XDataObject@COleDataSource@@UAGJPAUtagFORMATETC@@@Z" PURGE="-1" COMMENT="" />
    <EXPORT ORDINAL="12084" NAME="?QueryGetData@XDataObject@COleControl@@UAGJPAUtagFORMATETC@@@Z" PURGE="-1" COMMENT="" />
    <EXPORT ORDINAL="12083" NAME="?QueryFormsCommand@CHtmlView@@QAEJKPAH00@Z" PURGE="-1" COMMENT="" />
    <EXPORT ORDINAL="12082" NAME="?QueryFocus@XPreviewHandler@CDocument@@UAGJPAPAUHWND__@@@Z" PURGE="-1" COMMENT="" />
    <EXPORT ORDINAL="12081" NAME="?QueryDefHandler@COleControl@@IAEPAXABU_GUID@@@Z" PURGE="-1" COMMENT="" />
    <EXPORT ORDINAL="12080" NAME="?QueryContinueDrag@XDropSource@COleDropSource@@UAGJHK@Z" PURGE="-1" COMMENT="" />
    <EXPORT ORDINAL="12079" NAME="?QueryContinueDrag@COleDropSource@@UAEJHK@Z" PURGE="-1" COMMENT="" />
    <EXPORT ORDINAL="12078" NAME="?QueryContinueDrag@CMFCToolBarDropSource@@UAEJHK@Z" PURGE="-1" COMMENT="" />
    <EXPORT ORDINAL="12077" NAME="?QueryCommand@COleDocObjectItem@@QAEJKPAKPAU_tagOLECMDTEXT@@PBU_GUID@@@Z" PURGE="-1" COMMENT="" />
    <EXPORT ORDINAL="12076" NAME="?QueryAggregates@CCmdTarget@@QAEPAUIUnknown@@PBX@Z" PURGE="-1" COMMENT="" />
    <EXPORT ORDINAL="12075" NAME="?QueryAcceptData@XRichEditOleCallback@CRichEditView@@UAGJPAUIDataObject@@PAGKHPAX@Z" PURGE="-1" COMMENT="" />
    <EXPORT ORDINAL="12074" NAME="?QueryAcceptData@CRichEditView@@MAEJPAUIDataObject@@PAGKHPAX@Z" PURGE="-1" COMMENT="" />
    <EXPORT ORDINAL="12044" NAME="?PutProperty@CHtmlView@@QAEXPBDABUtagVARIANT@@@Z" PURGE="-1" COMMENT="" />
    <EXPORT ORDINAL="12043" NAME="?PutFile@CFtpConnection@@QAEHPBD0KK@Z" PURGE="-1" COMMENT="" />
    <EXPORT ORDINAL="12042" NAME="?PutElement@COleSafeArray@@QAEXPAJPAX@Z" PURGE="-1" COMMENT="" />
    <EXPORT ORDINAL="12037" NAME="?PushStackArgs@CCmdTarget@@IAEJPAEPBEPAXGPAUtagDISPPARAMS@@PAIPAUtagVARIANT@@PAVCVariantBoolConverter@@@Z" PURGE="-1" COMMENT="" />
    <EXPORT ORDINAL="12036" NAME="?PushLayer@CRenderTarget@@QAEXABUD2D1_LAYER_PARAMETERS@@AAVCD2DLayer@@@Z" PURGE="-1" COMMENT="" />
    <EXPORT ORDINAL="12035" NAME="?PushChar@CMFCPropertyGridProperty@@UAEHI@Z" PURGE="-1" COMMENT="" />
    <EXPORT ORDINAL="12034" NAME="?PushAxisAlignedClip@CRenderTarget@@QAEXABVCD2DRectF@@W4D2D1_ANTIALIAS_MODE@@@Z" PURGE="-1" COMMENT="" />
    <EXPORT ORDINAL="12033" NAME="?PumpMessages@CSocket@@MAEHI@Z" PURGE="-1" COMMENT="" />
    <EXPORT ORDINAL="12032" NAME="?PumpMessage@CWinThread@@UAEHXZ" PURGE="-1" COMMENT="" />
    <EXPORT ORDINAL="12030" NAME="?PtrOfIndex@COleSafeArray@@QAEXPAJPAPAX@Z" PURGE="-1" COMMENT="" />
    <EXPORT ORDINAL="12031" NAME="?PtVisible@CMetaFileDC@@UBEHHH@Z" PURGE="-1" COMMENT="" />
    <EXPORT ORDINAL="12029" NAME="?ProcessWndProcException@CWinThread@@UAEJPAVCException@@PBUtagMSG@@@Z" PURGE="-1" COMMENT="" />
    <EXPORT ORDINAL="12028" NAME="?ProcessWndProcException@CWinApp@@UAEJPAVCException@@PBUtagMSG@@@Z" PURGE="-1" COMMENT="" />
    <EXPORT ORDINAL="12027" NAME="?ProcessShellCommand@CWinApp@@QAEHAAVCCommandLineInfo@@@Z" PURGE="-1" COMMENT="" />
    <EXPORT ORDINAL="12026" NAME="?ProcessPaneContextMenuCommand@CDockingManager@@QAEHIHPAXPAUAFX_CMDHANDLERINFO@@@Z" PURGE="-1" COMMENT="" />
    <EXPORT ORDINAL="12025" NAME="?ProcessMouseWheel@CFrameImpl@@IAEHIJ@Z" PURGE="-1" COMMENT="" />
    <EXPORT ORDINAL="12024" NAME="?ProcessMouseMove@CFrameImpl@@IAEHUtagPOINT@@@Z" PURGE="-1" COMMENT="" />
    <EXPORT ORDINAL="12023" NAME="?ProcessMouseMove@CDialogImpl@@IAEHUtagPOINT@@@Z" PURGE="-1" COMMENT="" />
    <EXPORT ORDINAL="12022" NAME="?ProcessMouseClick@CFrameImpl@@IAEHIUtagPOINT@@PAUHWND__@@@Z" PURGE="-1" COMMENT="" />
    <EXPORT ORDINAL="12021" NAME="?ProcessMouseClick@CDialogImpl@@IAEHUtagPOINT@@@Z" PURGE="-1" COMMENT="" />
    <EXPORT ORDINAL="12020" NAME="?ProcessMessageFilter@CWinThread@@UAEHHPAUtagMSG@@@Z" PURGE="-1" COMMENT="" />
    <EXPORT ORDINAL="12019" NAME="?ProcessKeyboard@CFrameImpl@@IAEHHPAH@Z" PURGE="-1" COMMENT="" />
    <EXPORT ORDINAL="12018" NAME="?ProcessKey@CMFCRibbonBar@@IAEHH@Z" PURGE="-1" COMMENT="" />
    <EXPORT ORDINAL="12017" NAME="?ProcessHelpMsg@CFrameWnd@@IAEHAAUtagMSG@@PAK@Z" PURGE="-1" COMMENT="" />
    <EXPORT ORDINAL="12016" NAME="?ProcessCommand@CMFCToolBar@@QAEHPAVCMFCToolBarButton@@@Z" PURGE="-1" COMMENT="" />
    <EXPORT ORDINAL="12015" NAME="?ProcessCommand@CMFCDesktopAlertWnd@@QAEHPAUHWND__@@@Z" PURGE="-1" COMMENT="" />
    <EXPORT ORDINAL="12014" NAME="?ProcessClipboardAccelerators@CMFCRibbonRichEditCtrl@@IAEHI@Z" PURGE="-1" COMMENT="" />
    <EXPORT ORDINAL="12013" NAME="?ProcessClipboardAccelerators@CMFCPropertyGridCtrl@@MAEHI@Z" PURGE="-1" COMMENT="" />
    <EXPORT ORDINAL="12012" NAME="?ProcessAuxQueue@CSocket@@SGHXZ" PURGE="-1" COMMENT="" />
    <EXPORT ORDINAL="12011" NAME="?Process@COleException@@SGJPBVCException@@@Z" PURGE="-1" COMMENT="" />
    <EXPORT ORDINAL="12010" NAME="?Process@COleDispatchException@@SGXPAUtagEXCEPINFO@@PBVCException@@@Z" PURGE="-1" COMMENT="" />
    <EXPORT ORDINAL="12005" NAME="?PrinterDPtoScreenDP@CPreviewDC@@QBEXPAUtagPOINT@@@Z" PURGE="-1" COMMENT="" />
    <EXPORT ORDINAL="12009" NAME="?PrintPage@CRichEditView@@QAEJPAVCDC@@JJ@Z" PURGE="-1" COMMENT="" />
    <EXPORT ORDINAL="12008" NAME="?PrintKeyMap@CMFCKeyMapDialog@@MAEXXZ" PURGE="-1" COMMENT="" />
    <EXPORT ORDINAL="12007" NAME="?PrintInsideRect@CRichEditView@@QAEJPAVCDC@@AAUtagRECT@@JJH@Z" PURGE="-1" COMMENT="" />
    <EXPORT ORDINAL="12006" NAME="?PrintInsideRect@CEditView@@QAEIPAVCDC@@AAUtagRECT@@II@Z" PURGE="-1" COMMENT="" />
    <EXPORT ORDINAL="12004" NAME="?Print@XPrint@CDocObjectServer@@UAGJKPAPAUtagDVTARGETDEVICE@@PAPAUtagPAGESET@@PAUtagSTGMEDIUM@@PAUIContinueCallback@@JPAJ4@Z" PURGE="-1" COMMENT="" />
    <EXPORT ORDINAL="12003" NAME="?PrevMenu@CMFCToolBar@@UAEHXZ" PURGE="-1" COMMENT="" />
    <EXPORT ORDINAL="11931" NAME="?PrepareWrite@?$CSimpleStringT@_W$00@ATL@@AAEPA_WH@Z" PURGE="-1" COMMENT="" />
    <EXPORT ORDINAL="11932" NAME="?PrepareWrite@?$CSimpleStringT@D$00@ATL@@AAEPADH@Z" PURGE="-1" COMMENT="" />
    <EXPORT ORDINAL="11933" NAME="?PrepareWrite2@?$CSimpleStringT@_W$00@ATL@@AAEXH@Z" PURGE="-1" COMMENT="" />
    <EXPORT ORDINAL="11934" NAME="?PrepareWrite2@?$CSimpleStringT@D$00@ATL@@AAEXH@Z" PURGE="-1" COMMENT="" />
    <EXPORT ORDINAL="11930" NAME="?PrepareUpdateHstmt@CRecordset@@IAEXXZ" PURGE="-1" COMMENT="" />
    <EXPORT ORDINAL="11929" NAME="?PrepareToDock@CPane@@UAEXPAVCDockSite@@W4AFX_DOCK_METHOD@@@Z" PURGE="-1" COMMENT="" />
    <EXPORT ORDINAL="11928" NAME="?PrepareShadowMask@CDrawingManager@@SGPAUHBITMAP__@@HKHH@Z" PURGE="-1" COMMENT="" />
    <EXPORT ORDINAL="11927" NAME="?PrepareOleCtrl@CDataExchange@@QAEPAVCOleControlSite@@H@Z" PURGE="-1" COMMENT="" />
    <EXPORT ORDINAL="11926" NAME="?PrepareForHelp@CWnd@@QAEXXZ" PURGE="-1" COMMENT="" />
    <EXPORT ORDINAL="11925" NAME="?PrepareEditCtrl@CDataExchange@@QAEPAUHWND__@@H@Z" PURGE="-1" COMMENT="" />
    <EXPORT ORDINAL="11924" NAME="?PrepareDrawImage@CMFCToolBarImages@@QAEHAAUtagAFXDrawState@@VCSize@@H@Z" PURGE="-1" COMMENT="" />
    <EXPORT ORDINAL="11923" NAME="?PrepareDrag@CMFCToolBarButton@@UAEHAAVCOleDataSource@@@Z" PURGE="-1" COMMENT="" />
    <EXPORT ORDINAL="11922" NAME="?PrepareCtrl@CDataExchange@@QAEPAUHWND__@@H@Z" PURGE="-1" COMMENT="" />
    <EXPORT ORDINAL="11921" NAME="?PrepareAndExecute@CRecordset@@IAEXXZ" PURGE="-1" COMMENT="" />
    <EXPORT ORDINAL="11871" NAME="?Preallocate@?$CSimpleStringT@_W$00@ATL@@QAEXH@Z" PURGE="-1" COMMENT="" />
    <EXPORT ORDINAL="11872" NAME="?Preallocate@?$CSimpleStringT@D$00@ATL@@QAEXH@Z" PURGE="-1" COMMENT="" />
    <EXPORT ORDINAL="12002" NAME="?PreUnsubclassControl@CMFCControlContainer@@IAEXPAVCWnd@@@Z" PURGE="-1" COMMENT="" />
    <EXPORT ORDINAL="12001" NAME="?PreTranslateMessage@CWnd@@UAEHPAUtagMSG@@@Z" PURGE="-1" COMMENT="" />
    <EXPORT ORDINAL="12000" NAME="?PreTranslateMessage@CWinThread@@UAEHPAUtagMSG@@@Z" PURGE="-1" COMMENT="" />
    <EXPORT ORDINAL="11999" NAME="?PreTranslateMessage@CVSListBox@@UAEHPAUtagMSG@@@Z" PURGE="-1" COMMENT="" />
    <EXPORT ORDINAL="11998" NAME="?PreTranslateMessage@CPropertySheet@@UAEHPAUtagMSG@@@Z" PURGE="-1" COMMENT="" />
    <EXPORT ORDINAL="11997" NAME="?PreTranslateMessage@CPropertyPage@@MAEHPAUtagMSG@@@Z" PURGE="-1" COMMENT="" />
    <EXPORT ORDINAL="11996" NAME="?PreTranslateMessage@CPaneFrameWnd@@UAEHPAUtagMSG@@@Z" PURGE="-1" COMMENT="" />
    <EXPORT ORDINAL="11995" NAME="?PreTranslateMessage@COlePropertyPage@@MAEHPAUtagMSG@@@Z" PURGE="-1" COMMENT="" />
    <EXPORT ORDINAL="11994" NAME="?PreTranslateMessage@COleIPFrameWndEx@@UAEHPAUtagMSG@@@Z" PURGE="-1" COMMENT="" />
    <EXPORT ORDINAL="11993" NAME="?PreTranslateMessage@COleIPFrameWnd@@UAEHPAUtagMSG@@@Z" PURGE="-1" COMMENT="" />
    <EXPORT ORDINAL="11992" NAME="?PreTranslateMessage@COleDocIPFrameWndEx@@UAEHPAUtagMSG@@@Z" PURGE="-1" COMMENT="" />
    <EXPORT ORDINAL="11991" NAME="?PreTranslateMessage@CMFCToolBarEditCtrl@@UAEHPAUtagMSG@@@Z" PURGE="-1" COMMENT="" />
    <EXPORT ORDINAL="11990" NAME="?PreTranslateMessage@CMFCToolBarComboBoxEdit@@UAEHPAUtagMSG@@@Z" PURGE="-1" COMMENT="" />
    <EXPORT ORDINAL="11989" NAME="?PreTranslateMessage@CMFCToolBar@@MAEHPAUtagMSG@@@Z" PURGE="-1" COMMENT="" />
    <EXPORT ORDINAL="11988" NAME="?PreTranslateMessage@CMFCTasksPane@@UAEHPAUtagMSG@@@Z" PURGE="-1" COMMENT="" />
    <EXPORT ORDINAL="11987" NAME="?PreTranslateMessage@CMFCTabCtrl@@UAEHPAUtagMSG@@@Z" PURGE="-1" COMMENT="" />
    <EXPORT ORDINAL="11986" NAME="?PreTranslateMessage@CMFCRibbonRichEditCtrl@@UAEHPAUtagMSG@@@Z" PURGE="-1" COMMENT="" />
    <EXPORT ORDINAL="11985" NAME="?PreTranslateMessage@CMFCRibbonPanelMenuBar@@MAEHPAUtagMSG@@@Z" PURGE="-1" COMMENT="" />
    <EXPORT ORDINAL="11984" NAME="?PreTranslateMessage@CMFCRibbonBar@@UAEHPAUtagMSG@@@Z" PURGE="-1" COMMENT="" />
    <EXPORT ORDINAL="11983" NAME="?PreTranslateMessage@CMFCPropertySheet@@UAEHPAUtagMSG@@@Z" PURGE="-1" COMMENT="" />
    <EXPORT ORDINAL="11982" NAME="?PreTranslateMessage@CMFCPropertyPage@@UAEHPAUtagMSG@@@Z" PURGE="-1" COMMENT="" />
    <EXPORT ORDINAL="11981" NAME="?PreTranslateMessage@CMFCPropertyGridToolTipCtrl@@UAEHPAUtagMSG@@@Z" PURGE="-1" COMMENT="" />
    <EXPORT ORDINAL="11980" NAME="?PreTranslateMessage@CMFCPropertyGridCtrl@@UAEHPAUtagMSG@@@Z" PURGE="-1" COMMENT="" />
    <EXPORT ORDINAL="11979" NAME="?PreTranslateMessage@CMFCPopupMenu@@UAEHPAUtagMSG@@@Z" PURGE="-1" COMMENT="" />
    <EXPORT ORDINAL="11978" NAME="?PreTranslateMessage@CMFCOutlookBarPane@@MAEHPAUtagMSG@@@Z" PURGE="-1" COMMENT="" />
    <EXPORT ORDINAL="11977" NAME="?PreTranslateMessage@CMFCMenuButton@@UAEHPAUtagMSG@@@Z" PURGE="-1" COMMENT="" />
    <EXPORT ORDINAL="11976" NAME="?PreTranslateMessage@CMFCMenuBar@@UAEHPAUtagMSG@@@Z" PURGE="-1" COMMENT="" />
    <EXPORT ORDINAL="11975" NAME="?PreTranslateMessage@CMFCLinkCtrl@@MAEHPAUtagMSG@@@Z" PURGE="-1" COMMENT="" />
    <EXPORT ORDINAL="11974" NAME="?PreTranslateMessage@CMFCFontComboBox@@UAEHPAUtagMSG@@@Z" PURGE="-1" COMMENT="" />
    <EXPORT ORDINAL="11973" NAME="?PreTranslateMessage@CMFCEditBrowseCtrl@@UAEHPAUtagMSG@@@Z" PURGE="-1" COMMENT="" />
    <EXPORT ORDINAL="11972" NAME="?PreTranslateMessage@CMFCDesktopAlertDialog@@UAEHPAUtagMSG@@@Z" PURGE="-1" COMMENT="" />
    <EXPORT ORDINAL="11971" NAME="?PreTranslateMessage@CMFCColorPropertySheet@@MAEHPAUtagMSG@@@Z" PURGE="-1" COMMENT="" />
    <EXPORT ORDINAL="11970" NAME="?PreTranslateMessage@CMFCColorDialog@@UAEHPAUtagMSG@@@Z" PURGE="-1" COMMENT="" />
    <EXPORT ORDINAL="11969" NAME="?PreTranslateMessage@CMFCColorBar@@MAEHPAUtagMSG@@@Z" PURGE="-1" COMMENT="" />
    <EXPORT ORDINAL="11968" NAME="?PreTranslateMessage@CMFCCaptionBar@@MAEHPAUtagMSG@@@Z" PURGE="-1" COMMENT="" />
    <EXPORT ORDINAL="11967" NAME="?PreTranslateMessage@CMFCButton@@UAEHPAUtagMSG@@@Z" PURGE="-1" COMMENT="" />
    <EXPORT ORDINAL="11966" NAME="?PreTranslateMessage@CMFCBaseTabCtrl@@UAEHPAUtagMSG@@@Z" PURGE="-1" COMMENT="" />
    <EXPORT ORDINAL="11965" NAME="?PreTranslateMessage@CMFCAcceleratorKeyAssignCtrl@@UAEHPAUtagMSG@@@Z" PURGE="-1" COMMENT="" />
    <EXPORT ORDINAL="11964" NAME="?PreTranslateMessage@CMDIFrameWndEx@@UAEHPAUtagMSG@@@Z" PURGE="-1" COMMENT="" />
    <EXPORT ORDINAL="11963" NAME="?PreTranslateMessage@CMDIFrameWnd@@UAEHPAUtagMSG@@@Z" PURGE="-1" COMMENT="" />
    <EXPORT ORDINAL="11962" NAME="?PreTranslateMessage@CMDIChildWndEx@@UAEHPAUtagMSG@@@Z" PURGE="-1" COMMENT="" />
    <EXPORT ORDINAL="11961" NAME="?PreTranslateMessage@CMDIChildWnd@@UAEHPAUtagMSG@@@Z" PURGE="-1" COMMENT="" />
    <EXPORT ORDINAL="11960" NAME="?PreTranslateMessage@CHtmlView@@UAEHPAUtagMSG@@@Z" PURGE="-1" COMMENT="" />
    <EXPORT ORDINAL="11959" NAME="?PreTranslateMessage@CFrameWndEx@@UAEHPAUtagMSG@@@Z" PURGE="-1" COMMENT="" />
    <EXPORT ORDINAL="11958" NAME="?PreTranslateMessage@CFrameWnd@@UAEHPAUtagMSG@@@Z" PURGE="-1" COMMENT="" />
    <EXPORT ORDINAL="11957" NAME="?PreTranslateMessage@CFormView@@MAEHPAUtagMSG@@@Z" PURGE="-1" COMMENT="" />
    <EXPORT ORDINAL="11956" NAME="?PreTranslateMessage@CDockablePane@@UAEHPAUtagMSG@@@Z" PURGE="-1" COMMENT="" />
    <EXPORT ORDINAL="11955" NAME="?PreTranslateMessage@CDialogImpl@@IAEHPAUtagMSG@@@Z" PURGE="-1" COMMENT="" />
    <EXPORT ORDINAL="11954" NAME="?PreTranslateMessage@CDialogEx@@UAEHPAUtagMSG@@@Z" PURGE="-1" COMMENT="" />
    <EXPORT ORDINAL="11953" NAME="?PreTranslateMessage@CDialog@@UAEHPAUtagMSG@@@Z" PURGE="-1" COMMENT="" />
    <EXPORT ORDINAL="11952" NAME="?PreTranslateMessage@CControlBar@@UAEHPAUtagMSG@@@Z" PURGE="-1" COMMENT="" />
    <EXPORT ORDINAL="11951" NAME="?PreTranslateMessage@CBasePane@@UAEHPAUtagMSG@@@Z" PURGE="-1" COMMENT="" />
    <EXPORT ORDINAL="11950" NAME="?PreTranslateInput@CWnd@@QAEHPAUtagMSG@@@Z" PURGE="-1" COMMENT="" />
    <EXPORT ORDINAL="11949" NAME="?PreSubclassWindow@CWnd@@UAEXXZ" PURGE="-1" COMMENT="" />
    <EXPORT ORDINAL="11948" NAME="?PreSubclassWindow@CVSListBoxBase@@MAEXXZ" PURGE="-1" COMMENT="" />
    <EXPORT ORDINAL="11947" NAME="?PreSubclassWindow@CMFCToolBarsCommandsListBox@@MAEXXZ" PURGE="-1" COMMENT="" />
    <EXPORT ORDINAL="11946" NAME="?PreSubclassWindow@CMFCShellTreeCtrl@@MAEXXZ" PURGE="-1" COMMENT="" />
    <EXPORT ORDINAL="11945" NAME="?PreSubclassWindow@CMFCShellListCtrl@@MAEXXZ" PURGE="-1" COMMENT="" />
    <EXPORT ORDINAL="11944" NAME="?PreSubclassWindow@CMFCPropertyGridCtrl@@MAEXXZ" PURGE="-1" COMMENT="" />
    <EXPORT ORDINAL="11943" NAME="?PreSubclassWindow@CMFCListCtrl@@MAEXXZ" PURGE="-1" COMMENT="" />
    <EXPORT ORDINAL="11942" NAME="?PreSubclassWindow@CMFCImagePaintArea@@MAEXXZ" PURGE="-1" COMMENT="" />
    <EXPORT ORDINAL="11941" NAME="?PreSubclassWindow@CMFCHeaderCtrl@@MAEXXZ" PURGE="-1" COMMENT="" />
    <EXPORT ORDINAL="11940" NAME="?PreSubclassWindow@CMFCFontComboBox@@MAEXXZ" PURGE="-1" COMMENT="" />
    <EXPORT ORDINAL="11939" NAME="?PreSubclassWindow@CMFCColorPickerCtrl@@MAEXXZ" PURGE="-1" COMMENT="" />
    <EXPORT ORDINAL="11938" NAME="?PreSubclassWindow@CMFCButton@@MAEXXZ" PURGE="-1" COMMENT="" />
    <EXPORT ORDINAL="11937" NAME="?PreSubclassWindow@CMDIClientAreaWnd@@MAEXXZ" PURGE="-1" COMMENT="" />
    <EXPORT ORDINAL="11936" NAME="?PreSubclassWindow@CDragListBox@@UAEXXZ" PURGE="-1" COMMENT="" />
    <EXPORT ORDINAL="11935" NAME="?PreProcessPageTemplate@CPropertyPage@@IAEXAAU_PROPSHEETPAGEA@@H@Z" PURGE="-1" COMMENT="" />
    <EXPORT ORDINAL="11920" NAME="?PreMultiplyAlpha@CMFCToolBarImages@@SGHPAUHBITMAP__@@H@Z" PURGE="-1" COMMENT="" />
    <EXPORT ORDINAL="11919" NAME="?PreMultiplyAlpha@CMFCToolBarImages@@IAEHPAUHBITMAP__@@@Z" PURGE="-1" COMMENT="" />
    <EXPORT ORDINAL="11918" NAME="?PreModalDialog@COleControl@@QAEXPAUHWND__@@@Z" PURGE="-1" COMMENT="" />
    <EXPORT ORDINAL="11917" NAME="?PreModal@CPrintDialogEx@@QAEPAUHWND__@@XZ" PURGE="-1" COMMENT="" />
    <EXPORT ORDINAL="11916" NAME="?PreModal@CDialog@@IAEPAUHWND__@@XZ" PURGE="-1" COMMENT="" />
    <EXPORT ORDINAL="11915" NAME="?PreMeasureItem@CCheckListBox@@IAEXPAUtagMEASUREITEMSTRUCT@@@Z" PURGE="-1" COMMENT="" />
    <EXPORT ORDINAL="11914" NAME="?PreLMouseDown@CMFCRibbonEdit@@UAEHVCPoint@@@Z" PURGE="-1" COMMENT="" />
    <EXPORT ORDINAL="11913" NAME="?PreInitDialog@COleChangeSourceDialog@@UAEXXZ" PURGE="-1" COMMENT="" />
    <EXPORT ORDINAL="11912" NAME="?PreInitDialog@CDialog@@MAEXXZ" PURGE="-1" COMMENT="" />
    <EXPORT ORDINAL="11911" NAME="?PreDrawPage@CPageSetupDialog@@UAEIGGPAUtagPSDA@@@Z" PURGE="-1" COMMENT="" />
    <EXPORT ORDINAL="11910" NAME="?PreDrawItemThemed@CCheckListBox@@IAE_NPAVCDC@@AAUtagDRAWITEMSTRUCT@@HH@Z" PURGE="-1" COMMENT="" />
    <EXPORT ORDINAL="11909" NAME="?PreDrawItemNonThemed@CCheckListBox@@IAEXPAVCDC@@AAUtagDRAWITEMSTRUCT@@HH@Z" PURGE="-1" COMMENT="" />
    <EXPORT ORDINAL="11908" NAME="?PreDrawItemHelper@CCheckListBox@@IAEXPAUtagDRAWITEMSTRUCT@@@Z" PURGE="-1" COMMENT="" />
    <EXPORT ORDINAL="11907" NAME="?PreDrawItem@CCheckListBox@@IAEXPAUtagDRAWITEMSTRUCT@@@Z" PURGE="-1" COMMENT="" />
    <EXPORT ORDINAL="11906" NAME="?PreDeleteItem@CCheckListBox@@IAEXPAUtagDELETEITEMSTRUCT@@@Z" PURGE="-1" COMMENT="" />
    <EXPORT ORDINAL="11905" NAME="?PreCreateWindow@CWnd@@UAEHAAUtagCREATESTRUCTA@@@Z" PURGE="-1" COMMENT="" />
    <EXPORT ORDINAL="11904" NAME="?PreCreateWindow@CView@@MAEHAAUtagCREATESTRUCTA@@@Z" PURGE="-1" COMMENT="" />
    <EXPORT ORDINAL="11903" NAME="?PreCreateWindow@CTreeView@@UAEHAAUtagCREATESTRUCTA@@@Z" PURGE="-1" COMMENT="" />
    <EXPORT ORDINAL="11902" NAME="?PreCreateWindow@CStatusBar@@UAEHAAUtagCREATESTRUCTA@@@Z" PURGE="-1" COMMENT="" />
    <EXPORT ORDINAL="11901" NAME="?PreCreateWindow@CRichEditView@@MAEHAAUtagCREATESTRUCTA@@@Z" PURGE="-1" COMMENT="" />
    <EXPORT ORDINAL="11900" NAME="?PreCreateWindow@CPaneFrameWnd@@MAEHAAUtagCREATESTRUCTA@@@Z" PURGE="-1" COMMENT="" />
    <EXPORT ORDINAL="11899" NAME="?PreCreateWindow@COleIPFrameWndEx@@MAEHAAUtagCREATESTRUCTA@@@Z" PURGE="-1" COMMENT="" />
    <EXPORT ORDINAL="11898" NAME="?PreCreateWindow@COleDocIPFrameWndEx@@MAEHAAUtagCREATESTRUCTA@@@Z" PURGE="-1" COMMENT="" />
    <EXPORT ORDINAL="11897" NAME="?PreCreateWindow@COleCntrFrameWndEx@@MAEHAAUtagCREATESTRUCTA@@@Z" PURGE="-1" COMMENT="" />
    <EXPORT ORDINAL="11896" NAME="?PreCreateWindow@CMiniFrameWnd@@MAEHAAUtagCREATESTRUCTA@@@Z" PURGE="-1" COMMENT="" />
    <EXPORT ORDINAL="11895" NAME="?PreCreateWindow@CMFCStatusBar@@UAEHAAUtagCREATESTRUCTA@@@Z" PURGE="-1" COMMENT="" />
    <EXPORT ORDINAL="11894" NAME="?PreCreateWindow@CMFCRibbonStatusBar@@MAEHAAUtagCREATESTRUCTA@@@Z" PURGE="-1" COMMENT="" />
    <EXPORT ORDINAL="11893" NAME="?PreCreateWindow@CMFCRibbonBar@@MAEHAAUtagCREATESTRUCTA@@@Z" PURGE="-1" COMMENT="" />
    <EXPORT ORDINAL="11892" NAME="?PreCreateWindow@CMFCColorPickerCtrl@@MAEHAAUtagCREATESTRUCTA@@@Z" PURGE="-1" COMMENT="" />
    <EXPORT ORDINAL="11891" NAME="?PreCreateWindow@CMFCButton@@MAEHAAUtagCREATESTRUCTA@@@Z" PURGE="-1" COMMENT="" />
    <EXPORT ORDINAL="11890" NAME="?PreCreateWindow@CMDIFrameWndEx@@MAEHAAUtagCREATESTRUCTA@@@Z" PURGE="-1" COMMENT="" />
    <EXPORT ORDINAL="11889" NAME="?PreCreateWindow@CMDIFrameWnd@@UAEHAAUtagCREATESTRUCTA@@@Z" PURGE="-1" COMMENT="" />
    <EXPORT ORDINAL="11888" NAME="?PreCreateWindow@CMDIChildWndEx@@MAEHAAUtagCREATESTRUCTA@@@Z" PURGE="-1" COMMENT="" />
    <EXPORT ORDINAL="11887" NAME="?PreCreateWindow@CMDIChildWnd@@UAEHAAUtagCREATESTRUCTA@@@Z" PURGE="-1" COMMENT="" />
    <EXPORT ORDINAL="11886" NAME="?PreCreateWindow@CListView@@UAEHAAUtagCREATESTRUCTA@@@Z" PURGE="-1" COMMENT="" />
    <EXPORT ORDINAL="11885" NAME="?PreCreateWindow@CHtmlView@@UAEHAAUtagCREATESTRUCTA@@@Z" PURGE="-1" COMMENT="" />
    <EXPORT ORDINAL="11884" NAME="?PreCreateWindow@CFrameWndEx@@MAEHAAUtagCREATESTRUCTA@@@Z" PURGE="-1" COMMENT="" />
    <EXPORT ORDINAL="11883" NAME="?PreCreateWindow@CFrameWnd@@MAEHAAUtagCREATESTRUCTA@@@Z" PURGE="-1" COMMENT="" />
    <EXPORT ORDINAL="11882" NAME="?PreCreateWindow@CEditView@@MAEHAAUtagCREATESTRUCTA@@@Z" PURGE="-1" COMMENT="" />
    <EXPORT ORDINAL="11881" NAME="?PreCreateWindow@CCtrlView@@MAEHAAUtagCREATESTRUCTA@@@Z" PURGE="-1" COMMENT="" />
    <EXPORT ORDINAL="11880" NAME="?PreCreateWindow@CControlFrameWnd@@UAEHAAUtagCREATESTRUCTA@@@Z" PURGE="-1" COMMENT="" />
    <EXPORT ORDINAL="11879" NAME="?PreCreateWindow@CControlBar@@UAEHAAUtagCREATESTRUCTA@@@Z" PURGE="-1" COMMENT="" />
    <EXPORT ORDINAL="11878" NAME="?PreCreateDialog@COccManager@@UAEPBUDLGTEMPLATE@@PAU_AFX_OCC_DIALOG_INFO@@PBU2@@Z" PURGE="-1" COMMENT="" />
    <EXPORT ORDINAL="11877" NAME="?PreCompareItem@CCheckListBox@@IAEHPAUtagCOMPAREITEMSTRUCT@@@Z" PURGE="-1" COMMENT="" />
    <EXPORT ORDINAL="11876" NAME="?PreCloseFrame@CRichEditDoc@@UAEXPAVCFrameWnd@@@Z" PURGE="-1" COMMENT="" />
    <EXPORT ORDINAL="11875" NAME="?PreCloseFrame@COleDocument@@UAEXPAVCFrameWnd@@@Z" PURGE="-1" COMMENT="" />
    <EXPORT ORDINAL="11874" NAME="?PreCloseFrame@CDocument@@UAEXPAVCFrameWnd@@@Z" PURGE="-1" COMMENT="" />
    <EXPORT ORDINAL="11873" NAME="?PreBindFields@CRecordset@@UAEXXZ" PURGE="-1" COMMENT="" />
    <EXPORT ORDINAL="11870" NAME="?PostNcDestroy@CWnd@@MAEXXZ" PURGE="-1" COMMENT="" />
    <EXPORT ORDINAL="11869" NAME="?PostNcDestroy@CView@@MAEXXZ" PURGE="-1" COMMENT="" />
    <EXPORT ORDINAL="11868" NAME="?PostNcDestroy@CReflectorWnd@@MAEXXZ" PURGE="-1" COMMENT="" />
    <EXPORT ORDINAL="11867" NAME="?PostNcDestroy@COleCntrFrameWnd@@MAEXXZ" PURGE="-1" COMMENT="" />
    <EXPORT ORDINAL="11866" NAME="?PostNcDestroy@CMFCToolBarsCustomizeDialog@@UAEXXZ" PURGE="-1" COMMENT="" />
    <EXPORT ORDINAL="11865" NAME="?PostNcDestroy@CMFCPopupMenu@@MAEXXZ" PURGE="-1" COMMENT="" />
    <EXPORT ORDINAL="11864" NAME="?PostNcDestroy@CMFCDropDownFrame@@MAEXXZ" PURGE="-1" COMMENT="" />
    <EXPORT ORDINAL="11863" NAME="?PostNcDestroy@CMFCColorPropertySheet@@MAEXXZ" PURGE="-1" COMMENT="" />
    <EXPORT ORDINAL="11862" NAME="?PostNcDestroy@CFrameWnd@@MAEXXZ" PURGE="-1" COMMENT="" />
    <EXPORT ORDINAL="11861" NAME="?PostNcDestroy@CFindReplaceDialog@@MAEXXZ" PURGE="-1" COMMENT="" />
    <EXPORT ORDINAL="11860" NAME="?PostNcDestroy@CControlFrameWnd@@MAEXXZ" PURGE="-1" COMMENT="" />
    <EXPORT ORDINAL="11859" NAME="?PostNcDestroy@CControlBar@@UAEXXZ" PURGE="-1" COMMENT="" />
    <EXPORT ORDINAL="11858" NAME="?PostModalDialog@COleControl@@QAEXPAUHWND__@@@Z" PURGE="-1" COMMENT="" />
    <EXPORT ORDINAL="11857" NAME="?PostModal@CPrintDialogEx@@QAEXXZ" PURGE="-1" COMMENT="" />
    <EXPORT ORDINAL="11856" NAME="?PostModal@CDialog@@IAEXXZ" PURGE="-1" COMMENT="" />
    <EXPORT ORDINAL="11855" NAME="?PostMenuCommand@CMFCRibbonBaseElement@@QAEXI@Z" PURGE="-1" COMMENT="" />
    <EXPORT ORDINAL="11854" NAME="?PostCreateDialog@COccManager@@UAEXPAU_AFX_OCC_DIALOG_INFO@@@Z" PURGE="-1" COMMENT="" />
    <EXPORT ORDINAL="11853" NAME="?PostCommand@CMFCPopupMenu@@QAEHI@Z" PURGE="-1" COMMENT="" />
    <EXPORT ORDINAL="11852" NAME="?PostBindToStream@CMonikerFile@@MAEHPAVCFileException@@@Z" PURGE="-1" COMMENT="" />
    <EXPORT ORDINAL="11851" NAME="?PostBindToStream@CAsyncMonikerFile@@MAEHPAVCFileException@@@Z" PURGE="-1" COMMENT="" />
    <EXPORT ORDINAL="11850" NAME="?PositionPage@CPreviewView@@MAEXI@Z" PURGE="-1" COMMENT="" />
    <EXPORT ORDINAL="11849" NAME="?PopTooltip@CMFCRibbonPanelMenuBar@@QAEXXZ" PURGE="-1" COMMENT="" />
    <EXPORT ORDINAL="11848" NAME="?PopTooltip@CMFCRibbonBar@@QAEXXZ" PURGE="-1" COMMENT="" />
    <EXPORT ORDINAL="11847" NAME="?PopLayer@CRenderTarget@@QAEXXZ" PURGE="-1" COMMENT="" />
    <EXPORT ORDINAL="11846" NAME="?PopAxisAlignedClip@CRenderTarget@@QAEXXZ" PURGE="-1" COMMENT="" />
    <EXPORT ORDINAL="11845" NAME="?PolylineTo@CDC@@QAEHPBUtagPOINT@@H@Z" PURGE="-1" COMMENT="" />
    <EXPORT ORDINAL="11844" NAME="?PolyDraw@CDC@@QAEHPBUtagPOINT@@PBEH@Z" PURGE="-1" COMMENT="" />
    <EXPORT ORDINAL="11843" NAME="?PolyBezierTo@CDC@@QAEHPBUtagPOINT@@H@Z" PURGE="-1" COMMENT="" />
    <EXPORT ORDINAL="11842" NAME="?PointFromLum@CMFCColorPickerCtrl@@IAEHN@Z" PURGE="-1" COMMENT="" />
    <EXPORT ORDINAL="11839" NAME="?PlayMetaFile@CDC@@QAEHPAUHMETAFILE__@@@Z" PURGE="-1" COMMENT="" />
    <EXPORT ORDINAL="11838" NAME="?PlaceTabPreDocking@CMFCDragFrameImpl@@QAEXPAVCWnd@@@Z" PURGE="-1" COMMENT="" />
    <EXPORT ORDINAL="11837" NAME="?PlaceTabPreDocking@CMFCDragFrameImpl@@QAEXPAVCBaseTabbedPane@@H@Z" PURGE="-1" COMMENT="" />
    <EXPORT ORDINAL="11836" NAME="?PixelAlpha@CDrawingManager@@SGKKNNN@Z" PURGE="-1" COMMENT="" />
    <EXPORT ORDINAL="11835" NAME="?PixelAlpha@CDrawingManager@@SGKKKH@Z" PURGE="-1" COMMENT="" />
    <EXPORT ORDINAL="11834" NAME="?PixelAlpha@CDrawingManager@@SGKKH@Z" PURGE="-1" COMMENT="" />
    <EXPORT ORDINAL="11829" NAME="?PasteSpecial@CRichEditCtrl@@QAEXIKPAUHMETAFILE__@@@Z" PURGE="-1" COMMENT="" />
    <EXPORT ORDINAL="11828" NAME="?ParseToolTipInfo@CTagManager@@SGHABV?$CStringT@DV?$StrTraitMFC_DLL@DV?$ChTraitsCRT@D@ATL@@@@@ATL@@AAVCMFCToolTipInfo@@@Z" PURGE="-1" COMMENT="" />
    <EXPORT ORDINAL="11827" NAME="?ParseToolBarImages@CTagManager@@SGHABV?$CStringT@DV?$StrTraitMFC_DLL@DV?$ChTraitsCRT@D@ATL@@@@@ATL@@AAVCMFCToolBarImages@@PBD@Z" PURGE="-1" COMMENT="" />
    <EXPORT ORDINAL="11826" NAME="?ParseToolBarImages@CTagManager@@SGHABV?$CStringT@DV?$StrTraitMFC_DLL@DV?$ChTraitsCRT@D@ATL@@@@@ATL@@AAVCMFCToolBarImages@@I@Z" PURGE="-1" COMMENT="" />
    <EXPORT ORDINAL="11825" NAME="?ParseString@CTagManager@@SGHABV?$CStringT@DV?$StrTraitMFC_DLL@DV?$ChTraitsCRT@D@ATL@@@@@ATL@@0AAVCStringArray@@HH@Z" PURGE="-1" COMMENT="" />
    <EXPORT ORDINAL="11824" NAME="?ParseSize@CTagManager@@SGHABV?$CStringT@DV?$StrTraitMFC_DLL@DV?$ChTraitsCRT@D@ATL@@@@@ATL@@AAVCSize@@@Z" PURGE="-1" COMMENT="" />
    <EXPORT ORDINAL="11823" NAME="?ParseRect@CTagManager@@SGHABV?$CStringT@DV?$StrTraitMFC_DLL@DV?$ChTraitsCRT@D@ATL@@@@@ATL@@AAVCRect@@@Z" PURGE="-1" COMMENT="" />
    <EXPORT ORDINAL="11822" NAME="?ParsePoint@CTagManager@@SGHABV?$CStringT@DV?$StrTraitMFC_DLL@DV?$ChTraitsCRT@D@ATL@@@@@ATL@@AAVCPoint@@@Z" PURGE="-1" COMMENT="" />
    <EXPORT ORDINAL="11821" NAME="?ParseParamNotFlag@CCommandLineInfo@@IAEXPBD@Z" PURGE="-1" COMMENT="" />
    <EXPORT ORDINAL="11820" NAME="?ParseParamFlag@CCommandLineInfo@@IAEXPBD@Z" PURGE="-1" COMMENT="" />
    <EXPORT ORDINAL="11819" NAME="?ParseParam@CCommandLineInfo@@UAEXPBDHH@Z" PURGE="-1" COMMENT="" />
    <EXPORT ORDINAL="11818" NAME="?ParseLast@CCommandLineInfo@@IAEXH@Z" PURGE="-1" COMMENT="" />
    <EXPORT ORDINAL="11817" NAME="?ParseFont@CTagManager@@SGHABV?$CStringT@DV?$StrTraitMFC_DLL@DV?$ChTraitsCRT@D@ATL@@@@@ATL@@AAUtagLOGFONTA@@@Z" PURGE="-1" COMMENT="" />
    <EXPORT ORDINAL="11816" NAME="?ParseDisplayName@XOleItemContainer@COleLinkingDoc@@UAGJPAUIBindCtx@@PA_WPAKPAPAUIMoniker@@@Z" PURGE="-1" COMMENT="" />
    <EXPORT ORDINAL="11815" NAME="?ParseDisplayName@XOleContainer@COleControlContainer@@UAGJPAUIBindCtx@@PA_WPAKPAPAUIMoniker@@@Z" PURGE="-1" COMMENT="" />
    <EXPORT ORDINAL="11814" NAME="?ParseCurrency@COleCurrency@@QAEHPBDKK@Z" PURGE="-1" COMMENT="" />
    <EXPORT ORDINAL="11813" NAME="?ParseControlRendererInfo@CTagManager@@SGHABV?$CStringT@DV?$StrTraitMFC_DLL@DV?$ChTraitsCRT@D@ATL@@@@@ATL@@AAVCMFCControlRendererInfo@@@Z" PURGE="-1" COMMENT="" />
    <EXPORT ORDINAL="11812" NAME="?ParseControlRenderer@CTagManager@@SGHABV?$CStringT@DV?$StrTraitMFC_DLL@DV?$ChTraitsCRT@D@ATL@@@@@ATL@@AAVCMFCControlRenderer@@PBD@Z" PURGE="-1" COMMENT="" />
    <EXPORT ORDINAL="11811" NAME="?ParseControlRenderer@CTagManager@@SGHABV?$CStringT@DV?$StrTraitMFC_DLL@DV?$ChTraitsCRT@D@ATL@@@@@ATL@@AAVCMFCControlRenderer@@I@Z" PURGE="-1" COMMENT="" />
    <EXPORT ORDINAL="11810" NAME="?ParseCommandLine@CWinApp@@QAEXAAVCCommandLineInfo@@@Z" PURGE="-1" COMMENT="" />
    <EXPORT ORDINAL="11809" NAME="?ParseColorHEX@CTagManager@@SGHABV?$CStringT@DV?$StrTraitMFC_DLL@DV?$ChTraitsCRT@D@ATL@@@@@ATL@@AAK@Z" PURGE="-1" COMMENT="" />
    <EXPORT ORDINAL="11808" NAME="?ParseColor@CTagManager@@SGHABV?$CStringT@DV?$StrTraitMFC_DLL@DV?$ChTraitsCRT@D@ATL@@@@@ATL@@AAK@Z" PURGE="-1" COMMENT="" />
    <EXPORT ORDINAL="11807" NAME="?Parse@CMenuTearOffManager@@QAEIAAV?$CStringT@DV?$StrTraitMFC_DLL@DV?$ChTraitsCRT@D@ATL@@@@@ATL@@@Z" PURGE="-1" COMMENT="" />
    <EXPORT ORDINAL="11806" NAME="?ParentToClient@COleControl@@UBEIPBUtagRECT@@PAUtagPOINT@@H@Z" PURGE="-1" COMMENT="" />
    <EXPORT ORDINAL="11805" NAME="?PaneFromPoint@CPaneFrameWnd@@UAEPAVCBasePane@@VCPoint@@HH@Z" PURGE="-1" COMMENT="" />
    <EXPORT ORDINAL="11804" NAME="?PaneFromPoint@CPaneContainerManager@@UAEPAVCDockablePane@@VCPoint@@HHAAH1@Z" PURGE="-1" COMMENT="" />
    <EXPORT ORDINAL="11802" NAME="?PaneFromPoint@COleIPFrameWndEx@@QBEPAVCBasePane@@VCPoint@@H_NPAUCRuntimeClass@@@Z" PURGE="-1" COMMENT="" />
    <EXPORT ORDINAL="11803" NAME="?PaneFromPoint@COleIPFrameWndEx@@QBEPAVCBasePane@@VCPoint@@HAAKPAUCRuntimeClass@@@Z" PURGE="-1" COMMENT="" />
    <EXPORT ORDINAL="11800" NAME="?PaneFromPoint@COleDocIPFrameWndEx@@QBEPAVCBasePane@@VCPoint@@H_NPAUCRuntimeClass@@@Z" PURGE="-1" COMMENT="" />
    <EXPORT ORDINAL="11801" NAME="?PaneFromPoint@COleDocIPFrameWndEx@@QBEPAVCBasePane@@VCPoint@@HAAKPAUCRuntimeClass@@@Z" PURGE="-1" COMMENT="" />
    <EXPORT ORDINAL="11798" NAME="?PaneFromPoint@COleCntrFrameWndEx@@QBEPAVCBasePane@@VCPoint@@H_NPAUCRuntimeClass@@@Z" PURGE="-1" COMMENT="" />
    <EXPORT ORDINAL="11799" NAME="?PaneFromPoint@COleCntrFrameWndEx@@QBEPAVCBasePane@@VCPoint@@HAAKPAUCRuntimeClass@@@Z" PURGE="-1" COMMENT="" />
    <EXPORT ORDINAL="11797" NAME="?PaneFromPoint@CMultiPaneFrameWnd@@UAEPAVCBasePane@@VCPoint@@HH@Z" PURGE="-1" COMMENT="" />
    <EXPORT ORDINAL="11795" NAME="?PaneFromPoint@CMDIFrameWndEx@@QBEPAVCBasePane@@VCPoint@@H_NPAUCRuntimeClass@@@Z" PURGE="-1" COMMENT="" />
    <EXPORT ORDINAL="11796" NAME="?PaneFromPoint@CMDIFrameWndEx@@QBEPAVCBasePane@@VCPoint@@HAAKPAUCRuntimeClass@@@Z" PURGE="-1" COMMENT="" />
    <EXPORT ORDINAL="11793" NAME="?PaneFromPoint@CMDIChildWndEx@@QBEPAVCBasePane@@VCPoint@@H_NPAUCRuntimeClass@@@Z" PURGE="-1" COMMENT="" />
    <EXPORT ORDINAL="11794" NAME="?PaneFromPoint@CMDIChildWndEx@@QBEPAVCBasePane@@VCPoint@@HAAKPAUCRuntimeClass@@@Z" PURGE="-1" COMMENT="" />
    <EXPORT ORDINAL="11791" NAME="?PaneFromPoint@CFrameWndEx@@QBEPAVCBasePane@@VCPoint@@H_NPAUCRuntimeClass@@@Z" PURGE="-1" COMMENT="" />
    <EXPORT ORDINAL="11792" NAME="?PaneFromPoint@CFrameWndEx@@QBEPAVCBasePane@@VCPoint@@HAAKPAUCRuntimeClass@@@Z" PURGE="-1" COMMENT="" />
    <EXPORT ORDINAL="11788" NAME="?PaneFromPoint@CDockingManager@@UBEPAVCBasePane@@VCPoint@@H_NPAUCRuntimeClass@@HPBV2@@Z" PURGE="-1" COMMENT="" />
    <EXPORT ORDINAL="11789" NAME="?PaneFromPoint@CDockingManager@@UBEPAVCBasePane@@VCPoint@@HAAKPAUCRuntimeClass@@PBV2@@Z" PURGE="-1" COMMENT="" />
    <EXPORT ORDINAL="11790" NAME="?PaneFromPoint@CDockSite@@UAEPAVCPane@@VCPoint@@@Z" PURGE="-1" COMMENT="" />
    <EXPORT ORDINAL="11787" NAME="?PaneFromPoint@CBasePane@@QBEPAV1@VCPoint@@H_NPAUCRuntimeClass@@@Z" PURGE="-1" COMMENT="" />
    <EXPORT ORDINAL="11786" NAME="?PaintWindowlessControls@CWnd@@QAEHPAVCDC@@@Z" PURGE="-1" COMMENT="" />
    <EXPORT ORDINAL="11785" NAME="?PaintHookProc@CPageSetupDialog@@KGIPAUHWND__@@IIJ@Z" PURGE="-1" COMMENT="" />
    <EXPORT ORDINAL="11784" NAME="?PaginateTo@CRichEditView@@IAEHPAVCDC@@PAUCPrintInfo@@@Z" PURGE="-1" COMMENT="" />
    <EXPORT ORDINAL="11783" NAME="?PaginateTo@CEditView@@IAEHPAVCDC@@PAUCPrintInfo@@@Z" PURGE="-1" COMMENT="" />
    <EXPORT ORDINAL="12073" NAME="?PX_VBXFontConvert@@YAHPAVCPropExchange@@AAVCFontHolder@@@Z" PURGE="-1" COMMENT="" />
    <EXPORT ORDINAL="12072" NAME="?PX_UShort@@YAHPAVCPropExchange@@PBDAAGG@Z" PURGE="-1" COMMENT="" />
    <EXPORT ORDINAL="12071" NAME="?PX_UShort@@YAHPAVCPropExchange@@PBDAAG@Z" PURGE="-1" COMMENT="" />
    <EXPORT ORDINAL="12070" NAME="?PX_ULong@@YAHPAVCPropExchange@@PBDAAKK@Z" PURGE="-1" COMMENT="" />
    <EXPORT ORDINAL="12069" NAME="?PX_ULong@@YAHPAVCPropExchange@@PBDAAK@Z" PURGE="-1" COMMENT="" />
    <EXPORT ORDINAL="12068" NAME="?PX_String@@YAHPAVCPropExchange@@PBDAAV?$CStringT@DV?$StrTraitMFC_DLL@DV?$ChTraitsCRT@D@ATL@@@@@ATL@@ABV23@@Z" PURGE="-1" COMMENT="" />
    <EXPORT ORDINAL="12066" NAME="?PX_String@@YAHPAVCPropExchange@@PBDAAV?$CStringT@DV?$StrTraitMFC_DLL@DV?$ChTraitsCRT@D@ATL@@@@@ATL@@@Z" PURGE="-1" COMMENT="" />
    <EXPORT ORDINAL="12067" NAME="?PX_String@@YAHPAVCPropExchange@@PBDAAV?$CStringT@DV?$StrTraitMFC_DLL@DV?$ChTraitsCRT@D@ATL@@@@@ATL@@1@Z" PURGE="-1" COMMENT="" />
    <EXPORT ORDINAL="12065" NAME="?PX_Short@@YAHPAVCPropExchange@@PBDAAFF@Z" PURGE="-1" COMMENT="" />
    <EXPORT ORDINAL="12064" NAME="?PX_Short@@YAHPAVCPropExchange@@PBDAAF@Z" PURGE="-1" COMMENT="" />
    <EXPORT ORDINAL="12062" NAME="?PX_Picture@@YAHPAVCPropExchange@@PBDAAVCPictureHolder@@@Z" PURGE="-1" COMMENT="" />
    <EXPORT ORDINAL="12063" NAME="?PX_Picture@@YAHPAVCPropExchange@@PBDAAVCPictureHolder@@2@Z" PURGE="-1" COMMENT="" />
    <EXPORT ORDINAL="12061" NAME="?PX_Long@@YAHPAVCPropExchange@@PBDAAJJ@Z" PURGE="-1" COMMENT="" />
    <EXPORT ORDINAL="12060" NAME="?PX_Long@@YAHPAVCPropExchange@@PBDAAJ@Z" PURGE="-1" COMMENT="" />
    <EXPORT ORDINAL="12059" NAME="?PX_IUnknown@@YAHPAVCPropExchange@@PBDAAPAUIUnknown@@ABU_GUID@@PAU2@@Z" PURGE="-1" COMMENT="" />
    <EXPORT ORDINAL="12058" NAME="?PX_Font@@YAHPAVCPropExchange@@PBDAAVCFontHolder@@PBUtagFONTDESC@@PAUIFontDisp@@@Z" PURGE="-1" COMMENT="" />
    <EXPORT ORDINAL="12057" NAME="?PX_Float@@YAHPAVCPropExchange@@PBDAAMM@Z" PURGE="-1" COMMENT="" />
    <EXPORT ORDINAL="12056" NAME="?PX_Float@@YAHPAVCPropExchange@@PBDAAM@Z" PURGE="-1" COMMENT="" />
    <EXPORT ORDINAL="12055" NAME="?PX_Double@@YAHPAVCPropExchange@@PBDAANN@Z" PURGE="-1" COMMENT="" />
    <EXPORT ORDINAL="12054" NAME="?PX_Double@@YAHPAVCPropExchange@@PBDAAN@Z" PURGE="-1" COMMENT="" />
    <EXPORT ORDINAL="12053" NAME="?PX_DataPath@@YAHPAVCPropExchange@@PBDAAVCDataPathProperty@@ABV?$CStringT@DV?$StrTraitMFC_DLL@DV?$ChTraitsCRT@D@ATL@@@@@ATL@@@Z" PURGE="-1" COMMENT="" />
    <EXPORT ORDINAL="12052" NAME="?PX_DataPath@@YAHPAVCPropExchange@@PBDAAVCDataPathProperty@@1@Z" PURGE="-1" COMMENT="" />
    <EXPORT ORDINAL="12051" NAME="?PX_Currency@@YAHPAVCPropExchange@@PBDAATtagCY@@T2@@Z" PURGE="-1" COMMENT="" />
    <EXPORT ORDINAL="12050" NAME="?PX_Currency@@YAHPAVCPropExchange@@PBDAATtagCY@@@Z" PURGE="-1" COMMENT="" />
    <EXPORT ORDINAL="12049" NAME="?PX_Color@@YAHPAVCPropExchange@@PBDAAKK@Z" PURGE="-1" COMMENT="" />
    <EXPORT ORDINAL="12048" NAME="?PX_Color@@YAHPAVCPropExchange@@PBDAAK@Z" PURGE="-1" COMMENT="" />
    <EXPORT ORDINAL="12047" NAME="?PX_Bool@@YAHPAVCPropExchange@@PBDAAHH@Z" PURGE="-1" COMMENT="" />
    <EXPORT ORDINAL="12046" NAME="?PX_Bool@@YAHPAVCPropExchange@@PBDAAH@Z" PURGE="-1" COMMENT="" />
    <EXPORT ORDINAL="12045" NAME="?PX_Blob@@YAHPAVCPropExchange@@PBDAAPAXPAX@Z" PURGE="-1" COMMENT="" />
    <EXPORT ORDINAL="11841" NAME="?PLookup@CMapStringToString@@QBEPBUCPair@1@PBD@Z" PURGE="-1" COMMENT="" />
    <EXPORT ORDINAL="11840" NAME="?PLookup@CMapStringToString@@QAEPAUCPair@1@PBD@Z" PURGE="-1" COMMENT="" />
    <EXPORT ORDINAL="11833" NAME="?PGetNextAssoc@CMapStringToString@@QBEPBUCPair@1@PBU21@@Z" PURGE="-1" COMMENT="" />
    <EXPORT ORDINAL="11832" NAME="?PGetNextAssoc@CMapStringToString@@QAEPAUCPair@1@PBU21@@Z" PURGE="-1" COMMENT="" />
    <EXPORT ORDINAL="11831" NAME="?PGetFirstAssoc@CMapStringToString@@QBEPBUCPair@1@XZ" PURGE="-1" COMMENT="" />
    <EXPORT ORDINAL="11830" NAME="?PGetFirstAssoc@CMapStringToString@@QAEPAUCPair@1@XZ" PURGE="-1" COMMENT="" />
    <EXPORT ORDINAL="11782" NAME="?OutputString@CDumpContext@@IAEXPBD@Z" PURGE="-1" COMMENT="" />
    <EXPORT ORDINAL="11781" NAME="?Outline@CD2DGeometry@@QBEHABUD2D_MATRIX_3X2_F@@PAUID2D1SimplifiedGeometrySink@@M@Z" PURGE="-1" COMMENT="" />
    <EXPORT ORDINAL="11779" NAME="?OsErrorToException@CFileException@@SGHJ@Z" PURGE="-1" COMMENT="" />
    <EXPORT ORDINAL="11778" NAME="?OpenURL@CInternetSession@@QAEPAVCStdioFile@@PBDKK0K@Z" PURGE="-1" COMMENT="" />
    <EXPORT ORDINAL="11777" NAME="?OpenURL@CHtmlEditDoc@@UAEHPBD@Z" PURGE="-1" COMMENT="" />
    <EXPORT ORDINAL="11776" NAME="?OpenStream@COleStreamFile@@QAEHPAUIStorage@@PBDKPAVCFileException@@@Z" PURGE="-1" COMMENT="" />
    <EXPORT ORDINAL="11775" NAME="?OpenRequest@CHttpConnection@@QAEPAVCHttpFile@@PBD00KPAPBD0K@Z" PURGE="-1" COMMENT="" />
    <EXPORT ORDINAL="11774" NAME="?OpenRequest@CHttpConnection@@QAEPAVCHttpFile@@HPBD0KPAPBD0K@Z" PURGE="-1" COMMENT="" />
    <EXPORT ORDINAL="11773" NAME="?OpenPopupMenu@CMFCToolBarMenuButton@@UAEHPAVCWnd@@@Z" PURGE="-1" COMMENT="" />
    <EXPORT ORDINAL="11772" NAME="?OpenPopupMenu@CMFCShowAllButton@@UAEHPAVCWnd@@@Z" PURGE="-1" COMMENT="" />
    <EXPORT ORDINAL="11771" NAME="?OpenLinkSource@COleUILinkInfo@@UAGJK@Z" PURGE="-1" COMMENT="" />
    <EXPORT ORDINAL="11770" NAME="?OpenLink@CMFCRibbonLinkCtrl@@QAEHXZ" PURGE="-1" COMMENT="" />
    <EXPORT ORDINAL="11769" NAME="?OpenFile@CGopherConnection@@QAEPAVCGopherFile@@AAVCGopherLocator@@KPBDK@Z" PURGE="-1" COMMENT="" />
    <EXPORT ORDINAL="11768" NAME="?OpenFile@CFtpConnection@@QAEPAVCInternetFile@@PBDKKK@Z" PURGE="-1" COMMENT="" />
    <EXPORT ORDINAL="11767" NAME="?OpenEx@CDatabase@@UAEHPBDK@Z" PURGE="-1" COMMENT="" />
    <EXPORT ORDINAL="11766" NAME="?OpenDocumentFile@CWinApp@@UAEPAVCDocument@@PBDH@Z" PURGE="-1" COMMENT="" />
    <EXPORT ORDINAL="11765" NAME="?OpenDocumentFile@CWinApp@@UAEPAVCDocument@@PBD@Z" PURGE="-1" COMMENT="" />
    <EXPORT ORDINAL="11764" NAME="?OpenDocumentFile@CSingleDocTemplate@@UAEPAVCDocument@@PBDHH@Z" PURGE="-1" COMMENT="" />
    <EXPORT ORDINAL="11763" NAME="?OpenDocumentFile@CSingleDocTemplate@@UAEPAVCDocument@@PBDH@Z" PURGE="-1" COMMENT="" />
    <EXPORT ORDINAL="11762" NAME="?OpenDocumentFile@CMultiDocTemplate@@UAEPAVCDocument@@PBDHH@Z" PURGE="-1" COMMENT="" />
    <EXPORT ORDINAL="11761" NAME="?OpenDocumentFile@CMultiDocTemplate@@UAEPAVCDocument@@PBDH@Z" PURGE="-1" COMMENT="" />
    <EXPORT ORDINAL="11760" NAME="?OpenDocumentFile@CDocManager@@UAEPAVCDocument@@PBDH@Z" PURGE="-1" COMMENT="" />
    <EXPORT ORDINAL="11759" NAME="?OpenDocumentFile@CDocManager@@UAEPAVCDocument@@PBD@Z" PURGE="-1" COMMENT="" />
    <EXPORT ORDINAL="11758" NAME="?OpenColorDialog@CMFCColorMenuButton@@UAEHKAAK@Z" PURGE="-1" COMMENT="" />
    <EXPORT ORDINAL="11757" NAME="?OpenColorDialog@CMFCColorBar@@MAEHKAAK@Z" PURGE="-1" COMMENT="" />
    <EXPORT ORDINAL="11756" NAME="?Open@XOleDocumentView@CDocObjectServer@@UAGJXZ" PURGE="-1" COMMENT="" />
    <EXPORT ORDINAL="11755" NAME="?Open@CStdioFile@@UAEHPBDIPAVCFileException@@@Z" PURGE="-1" COMMENT="" />
    <EXPORT ORDINAL="11754" NAME="?Open@CStdioFile@@UAEHPBDIPAVCAtlTransactionManager@ATL@@PAVCFileException@@@Z" PURGE="-1" COMMENT="" />
    <EXPORT ORDINAL="11753" NAME="?Open@CSocketFile@@UAEHPBDIPAVCFileException@@@Z" PURGE="-1" COMMENT="" />
    <EXPORT ORDINAL="11752" NAME="?Open@CSettingsStore@@UAEHPBD@Z" PURGE="-1" COMMENT="" />
    <EXPORT ORDINAL="11751" NAME="?Open@CRecordset@@UAEHIPBDK@Z" PURGE="-1" COMMENT="" />
    <EXPORT ORDINAL="11750" NAME="?Open@CMonikerFile@@UAEHPBDPAVCFileException@@@Z" PURGE="-1" COMMENT="" />
    <EXPORT ORDINAL="11749" NAME="?Open@CMonikerFile@@UAEHPAUIMoniker@@PAVCFileException@@@Z" PURGE="-1" COMMENT="" />
    <EXPORT ORDINAL="11748" NAME="?Open@CMonikerFile@@MAEHPBDPAUIBindHost@@PAUIBindStatusCallback@@PAUIBindCtx@@PAVCFileException@@@Z" PURGE="-1" COMMENT="" />
    <EXPORT ORDINAL="11747" NAME="?Open@CMonikerFile@@MAEHPAUIMoniker@@PAUIBindHost@@PAUIBindStatusCallback@@PAUIBindCtx@@PAVCFileException@@@Z" PURGE="-1" COMMENT="" />
    <EXPORT ORDINAL="11746" NAME="?Open@CMirrorFile@@UAEHPBDIPAVCFileException@@@Z" PURGE="-1" COMMENT="" />
    <EXPORT ORDINAL="11745" NAME="?Open@CFile@@UAEHPBDIPAVCFileException@@@Z" PURGE="-1" COMMENT="" />
    <EXPORT ORDINAL="11744" NAME="?Open@CFile@@UAEHPBDIPAVCAtlTransactionManager@ATL@@PAVCFileException@@@Z" PURGE="-1" COMMENT="" />
    <EXPORT ORDINAL="11739" NAME="?Open@CDatabase@@UAEHPBDHH0H@Z" PURGE="-1" COMMENT="" />
    <EXPORT ORDINAL="11743" NAME="?Open@CDataPathProperty@@UAEHPBDPAVCOleControl@@PAVCFileException@@@Z" PURGE="-1" COMMENT="" />
    <EXPORT ORDINAL="11742" NAME="?Open@CDataPathProperty@@UAEHPBDPAVCFileException@@@Z" PURGE="-1" COMMENT="" />
    <EXPORT ORDINAL="11741" NAME="?Open@CDataPathProperty@@UAEHPAVCOleControl@@PAVCFileException@@@Z" PURGE="-1" COMMENT="" />
    <EXPORT ORDINAL="11740" NAME="?Open@CDataPathProperty@@UAEHPAVCFileException@@@Z" PURGE="-1" COMMENT="" />
    <EXPORT ORDINAL="11738" NAME="?Open@CDaoWorkspace@@UAEXPBD@Z" PURGE="-1" COMMENT="" />
    <EXPORT ORDINAL="11737" NAME="?Open@CDaoTableDef@@UAEXPBD@Z" PURGE="-1" COMMENT="" />
    <EXPORT ORDINAL="11736" NAME="?Open@CDaoRecordset@@UAEXPAVCDaoTableDef@@HH@Z" PURGE="-1" COMMENT="" />
    <EXPORT ORDINAL="11735" NAME="?Open@CDaoRecordset@@UAEXPAVCDaoQueryDef@@HH@Z" PURGE="-1" COMMENT="" />
    <EXPORT ORDINAL="11734" NAME="?Open@CDaoRecordset@@UAEXHPBDH@Z" PURGE="-1" COMMENT="" />
    <EXPORT ORDINAL="11733" NAME="?Open@CDaoQueryDef@@UAEXPBD@Z" PURGE="-1" COMMENT="" />
    <EXPORT ORDINAL="11732" NAME="?Open@CDaoDatabase@@UAEXPBDHH0@Z" PURGE="-1" COMMENT="" />
    <EXPORT ORDINAL="11731" NAME="?Open@CD2DPathGeometry@@QAEPAUID2D1GeometrySink@@XZ" PURGE="-1" COMMENT="" />
    <EXPORT ORDINAL="11730" NAME="?Open@CD2DMesh@@QAEPAUID2D1TessellationSink@@XZ" PURGE="-1" COMMENT="" />
    <EXPORT ORDINAL="11729" NAME="?Open@CAsyncMonikerFile@@UAEHPBDPAVCFileException@@@Z" PURGE="-1" COMMENT="" />
    <EXPORT ORDINAL="11728" NAME="?Open@CAsyncMonikerFile@@UAEHPBDPAUIUnknown@@PAVCFileException@@@Z" PURGE="-1" COMMENT="" />
    <EXPORT ORDINAL="11727" NAME="?Open@CAsyncMonikerFile@@UAEHPBDPAUIServiceProvider@@PAVCFileException@@@Z" PURGE="-1" COMMENT="" />
    <EXPORT ORDINAL="11726" NAME="?Open@CAsyncMonikerFile@@UAEHPBDPAUIBindHost@@PAVCFileException@@@Z" PURGE="-1" COMMENT="" />
    <EXPORT ORDINAL="11725" NAME="?Open@CAsyncMonikerFile@@UAEHPAUIMoniker@@PAVCFileException@@@Z" PURGE="-1" COMMENT="" />
    <EXPORT ORDINAL="11724" NAME="?Open@CAsyncMonikerFile@@UAEHPAUIMoniker@@PAUIUnknown@@PAVCFileException@@@Z" PURGE="-1" COMMENT="" />
    <EXPORT ORDINAL="11723" NAME="?Open@CAsyncMonikerFile@@UAEHPAUIMoniker@@PAUIServiceProvider@@PAVCFileException@@@Z" PURGE="-1" COMMENT="" />
    <EXPORT ORDINAL="11722" NAME="?Open@CAsyncMonikerFile@@UAEHPAUIMoniker@@PAUIBindHost@@PAVCFileException@@@Z" PURGE="-1" COMMENT="" />
    <EXPORT ORDINAL="11721" NAME="?OnZoomOut@CPreviewView@@IAEXXZ" PURGE="-1" COMMENT="" />
    <EXPORT ORDINAL="11720" NAME="?OnZoomIn@CPreviewView@@IAEXXZ" PURGE="-1" COMMENT="" />
    <EXPORT ORDINAL="11719" NAME="?OnWndMsg@CWnd@@MAEHIIJPAJ@Z" PURGE="-1" COMMENT="" />
    <EXPORT ORDINAL="11718" NAME="?OnWizardNext@CPropertyPage@@UAEJXZ" PURGE="-1" COMMENT="" />
    <EXPORT ORDINAL="11717" NAME="?OnWizardFinishEx@CPropertyPage@@UAEPAUHWND__@@XZ" PURGE="-1" COMMENT="" />
    <EXPORT ORDINAL="11716" NAME="?OnWizardFinish@CPropertyPage@@UAEHXZ" PURGE="-1" COMMENT="" />
    <EXPORT ORDINAL="11715" NAME="?OnWizardBack@CPropertyPage@@UAEJXZ" PURGE="-1" COMMENT="" />
    <EXPORT ORDINAL="11691" NAME="?OnWindowlessMessage@COleControl@@UAEHIIJPAJ@Z" PURGE="-1" COMMENT="" />
    <EXPORT ORDINAL="11714" NAME="?OnWindowPosChanging@CVSListBoxEditCtrl@@IAEXPAUtagWINDOWPOS@@@Z" PURGE="-1" COMMENT="" />
    <EXPORT ORDINAL="11713" NAME="?OnWindowPosChanging@CToolBar@@IAEXPAUtagWINDOWPOS@@@Z" PURGE="-1" COMMENT="" />
    <EXPORT ORDINAL="11712" NAME="?OnWindowPosChanging@CStatusBar@@IAEXPAUtagWINDOWPOS@@@Z" PURGE="-1" COMMENT="" />
    <EXPORT ORDINAL="11711" NAME="?OnWindowPosChanging@CPaneFrameWnd@@IAEXPAUtagWINDOWPOS@@@Z" PURGE="-1" COMMENT="" />
    <EXPORT ORDINAL="11710" NAME="?OnWindowPosChanging@CPaneDialog@@QAEXPAUtagWINDOWPOS@@@Z" PURGE="-1" COMMENT="" />
    <EXPORT ORDINAL="11709" NAME="?OnWindowPosChanging@COleIPFrameWnd@@IAEXPAUtagWINDOWPOS@@@Z" PURGE="-1" COMMENT="" />
    <EXPORT ORDINAL="11708" NAME="?OnWindowPosChanging@CMFCToolBar@@IAEXPAUtagWINDOWPOS@@@Z" PURGE="-1" COMMENT="" />
    <EXPORT ORDINAL="11707" NAME="?OnWindowPosChanging@CMFCTabCtrl@@IAEXPAUtagWINDOWPOS@@@Z" PURGE="-1" COMMENT="" />
    <EXPORT ORDINAL="11706" NAME="?OnWindowPosChanging@CMDIChildWnd@@IAEXPAUtagWINDOWPOS@@@Z" PURGE="-1" COMMENT="" />
    <EXPORT ORDINAL="11705" NAME="?OnWindowPosChanging@CFrameImpl@@IAEXPAUtagWINDOWPOS@@@Z" PURGE="-1" COMMENT="" />
    <EXPORT ORDINAL="11704" NAME="?OnWindowPosChanging@CDockBar@@IAEXPAUtagWINDOWPOS@@@Z" PURGE="-1" COMMENT="" />
    <EXPORT ORDINAL="11703" NAME="?OnWindowPosChanging@CControlBar@@QAEXPAUtagWINDOWPOS@@@Z" PURGE="-1" COMMENT="" />
    <EXPORT ORDINAL="11702" NAME="?OnWindowPosChanged@CMFCToolBar@@IAEXPAUtagWINDOWPOS@@@Z" PURGE="-1" COMMENT="" />
    <EXPORT ORDINAL="11701" NAME="?OnWindowPosChanged@CMFCTabCtrl@@IAEXPAUtagWINDOWPOS@@@Z" PURGE="-1" COMMENT="" />
    <EXPORT ORDINAL="11700" NAME="?OnWindowPosChanged@CMFCPopupMenu@@IAEXPAUtagWINDOWPOS@@@Z" PURGE="-1" COMMENT="" />
    <EXPORT ORDINAL="11699" NAME="?OnWindowPosChanged@CMFCDesktopAlertWnd@@IAEXPAUtagWINDOWPOS@@@Z" PURGE="-1" COMMENT="" />
    <EXPORT ORDINAL="11698" NAME="?OnWindowPosChanged@CMFCBaseTabCtrl@@IAEXPAUtagWINDOWPOS@@@Z" PURGE="-1" COMMENT="" />
    <EXPORT ORDINAL="11697" NAME="?OnWindowPosChanged@CMDIFrameWndEx@@IAEXPAUtagWINDOWPOS@@@Z" PURGE="-1" COMMENT="" />
    <EXPORT ORDINAL="11696" NAME="?OnWindowPosChanged@CMDIChildWndEx@@IAEXPAUtagWINDOWPOS@@@Z" PURGE="-1" COMMENT="" />
    <EXPORT ORDINAL="11695" NAME="?OnWindowPosChanged@CFrameWndEx@@QAEXPAUtagWINDOWPOS@@@Z" PURGE="-1" COMMENT="" />
    <EXPORT ORDINAL="11694" NAME="?OnWindowNew@CMDIFrameWndEx@@IAEXXZ" PURGE="-1" COMMENT="" />
    <EXPORT ORDINAL="11693" NAME="?OnWindowNew@CMDIFrameWnd@@IAEXXZ" PURGE="-1" COMMENT="" />
    <EXPORT ORDINAL="11692" NAME="?OnWindowMessage@XOleInPlaceObject@COleControl@@UAGJIIJPAJ@Z" PURGE="-1" COMMENT="" />
    <EXPORT ORDINAL="11690" NAME="?OnWindowHelp@CMFCWindowsManagerDialog@@IAEXXZ" PURGE="-1" COMMENT="" />
    <EXPORT ORDINAL="11689" NAME="?OnWindowFromPoint@CToolTipCtrl@@IAEJIJ@Z" PURGE="-1" COMMENT="" />
    <EXPORT ORDINAL="11677" NAME="?OnVisible@CHtmlView@@UAEXH@Z" PURGE="-1" COMMENT="" />
    <EXPORT ORDINAL="11676" NAME="?OnViewDoubleClick@CWinAppEx@@UAEHPAVCWnd@@H@Z" PURGE="-1" COMMENT="" />
    <EXPORT ORDINAL="11675" NAME="?OnViewChange@XAdviseSink@COleClientItem@@UAGXKJ@Z" PURGE="-1" COMMENT="" />
    <EXPORT ORDINAL="11688" NAME="?OnVScroll@CWnd@@IAEXIIPAVCScrollBar@@@Z" PURGE="-1" COMMENT="" />
    <EXPORT ORDINAL="11687" NAME="?OnVScroll@CSplitterWnd@@IAEXIIPAVCScrollBar@@@Z" PURGE="-1" COMMENT="" />
    <EXPORT ORDINAL="11686" NAME="?OnVScroll@CScrollView@@QAEXIIPAVCScrollBar@@@Z" PURGE="-1" COMMENT="" />
    <EXPORT ORDINAL="11685" NAME="?OnVScroll@CPreviewView@@IAEXIIPAVCScrollBar@@@Z" PURGE="-1" COMMENT="" />
    <EXPORT ORDINAL="11684" NAME="?OnVScroll@CMFCToolBarButtonsListButton@@IAEXIIPAVCScrollBar@@@Z" PURGE="-1" COMMENT="" />
    <EXPORT ORDINAL="11683" NAME="?OnVScroll@CMFCTasksPane@@IAEXIIPAVCScrollBar@@@Z" PURGE="-1" COMMENT="" />
    <EXPORT ORDINAL="11682" NAME="?OnVScroll@CMFCRibbonPanelMenuBar@@IAEXIIPAVCScrollBar@@@Z" PURGE="-1" COMMENT="" />
    <EXPORT ORDINAL="11681" NAME="?OnVScroll@CMFCPropertyGridCtrl@@IAEXIIPAVCScrollBar@@@Z" PURGE="-1" COMMENT="" />
    <EXPORT ORDINAL="11680" NAME="?OnVScroll@CMFCPopupMenu@@IAEXIIPAVCScrollBar@@@Z" PURGE="-1" COMMENT="" />
    <EXPORT ORDINAL="11679" NAME="?OnVScroll@CFrameWnd@@IAEXIIPAVCScrollBar@@@Z" PURGE="-1" COMMENT="" />
    <EXPORT ORDINAL="11678" NAME="?OnVKeyToItem@CWnd@@IAEHIPAVCListBox@@I@Z" PURGE="-1" COMMENT="" />
    <EXPORT ORDINAL="11674" NAME="?OnUserToolTip@CMFCToolBar@@UBEHPAVCMFCToolBarButton@@AAV?$CStringT@DV?$StrTraitMFC_DLL@DV?$ChTraitsCRT@D@ATL@@@@@ATL@@@Z" PURGE="-1" COMMENT="" />
    <EXPORT ORDINAL="11673" NAME="?OnUserToolTip@CMFCTasksPaneToolBar@@MBEHPAVCMFCToolBarButton@@AAV?$CStringT@DV?$StrTraitMFC_DLL@DV?$ChTraitsCRT@D@ATL@@@@@ATL@@@Z" PURGE="-1" COMMENT="" />
    <EXPORT ORDINAL="11672" NAME="?OnUserToolTip@CMFCOutlookBarToolBar@@UBEHPAVCMFCToolBarButton@@AAV?$CStringT@DV?$StrTraitMFC_DLL@DV?$ChTraitsCRT@D@ATL@@@@@ATL@@@Z" PURGE="-1" COMMENT="" />
    <EXPORT ORDINAL="11671" NAME="?OnUserImage@CMFCToolBarButtonCustomizeDialog@@IAEXXZ" PURGE="-1" COMMENT="" />
    <EXPORT ORDINAL="11670" NAME="?OnUseDblcliick@CMFCMousePropertyPage@@IAEXXZ" PURGE="-1" COMMENT="" />
    <EXPORT ORDINAL="11669" NAME="?OnUpdateZoomOut@CPreviewView@@IAEXPAVCCmdUI@@@Z" PURGE="-1" COMMENT="" />
    <EXPORT ORDINAL="11668" NAME="?OnUpdateZoomIn@CPreviewView@@IAEXPAVCCmdUI@@@Z" PURGE="-1" COMMENT="" />
    <EXPORT ORDINAL="11667" NAME="?OnUpdateValue@CMFCPropertyGridProperty@@UAEHXZ" PURGE="-1" COMMENT="" />
    <EXPORT ORDINAL="11666" NAME="?OnUpdateValue@CMFCPropertyGridColorProperty@@UAEHXZ" PURGE="-1" COMMENT="" />
    <EXPORT ORDINAL="11665" NAME="?OnUpdateUI@CHtmlView@@UAEJXZ" PURGE="-1" COMMENT="" />
    <EXPORT ORDINAL="11645" NAME="?OnUpdateToolbarName@CMFCToolBarNameDialog@@IAEXXZ" PURGE="-1" COMMENT="" />
    <EXPORT ORDINAL="11644" NAME="?OnUpdateToolbarCommand@CMFCOutlookBarTabCtrl@@IAEXPAVCCmdUI@@@Z" PURGE="-1" COMMENT="" />
    <EXPORT ORDINAL="11664" NAME="?OnUpdateToolTips@CPaneFrameWnd@@IAEJIJ@Z" PURGE="-1" COMMENT="" />
    <EXPORT ORDINAL="11663" NAME="?OnUpdateToolTips@CMFCToolBar@@IAEJIJ@Z" PURGE="-1" COMMENT="" />
    <EXPORT ORDINAL="11662" NAME="?OnUpdateToolTips@CMFCTabCtrl@@IAEJIJ@Z" PURGE="-1" COMMENT="" />
    <EXPORT ORDINAL="11661" NAME="?OnUpdateToolTips@CMFCRibbonPanelMenuBar@@IAEJIJ@Z" PURGE="-1" COMMENT="" />
    <EXPORT ORDINAL="11660" NAME="?OnUpdateToolTips@CMFCRibbonBar@@IAEJIJ@Z" PURGE="-1" COMMENT="" />
    <EXPORT ORDINAL="11659" NAME="?OnUpdateToolTips@CMFCCaptionBar@@IAEJIJ@Z" PURGE="-1" COMMENT="" />
    <EXPORT ORDINAL="11658" NAME="?OnUpdateToolTips@CMFCButton@@IAEJIJ@Z" PURGE="-1" COMMENT="" />
    <EXPORT ORDINAL="11657" NAME="?OnUpdateToolTips@CDockablePane@@IAEJIJ@Z" PURGE="-1" COMMENT="" />
    <EXPORT ORDINAL="11656" NAME="?OnUpdateToolTip@CMFCToolBarSpinEditBoxButton@@MAEHPAVCWnd@@HAAVCToolTipCtrl@@AAV?$CStringT@DV?$StrTraitMFC_DLL@DV?$ChTraitsCRT@D@ATL@@@@@ATL@@@Z" PURGE="-1" COMMENT="" />
    <EXPORT ORDINAL="11655" NAME="?OnUpdateToolTip@CMFCToolBarEditBoxButton@@UAEHPAVCWnd@@HAAVCToolTipCtrl@@AAV?$CStringT@DV?$StrTraitMFC_DLL@DV?$ChTraitsCRT@D@ATL@@@@@ATL@@@Z" PURGE="-1" COMMENT="" />
    <EXPORT ORDINAL="11654" NAME="?OnUpdateToolTip@CMFCToolBarDateTimeCtrl@@UAEHPAVCWnd@@HAAVCToolTipCtrl@@AAV?$CStringT@DV?$StrTraitMFC_DLL@DV?$ChTraitsCRT@D@ATL@@@@@ATL@@@Z" PURGE="-1" COMMENT="" />
    <EXPORT ORDINAL="11653" NAME="?OnUpdateToolTip@CMFCToolBarComboBoxButton@@UAEHPAVCWnd@@HAAVCToolTipCtrl@@AAV?$CStringT@DV?$StrTraitMFC_DLL@DV?$ChTraitsCRT@D@ATL@@@@@ATL@@@Z" PURGE="-1" COMMENT="" />
    <EXPORT ORDINAL="11652" NAME="?OnUpdateToolRect@CMFCImageEditorDialog@@IAEXPAVCCmdUI@@@Z" PURGE="-1" COMMENT="" />
    <EXPORT ORDINAL="11651" NAME="?OnUpdateToolPick@CMFCImageEditorDialog@@IAEXPAVCCmdUI@@@Z" PURGE="-1" COMMENT="" />
    <EXPORT ORDINAL="11650" NAME="?OnUpdateToolPen@CMFCImageEditorDialog@@IAEXPAVCCmdUI@@@Z" PURGE="-1" COMMENT="" />
    <EXPORT ORDINAL="11649" NAME="?OnUpdateToolPaste@CMFCImageEditorDialog@@IAEXPAVCCmdUI@@@Z" PURGE="-1" COMMENT="" />
    <EXPORT ORDINAL="11648" NAME="?OnUpdateToolLine@CMFCImageEditorDialog@@IAEXPAVCCmdUI@@@Z" PURGE="-1" COMMENT="" />
    <EXPORT ORDINAL="11647" NAME="?OnUpdateToolFill@CMFCImageEditorDialog@@IAEXPAVCCmdUI@@@Z" PURGE="-1" COMMENT="" />
    <EXPORT ORDINAL="11646" NAME="?OnUpdateToolEllipse@CMFCImageEditorDialog@@IAEXPAVCCmdUI@@@Z" PURGE="-1" COMMENT="" />
    <EXPORT ORDINAL="11643" NAME="?OnUpdateTool@CMFCToolBarsToolsPropertyPage@@IAEXXZ" PURGE="-1" COMMENT="" />
    <EXPORT ORDINAL="11642" NAME="?OnUpdateTabs@CMDIClientAreaWnd@@IAEJIJ@Z" PURGE="-1" COMMENT="" />
    <EXPORT ORDINAL="11640" NAME="?OnUpdateSystemColors@CMFCVisualManagerWindows@@UAEXXZ" PURGE="-1" COMMENT="" />
    <EXPORT ORDINAL="11641" NAME="?OnUpdateSystemColors@CMFCVisualManagerWindows7@@UAEXXZ" PURGE="-1" COMMENT="" />
    <EXPORT ORDINAL="11639" NAME="?OnUpdateSystemColors@CMFCVisualManagerVS2008@@UAEXXZ" PURGE="-1" COMMENT="" />
    <EXPORT ORDINAL="11638" NAME="?OnUpdateSystemColors@CMFCVisualManagerVS2005@@UAEXXZ" PURGE="-1" COMMENT="" />
    <EXPORT ORDINAL="11637" NAME="?OnUpdateSystemColors@CMFCVisualManagerOfficeXP@@MAEXXZ" PURGE="-1" COMMENT="" />
    <EXPORT ORDINAL="11636" NAME="?OnUpdateSystemColors@CMFCVisualManagerOffice2007@@UAEXXZ" PURGE="-1" COMMENT="" />
    <EXPORT ORDINAL="11635" NAME="?OnUpdateSystemColors@CMFCVisualManagerOffice2003@@UAEXXZ" PURGE="-1" COMMENT="" />
    <EXPORT ORDINAL="11634" NAME="?OnUpdateSystemColors@CMFCVisualManager@@UAEXXZ" PURGE="-1" COMMENT="" />
    <EXPORT ORDINAL="11633" NAME="?OnUpdateSplitCmd@CView@@IAEXPAVCCmdUI@@@Z" PURGE="-1" COMMENT="" />
    <EXPORT ORDINAL="11632" NAME="?OnUpdateSpin@CMFCPropertyGridCtrl@@IAEJIJ@Z" PURGE="-1" COMMENT="" />
    <EXPORT ORDINAL="11631" NAME="?OnUpdateShadows@CMFCRibbonStatusBar@@IAEJIJ@Z" PURGE="-1" COMMENT="" />
    <EXPORT ORDINAL="11630" NAME="?OnUpdateRecordPrev@CRecordView@@IAEXPAVCCmdUI@@@Z" PURGE="-1" COMMENT="" />
    <EXPORT ORDINAL="11629" NAME="?OnUpdateRecordPrev@COleDBRecordView@@IAEXPAVCCmdUI@@@Z" PURGE="-1" COMMENT="" />
    <EXPORT ORDINAL="11628" NAME="?OnUpdateRecordNext@CRecordView@@IAEXPAVCCmdUI@@@Z" PURGE="-1" COMMENT="" />
    <EXPORT ORDINAL="11627" NAME="?OnUpdateRecordNext@COleDBRecordView@@IAEXPAVCCmdUI@@@Z" PURGE="-1" COMMENT="" />
    <EXPORT ORDINAL="11626" NAME="?OnUpdateRecordLast@CRecordView@@IAEXPAVCCmdUI@@@Z" PURGE="-1" COMMENT="" />
    <EXPORT ORDINAL="11625" NAME="?OnUpdateRecordLast@COleDBRecordView@@IAEXPAVCCmdUI@@@Z" PURGE="-1" COMMENT="" />
    <EXPORT ORDINAL="11624" NAME="?OnUpdateRecordFirst@CRecordView@@IAEXPAVCCmdUI@@@Z" PURGE="-1" COMMENT="" />
    <EXPORT ORDINAL="11623" NAME="?OnUpdateRecordFirst@COleDBRecordView@@IAEXPAVCCmdUI@@@Z" PURGE="-1" COMMENT="" />
    <EXPORT ORDINAL="11622" NAME="?OnUpdateRecentFileMenu@CWinApp@@IAEXPAVCCmdUI@@@Z" PURGE="-1" COMMENT="" />
    <EXPORT ORDINAL="11621" NAME="?OnUpdateR@CMFCMaskedEdit@@IAEHXZ" PURGE="-1" COMMENT="" />
    <EXPORT ORDINAL="11619" NAME="?OnUpdatePreviewNumPage@CPreviewViewEx@@IAEXPAVCCmdUI@@@Z" PURGE="-1" COMMENT="" />
    <EXPORT ORDINAL="11620" NAME="?OnUpdatePrevPage@CPreviewView@@IAEXPAVCCmdUI@@@Z" PURGE="-1" COMMENT="" />
    <EXPORT ORDINAL="11618" NAME="?OnUpdatePasteMenu@COleDocument@@IAEXPAVCCmdUI@@@Z" PURGE="-1" COMMENT="" />
    <EXPORT ORDINAL="11617" NAME="?OnUpdatePasteLinkMenu@COleDocument@@IAEXPAVCCmdUI@@@Z" PURGE="-1" COMMENT="" />
    <EXPORT ORDINAL="11616" NAME="?OnUpdateParaRight@CRichEditView@@IAEXPAVCCmdUI@@@Z" PURGE="-1" COMMENT="" />
    <EXPORT ORDINAL="11615" NAME="?OnUpdateParaLeft@CRichEditView@@IAEXPAVCCmdUI@@@Z" PURGE="-1" COMMENT="" />
    <EXPORT ORDINAL="11614" NAME="?OnUpdateParaCenter@CRichEditView@@IAEXPAVCCmdUI@@@Z" PURGE="-1" COMMENT="" />
    <EXPORT ORDINAL="11613" NAME="?OnUpdateParaAlign@CRichEditView@@QAEXPAVCCmdUI@@G@Z" PURGE="-1" COMMENT="" />
    <EXPORT ORDINAL="11612" NAME="?OnUpdatePaneMenu@COleIPFrameWndEx@@IAEXPAVCCmdUI@@@Z" PURGE="-1" COMMENT="" />
    <EXPORT ORDINAL="11611" NAME="?OnUpdatePaneMenu@COleDocIPFrameWndEx@@IAEXPAVCCmdUI@@@Z" PURGE="-1" COMMENT="" />
    <EXPORT ORDINAL="11610" NAME="?OnUpdatePaneMenu@CMDIFrameWndEx@@IAEXPAVCCmdUI@@@Z" PURGE="-1" COMMENT="" />
    <EXPORT ORDINAL="11609" NAME="?OnUpdatePaneMenu@CFrameWndEx@@QAEXPAVCCmdUI@@@Z" PURGE="-1" COMMENT="" />
    <EXPORT ORDINAL="11608" NAME="?OnUpdateObjectVerbPopup@COleDocument@@IAEXPAVCCmdUI@@@Z" PURGE="-1" COMMENT="" />
    <EXPORT ORDINAL="11607" NAME="?OnUpdateObjectVerbMenu@COleDocument@@IAEXPAVCCmdUI@@@Z" PURGE="-1" COMMENT="" />
    <EXPORT ORDINAL="11606" NAME="?OnUpdateNumPageChange@CPreviewView@@IAEXPAVCCmdUI@@@Z" PURGE="-1" COMMENT="" />
    <EXPORT ORDINAL="11605" NAME="?OnUpdateNextPaneMenu@CView@@IAEXPAVCCmdUI@@@Z" PURGE="-1" COMMENT="" />
    <EXPORT ORDINAL="11604" NAME="?OnUpdateNextPage@CPreviewView@@IAEXPAVCCmdUI@@@Z" PURGE="-1" COMMENT="" />
    <EXPORT ORDINAL="11603" NAME="?OnUpdateNewShortcutKey@CMFCToolBarsKeyboardPropertyPage@@IAEXXZ" PURGE="-1" COMMENT="" />
    <EXPORT ORDINAL="11602" NAME="?OnUpdateNewShortcutKey@CMFCRibbonKeyboardCustomizeDialog@@IAEXXZ" PURGE="-1" COMMENT="" />
    <EXPORT ORDINAL="11601" NAME="?OnUpdateNeedText@CRichEditView@@IAEXPAVCCmdUI@@@Z" PURGE="-1" COMMENT="" />
    <EXPORT ORDINAL="11600" NAME="?OnUpdateNeedText@CEditView@@IAEXPAVCCmdUI@@@Z" PURGE="-1" COMMENT="" />
    <EXPORT ORDINAL="11599" NAME="?OnUpdateNeedSel@CRichEditView@@IAEXPAVCCmdUI@@@Z" PURGE="-1" COMMENT="" />
    <EXPORT ORDINAL="11598" NAME="?OnUpdateNeedSel@CEditView@@IAEXPAVCCmdUI@@@Z" PURGE="-1" COMMENT="" />
    <EXPORT ORDINAL="11597" NAME="?OnUpdateNeedFind@CRichEditView@@IAEXPAVCCmdUI@@@Z" PURGE="-1" COMMENT="" />
    <EXPORT ORDINAL="11596" NAME="?OnUpdateNeedFind@CEditView@@IAEXPAVCCmdUI@@@Z" PURGE="-1" COMMENT="" />
    <EXPORT ORDINAL="11595" NAME="?OnUpdateNeedClip@CRichEditView@@IAEXPAVCCmdUI@@@Z" PURGE="-1" COMMENT="" />
    <EXPORT ORDINAL="11594" NAME="?OnUpdateNeedClip@CEditView@@IAEXPAVCCmdUI@@@Z" PURGE="-1" COMMENT="" />
    <EXPORT ORDINAL="11593" NAME="?OnUpdateMDIWindowCmd@CMDIFrameWnd@@IAEXPAVCCmdUI@@@Z" PURGE="-1" COMMENT="" />
    <EXPORT ORDINAL="11592" NAME="?OnUpdateKeyIndicator@CFrameWnd@@IAEXPAVCCmdUI@@@Z" PURGE="-1" COMMENT="" />
    <EXPORT ORDINAL="11591" NAME="?OnUpdateItems@COleServerItem@@UAEXXZ" PURGE="-1" COMMENT="" />
    <EXPORT ORDINAL="11590" NAME="?OnUpdateFrameTitle@COleFrameHook@@UAEHXZ" PURGE="-1" COMMENT="" />
    <EXPORT ORDINAL="11589" NAME="?OnUpdateFrameTitle@COleClientItem@@UAEHXZ" PURGE="-1" COMMENT="" />
    <EXPORT ORDINAL="11588" NAME="?OnUpdateFrameTitle@CMDIFrameWnd@@UAEXH@Z" PURGE="-1" COMMENT="" />
    <EXPORT ORDINAL="11587" NAME="?OnUpdateFrameTitle@CMDIChildWndEx@@UAEXH@Z" PURGE="-1" COMMENT="" />
    <EXPORT ORDINAL="11586" NAME="?OnUpdateFrameTitle@CMDIChildWnd@@MAEXH@Z" PURGE="-1" COMMENT="" />
    <EXPORT ORDINAL="11585" NAME="?OnUpdateFrameTitle@CFrameWndEx@@UAEXH@Z" PURGE="-1" COMMENT="" />
    <EXPORT ORDINAL="11584" NAME="?OnUpdateFrameTitle@CFrameWnd@@UAEXH@Z" PURGE="-1" COMMENT="" />
    <EXPORT ORDINAL="11583" NAME="?OnUpdateFrameMenu@CMDIFrameWndEx@@UAEXPAUHMENU__@@@Z" PURGE="-1" COMMENT="" />
    <EXPORT ORDINAL="11582" NAME="?OnUpdateFrameMenu@CMDIFrameWnd@@UAEXPAUHMENU__@@@Z" PURGE="-1" COMMENT="" />
    <EXPORT ORDINAL="11581" NAME="?OnUpdateFrameMenu@CMDIChildWnd@@UAEXHPAVCWnd@@PAUHMENU__@@@Z" PURGE="-1" COMMENT="" />
    <EXPORT ORDINAL="11580" NAME="?OnUpdateFrameMenu@CFrameWndEx@@UAEXPAUHMENU__@@@Z" PURGE="-1" COMMENT="" />
    <EXPORT ORDINAL="11579" NAME="?OnUpdateFrameMenu@CFrameWnd@@UAEXPAUHMENU__@@@Z" PURGE="-1" COMMENT="" />
    <EXPORT ORDINAL="11578" NAME="?OnUpdateForward@CMFCTasksPane@@IAEXPAVCCmdUI@@@Z" PURGE="-1" COMMENT="" />
    <EXPORT ORDINAL="11577" NAME="?OnUpdateFileUpdate@COleServerDoc@@IAEXPAVCCmdUI@@@Z" PURGE="-1" COMMENT="" />
    <EXPORT ORDINAL="11576" NAME="?OnUpdateFileSendMail@CDocument@@IAEXPAVCCmdUI@@@Z" PURGE="-1" COMMENT="" />
    <EXPORT ORDINAL="11575" NAME="?OnUpdateFileExit@COleServerDoc@@IAEXPAVCCmdUI@@@Z" PURGE="-1" COMMENT="" />
    <EXPORT ORDINAL="11574" NAME="?OnUpdateEditUndo@CRichEditView@@IAEXPAVCCmdUI@@@Z" PURGE="-1" COMMENT="" />
    <EXPORT ORDINAL="11573" NAME="?OnUpdateEditUndo@CEditView@@IAEXPAVCCmdUI@@@Z" PURGE="-1" COMMENT="" />
    <EXPORT ORDINAL="11572" NAME="?OnUpdateEditRedo@CRichEditView@@IAEXPAVCCmdUI@@@Z" PURGE="-1" COMMENT="" />
    <EXPORT ORDINAL="11571" NAME="?OnUpdateEditProperties@CRichEditView@@IAEXPAVCCmdUI@@@Z" PURGE="-1" COMMENT="" />
    <EXPORT ORDINAL="11570" NAME="?OnUpdateEditPasteSpecial@CRichEditView@@IAEXPAVCCmdUI@@@Z" PURGE="-1" COMMENT="" />
    <EXPORT ORDINAL="11569" NAME="?OnUpdateEditPaste@CHtmlView@@IAEXPAVCCmdUI@@@Z" PURGE="-1" COMMENT="" />
    <EXPORT ORDINAL="11568" NAME="?OnUpdateEditLinksMenu@COleDocument@@IAEXPAVCCmdUI@@@Z" PURGE="-1" COMMENT="" />
    <EXPORT ORDINAL="11567" NAME="?OnUpdateEditCut@CHtmlView@@IAEXPAVCCmdUI@@@Z" PURGE="-1" COMMENT="" />
    <EXPORT ORDINAL="11566" NAME="?OnUpdateEditCopy@CHtmlView@@IAEXPAVCCmdUI@@@Z" PURGE="-1" COMMENT="" />
    <EXPORT ORDINAL="11565" NAME="?OnUpdateEditChangeIcon@COleDocument@@IAEXPAVCCmdUI@@@Z" PURGE="-1" COMMENT="" />
    <EXPORT ORDINAL="11564" NAME="?OnUpdateDocument@COleServerDoc@@UAEHXZ" PURGE="-1" COMMENT="" />
    <EXPORT ORDINAL="11563" NAME="?OnUpdateControlBarMenu@COleIPFrameWnd@@IAEXPAVCCmdUI@@@Z" PURGE="-1" COMMENT="" />
    <EXPORT ORDINAL="11562" NAME="?OnUpdateControlBarMenu@CFrameWnd@@QAEXPAVCCmdUI@@@Z" PURGE="-1" COMMENT="" />
    <EXPORT ORDINAL="11561" NAME="?OnUpdateContextHelp@CFrameWnd@@IAEXPAVCCmdUI@@@Z" PURGE="-1" COMMENT="" />
    <EXPORT ORDINAL="11560" NAME="?OnUpdateCmdUI@CToolBar@@UAEXPAVCFrameWnd@@H@Z" PURGE="-1" COMMENT="" />
    <EXPORT ORDINAL="11559" NAME="?OnUpdateCmdUI@CStatusBar@@UAEXPAVCFrameWnd@@H@Z" PURGE="-1" COMMENT="" />
    <EXPORT ORDINAL="11558" NAME="?OnUpdateCmdUI@CReBar@@UAEXPAVCFrameWnd@@H@Z" PURGE="-1" COMMENT="" />
    <EXPORT ORDINAL="11557" NAME="?OnUpdateCmdUI@CPaneDialog@@UAEXPAVCFrameWnd@@H@Z" PURGE="-1" COMMENT="" />
    <EXPORT ORDINAL="11556" NAME="?OnUpdateCmdUI@COleResizeBar@@UAEXPAVCFrameWnd@@H@Z" PURGE="-1" COMMENT="" />
    <EXPORT ORDINAL="11555" NAME="?OnUpdateCmdUI@CMFCToolBar@@UAEXPAVCFrameWnd@@H@Z" PURGE="-1" COMMENT="" />
    <EXPORT ORDINAL="11554" NAME="?OnUpdateCmdUI@CMFCTasksPane@@UAEXPAVCFrameWnd@@H@Z" PURGE="-1" COMMENT="" />
    <EXPORT ORDINAL="11553" NAME="?OnUpdateCmdUI@CMFCStatusBar@@MAEXPAVCFrameWnd@@H@Z" PURGE="-1" COMMENT="" />
    <EXPORT ORDINAL="11552" NAME="?OnUpdateCmdUI@CMFCRibbonStatusBar@@MAEXPAVCFrameWnd@@H@Z" PURGE="-1" COMMENT="" />
    <EXPORT ORDINAL="11551" NAME="?OnUpdateCmdUI@CMFCRibbonPanelMenuBar@@UAEXPAVCFrameWnd@@H@Z" PURGE="-1" COMMENT="" />
    <EXPORT ORDINAL="11550" NAME="?OnUpdateCmdUI@CMFCRibbonPanel@@MAEXPAVCMFCRibbonCmdUI@@PAVCFrameWnd@@H@Z" PURGE="-1" COMMENT="" />
    <EXPORT ORDINAL="11549" NAME="?OnUpdateCmdUI@CMFCRibbonCategory@@UAEXPAVCMFCRibbonCmdUI@@PAVCFrameWnd@@H@Z" PURGE="-1" COMMENT="" />
    <EXPORT ORDINAL="11548" NAME="?OnUpdateCmdUI@CMFCRibbonButtonsGroup@@MAEXPAVCMFCRibbonCmdUI@@PAVCFrameWnd@@H@Z" PURGE="-1" COMMENT="" />
    <EXPORT ORDINAL="11547" NAME="?OnUpdateCmdUI@CMFCRibbonBaseElement@@MAEXPAVCMFCRibbonCmdUI@@PAVCFrameWnd@@H@Z" PURGE="-1" COMMENT="" />
    <EXPORT ORDINAL="11546" NAME="?OnUpdateCmdUI@CMFCRibbonBar@@MAEXPAVCFrameWnd@@H@Z" PURGE="-1" COMMENT="" />
    <EXPORT ORDINAL="11545" NAME="?OnUpdateCmdUI@CMFCReBar@@UAEXPAVCFrameWnd@@H@Z" PURGE="-1" COMMENT="" />
    <EXPORT ORDINAL="11544" NAME="?OnUpdateCmdUI@CMFCOutlookBarToolBar@@UAEXPAVCFrameWnd@@H@Z" PURGE="-1" COMMENT="" />
    <EXPORT ORDINAL="11543" NAME="?OnUpdateCmdUI@CMFCDropDownToolBar@@UAEXPAVCFrameWnd@@H@Z" PURGE="-1" COMMENT="" />
    <EXPORT ORDINAL="11542" NAME="?OnUpdateCmdUI@CMFCColorBar@@MAEXPAVCFrameWnd@@H@Z" PURGE="-1" COMMENT="" />
    <EXPORT ORDINAL="11541" NAME="?OnUpdateCmdUI@CMFCCaptionBar@@MAEXPAVCFrameWnd@@H@Z" PURGE="-1" COMMENT="" />
    <EXPORT ORDINAL="11539" NAME="?OnUpdateCmdUI@CDockablePane@@UAEXPAVCFrameWnd@@H@Z" PURGE="-1" COMMENT="" />
    <EXPORT ORDINAL="11540" NAME="?OnUpdateCmdUI@CDockBar@@MAEXPAVCFrameWnd@@H@Z" PURGE="-1" COMMENT="" />
    <EXPORT ORDINAL="11538" NAME="?OnUpdateCmdUI@CDialogBar@@UAEXPAVCFrameWnd@@H@Z" PURGE="-1" COMMENT="" />
    <EXPORT ORDINAL="11537" NAME="?OnUpdateClose@CMFCTasksPane@@IAEXPAVCCmdUI@@@Z" PURGE="-1" COMMENT="" />
    <EXPORT ORDINAL="11536" NAME="?OnUpdateCharUnderline@CRichEditView@@IAEXPAVCCmdUI@@@Z" PURGE="-1" COMMENT="" />
    <EXPORT ORDINAL="11535" NAME="?OnUpdateCharItalic@CRichEditView@@IAEXPAVCCmdUI@@@Z" PURGE="-1" COMMENT="" />
    <EXPORT ORDINAL="11534" NAME="?OnUpdateCharEffect@CRichEditView@@QAEXPAVCCmdUI@@KK@Z" PURGE="-1" COMMENT="" />
    <EXPORT ORDINAL="11533" NAME="?OnUpdateCharBold@CRichEditView@@IAEXPAVCCmdUI@@@Z" PURGE="-1" COMMENT="" />
    <EXPORT ORDINAL="11532" NAME="?OnUpdateBullet@CRichEditView@@IAEXPAVCCmdUI@@@Z" PURGE="-1" COMMENT="" />
    <EXPORT ORDINAL="11531" NAME="?OnUpdateBack@CMFCTasksPane@@IAEXPAVCCmdUI@@@Z" PURGE="-1" COMMENT="" />
    <EXPORT ORDINAL="11530" NAME="?OnUpdate@CView@@MAEXPAV1@JPAVCObject@@@Z" PURGE="-1" COMMENT="" />
    <EXPORT ORDINAL="11529" NAME="?OnUpdate@COleServerItem@@UAEXPAV1@JPAVCObject@@W4tagDVASPECT@@@Z" PURGE="-1" COMMENT="" />
    <EXPORT ORDINAL="11528" NAME="?OnUp@CMFCRibbonCustomizePropertyPage@@IAEXXZ" PURGE="-1" COMMENT="" />
    <EXPORT ORDINAL="11527" NAME="?OnUnloadHandler@CDocument@@UAEXXZ" PURGE="-1" COMMENT="" />
    <EXPORT ORDINAL="11526" NAME="?OnUIDeactivate@XOleIPSite@COleControlSite@@UAGJH@Z" PURGE="-1" COMMENT="" />
    <EXPORT ORDINAL="11525" NAME="?OnUIDeactivate@XOleIPSite@COleClientItem@@UAGJH@Z" PURGE="-1" COMMENT="" />
    <EXPORT ORDINAL="11524" NAME="?OnUIDeactivate@COleControlContainer@@UAEXPAVCOleControlSite@@@Z" PURGE="-1" COMMENT="" />
    <EXPORT ORDINAL="11523" NAME="?OnUIActivate@XOleIPSite@COleControlSite@@UAGJXZ" PURGE="-1" COMMENT="" />
    <EXPORT ORDINAL="11522" NAME="?OnUIActivate@XOleIPSite@COleClientItem@@UAGJXZ" PURGE="-1" COMMENT="" />
    <EXPORT ORDINAL="11521" NAME="?OnUIActivate@COleControlContainer@@UAEXPAVCOleControlSite@@@Z" PURGE="-1" COMMENT="" />
    <EXPORT ORDINAL="11520" NAME="?OnTypeChange@XFileDialogEvents@CFileDialog@@UAGJPAUIFileDialog@@@Z" PURGE="-1" COMMENT="" />
    <EXPORT ORDINAL="11519" NAME="?OnTypeChange@CFileDialog@@MAEXXZ" PURGE="-1" COMMENT="" />
    <EXPORT ORDINAL="11518" NAME="?OnTranslateUrl@CHtmlView@@UAEJKPA_WPAPA_W@Z" PURGE="-1" COMMENT="" />
    <EXPORT ORDINAL="11517" NAME="?OnTranslateAccelerator@CHtmlView@@UAEJPAUtagMSG@@PBU_GUID@@K@Z" PURGE="-1" COMMENT="" />
    <EXPORT ORDINAL="11516" NAME="?OnTrackCaptionButtons@CPaneFrameWnd@@MAEXVCPoint@@@Z" PURGE="-1" COMMENT="" />
    <EXPORT ORDINAL="11515" NAME="?OnTrackCaptionButtons@CMFCTasksPaneFrameWnd@@MAEXVCPoint@@@Z" PURGE="-1" COMMENT="" />
    <EXPORT ORDINAL="11514" NAME="?OnTrackCaptionButtons@CMFCTasksPane@@MAEXVCPoint@@@Z" PURGE="-1" COMMENT="" />
    <EXPORT ORDINAL="11513" NAME="?OnTrackCaptionButtons@CFrameImpl@@IAEXVCPoint@@@Z" PURGE="-1" COMMENT="" />
    <EXPORT ORDINAL="11512" NAME="?OnTrackCaptionButtons@CDockablePane@@MAEXVCPoint@@@Z" PURGE="-1" COMMENT="" />
    <EXPORT ORDINAL="11511" NAME="?OnTouchMessage@CWnd@@IAEJIJ@Z" PURGE="-1" COMMENT="" />
    <EXPORT ORDINAL="11510" NAME="?OnTouchInputs@CWnd@@MAEHIPAUtagTOUCHINPUT@@@Z" PURGE="-1" COMMENT="" />
    <EXPORT ORDINAL="11509" NAME="?OnTouchInput@CWnd@@MAEHVCPoint@@HHPAUtagTOUCHINPUT@@@Z" PURGE="-1" COMMENT="" />
    <EXPORT ORDINAL="11486" NAME="?OnToolbarText@CMFCToolBar@@IAEXXZ" PURGE="-1" COMMENT="" />
    <EXPORT ORDINAL="11485" NAME="?OnToolbarText@CMFCPopupMenuBar@@IAEXXZ" PURGE="-1" COMMENT="" />
    <EXPORT ORDINAL="11484" NAME="?OnToolbarStartGroup@CMFCToolBar@@IAEXXZ" PURGE="-1" COMMENT="" />
    <EXPORT ORDINAL="11483" NAME="?OnToolbarReset@CMFCToolBar@@IAEXXZ" PURGE="-1" COMMENT="" />
    <EXPORT ORDINAL="11482" NAME="?OnToolbarReset@CMFCRibbonCustomizePropertyPage@@IAEXXZ" PURGE="-1" COMMENT="" />
    <EXPORT ORDINAL="11481" NAME="?OnToolbarNewMenu@CMFCToolBar@@IAEXXZ" PURGE="-1" COMMENT="" />
    <EXPORT ORDINAL="11480" NAME="?OnToolbarImageAndText@CMFCToolBar@@IAEXXZ" PURGE="-1" COMMENT="" />
    <EXPORT ORDINAL="11479" NAME="?OnToolbarImageAndText@CMFCPopupMenuBar@@IAEXXZ" PURGE="-1" COMMENT="" />
    <EXPORT ORDINAL="11478" NAME="?OnToolbarImage@CMFCToolBar@@IAEXXZ" PURGE="-1" COMMENT="" />
    <EXPORT ORDINAL="11477" NAME="?OnToolbarDelete@COleIPFrameWndEx@@IAEJIJ@Z" PURGE="-1" COMMENT="" />
    <EXPORT ORDINAL="11476" NAME="?OnToolbarDelete@COleDocIPFrameWndEx@@IAEJIJ@Z" PURGE="-1" COMMENT="" />
    <EXPORT ORDINAL="11475" NAME="?OnToolbarDelete@CMFCToolBar@@IAEXXZ" PURGE="-1" COMMENT="" />
    <EXPORT ORDINAL="11474" NAME="?OnToolbarDelete@CMDIFrameWndEx@@IAEJIJ@Z" PURGE="-1" COMMENT="" />
    <EXPORT ORDINAL="11473" NAME="?OnToolbarDelete@CFrameWndEx@@QAEJIJ@Z" PURGE="-1" COMMENT="" />
    <EXPORT ORDINAL="11472" NAME="?OnToolbarCreateNew@COleIPFrameWndEx@@IAEJIJ@Z" PURGE="-1" COMMENT="" />
    <EXPORT ORDINAL="11471" NAME="?OnToolbarCreateNew@COleDocIPFrameWndEx@@IAEJIJ@Z" PURGE="-1" COMMENT="" />
    <EXPORT ORDINAL="11470" NAME="?OnToolbarCreateNew@CMDIFrameWndEx@@IAEJIJ@Z" PURGE="-1" COMMENT="" />
    <EXPORT ORDINAL="11469" NAME="?OnToolbarCreateNew@CFrameWndEx@@QAEJIJ@Z" PURGE="-1" COMMENT="" />
    <EXPORT ORDINAL="11468" NAME="?OnToolbarContextMenu@COleIPFrameWndEx@@IAEJIJ@Z" PURGE="-1" COMMENT="" />
    <EXPORT ORDINAL="11467" NAME="?OnToolbarContextMenu@COleDocIPFrameWndEx@@IAEJIJ@Z" PURGE="-1" COMMENT="" />
    <EXPORT ORDINAL="11466" NAME="?OnToolbarContextMenu@CMDIFrameWndEx@@IAEJIJ@Z" PURGE="-1" COMMENT="" />
    <EXPORT ORDINAL="11465" NAME="?OnToolbarContextMenu@CFrameWndEx@@QAEJIJ@Z" PURGE="-1" COMMENT="" />
    <EXPORT ORDINAL="11464" NAME="?OnToolbarCommand@CMFCOutlookBarTabCtrl@@IAEXI@Z" PURGE="-1" COMMENT="" />
    <EXPORT ORDINAL="11463" NAME="?OnToolbarAppearance@CMFCToolBar@@IAEXXZ" PURGE="-1" COMMENT="" />
    <EXPORT ORDINAL="11508" NAME="?OnToolTipText@CMDIChildWnd@@IAEHIPAUtagNMHDR@@PAJ@Z" PURGE="-1" COMMENT="" />
    <EXPORT ORDINAL="11507" NAME="?OnToolTipText@CFrameWnd@@IAEHIPAUtagNMHDR@@PAJ@Z" PURGE="-1" COMMENT="" />
    <EXPORT ORDINAL="11506" NAME="?OnToolRect@CMFCImageEditorDialog@@IAEXXZ" PURGE="-1" COMMENT="" />
    <EXPORT ORDINAL="11505" NAME="?OnToolPick@CMFCImageEditorDialog@@IAEXXZ" PURGE="-1" COMMENT="" />
    <EXPORT ORDINAL="11504" NAME="?OnToolPen@CMFCImageEditorDialog@@IAEXXZ" PURGE="-1" COMMENT="" />
    <EXPORT ORDINAL="11503" NAME="?OnToolPaste@CMFCImageEditorDialog@@IAEXXZ" PURGE="-1" COMMENT="" />
    <EXPORT ORDINAL="11502" NAME="?OnToolLine@CMFCImageEditorDialog@@IAEXXZ" PURGE="-1" COMMENT="" />
    <EXPORT ORDINAL="11501" NAME="?OnToolHitTest@CWnd@@UBEHVCPoint@@PAUtagTOOLINFOA@@@Z" PURGE="-1" COMMENT="" />
    <EXPORT ORDINAL="11500" NAME="?OnToolHitTest@CToolBar@@UBEHVCPoint@@PAUtagTOOLINFOA@@@Z" PURGE="-1" COMMENT="" />
    <EXPORT ORDINAL="11499" NAME="?OnToolHitTest@CReBar@@UBEHVCPoint@@PAUtagTOOLINFOA@@@Z" PURGE="-1" COMMENT="" />
    <EXPORT ORDINAL="11498" NAME="?OnToolHitTest@CMFCToolBarButton@@UAEHPBVCWnd@@PAUtagTOOLINFOA@@@Z" PURGE="-1" COMMENT="" />
    <EXPORT ORDINAL="11497" NAME="?OnToolHitTest@CMFCToolBar@@MBEHVCPoint@@PAUtagTOOLINFOA@@@Z" PURGE="-1" COMMENT="" />
    <EXPORT ORDINAL="11496" NAME="?OnToolHitTest@CMFCStatusBar@@MBEHVCPoint@@PAUtagTOOLINFOA@@@Z" PURGE="-1" COMMENT="" />
    <EXPORT ORDINAL="11495" NAME="?OnToolHitTest@CMFCShowAllButton@@UAEHPBVCWnd@@PAUtagTOOLINFOA@@@Z" PURGE="-1" COMMENT="" />
    <EXPORT ORDINAL="11494" NAME="?OnToolHitTest@CMFCReBar@@UBEHVCPoint@@PAUtagTOOLINFOA@@@Z" PURGE="-1" COMMENT="" />
    <EXPORT ORDINAL="11493" NAME="?OnToolHitTest@CMFCPrintPreviewToolBar@@MBEHVCPoint@@PAUtagTOOLINFOA@@@Z" PURGE="-1" COMMENT="" />
    <EXPORT ORDINAL="11492" NAME="?OnToolHitTest@CMFCPopupMenuBar@@MBEHVCPoint@@PAUtagTOOLINFOA@@@Z" PURGE="-1" COMMENT="" />
    <EXPORT ORDINAL="11491" NAME="?OnToolHitTest@CMFCMenuBar@@UBEHVCPoint@@PAUtagTOOLINFOA@@@Z" PURGE="-1" COMMENT="" />
    <EXPORT ORDINAL="11490" NAME="?OnToolFill@CMFCImageEditorDialog@@IAEXXZ" PURGE="-1" COMMENT="" />
    <EXPORT ORDINAL="11489" NAME="?OnToolEllipse@CMFCImageEditorDialog@@IAEXXZ" PURGE="-1" COMMENT="" />
    <EXPORT ORDINAL="11488" NAME="?OnToolCopy@CMFCImageEditorDialog@@IAEXXZ" PURGE="-1" COMMENT="" />
    <EXPORT ORDINAL="11487" NAME="?OnToolClear@CMFCImageEditorDialog@@IAEXXZ" PURGE="-1" COMMENT="" />
    <EXPORT ORDINAL="11462" NAME="?OnToolBar@CHtmlView@@UAEXH@Z" PURGE="-1" COMMENT="" />
    <EXPORT ORDINAL="11461" NAME="?OnTitleChange@CHtmlView@@UAEXPBD@Z" PURGE="-1" COMMENT="" />
    <EXPORT ORDINAL="11460" NAME="?OnTimer@CPaneFrameWnd@@IAEXI@Z" PURGE="-1" COMMENT="" />
    <EXPORT ORDINAL="11459" NAME="?OnTimer@CMFCTasksPane@@IAEXI@Z" PURGE="-1" COMMENT="" />
    <EXPORT ORDINAL="11458" NAME="?OnTimer@CMFCStatusBar@@IAEXI@Z" PURGE="-1" COMMENT="" />
    <EXPORT ORDINAL="11457" NAME="?OnTimer@CMFCRibbonPanelMenuBar@@IAEXI@Z" PURGE="-1" COMMENT="" />
    <EXPORT ORDINAL="11456" NAME="?OnTimer@CMFCRibbonMiniToolBar@@IAEXI@Z" PURGE="-1" COMMENT="" />
    <EXPORT ORDINAL="11455" NAME="?OnTimer@CMFCRibbonBar@@IAEXI@Z" PURGE="-1" COMMENT="" />
    <EXPORT ORDINAL="11454" NAME="?OnTimer@CMFCPopupMenuBar@@IAEXI@Z" PURGE="-1" COMMENT="" />
    <EXPORT ORDINAL="11453" NAME="?OnTimer@CMFCPopupMenu@@IAEXI@Z" PURGE="-1" COMMENT="" />
    <EXPORT ORDINAL="11452" NAME="?OnTimer@CMFCOutlookBarPane@@IAEXI@Z" PURGE="-1" COMMENT="" />
    <EXPORT ORDINAL="11451" NAME="?OnTimer@CMFCMenuBar@@IAEXI@Z" PURGE="-1" COMMENT="" />
    <EXPORT ORDINAL="11450" NAME="?OnTimer@CMFCDesktopAlertWnd@@IAEXI@Z" PURGE="-1" COMMENT="" />
    <EXPORT ORDINAL="11449" NAME="?OnTimer@CMFCButton@@IAEXI@Z" PURGE="-1" COMMENT="" />
    <EXPORT ORDINAL="11448" NAME="?OnTimer@CMFCAutoHideBar@@IAEXI@Z" PURGE="-1" COMMENT="" />
    <EXPORT ORDINAL="11447" NAME="?OnTimer@CDockablePane@@IAEXI@Z" PURGE="-1" COMMENT="" />
    <EXPORT ORDINAL="11446" NAME="?OnTimer@CControlBar@@QAEXI@Z" PURGE="-1" COMMENT="" />
    <EXPORT ORDINAL="11445" NAME="?OnTilevert@CMFCWindowsManagerDialog@@IAEXXZ" PURGE="-1" COMMENT="" />
    <EXPORT ORDINAL="11444" NAME="?OnTilehorz@CMFCWindowsManagerDialog@@IAEXXZ" PURGE="-1" COMMENT="" />
    <EXPORT ORDINAL="11443" NAME="?OnThemeChanged@CControlBar@@QAEJXZ" PURGE="-1" COMMENT="" />
    <EXPORT ORDINAL="11442" NAME="?OnTheaterMode@CHtmlView@@UAEXH@Z" PURGE="-1" COMMENT="" />
    <EXPORT ORDINAL="11441" NAME="?OnTextNotFound@CRichEditView@@MAEXPBD@Z" PURGE="-1" COMMENT="" />
    <EXPORT ORDINAL="11440" NAME="?OnTextNotFound@CEditView@@MAEXPBD@Z" PURGE="-1" COMMENT="" />
    <EXPORT ORDINAL="11439" NAME="?OnTextLabels@CMFCToolBarsListPropertyPage@@IAEXXZ" PURGE="-1" COMMENT="" />
    <EXPORT ORDINAL="11438" NAME="?OnTextChanged@COleControl@@UAEXXZ" PURGE="-1" COMMENT="" />
    <EXPORT ORDINAL="11437" NAME="?OnText@CMFCToolBarButtonCustomizeDialog@@IAEXXZ" PURGE="-1" COMMENT="" />
    <EXPORT ORDINAL="11436" NAME="?OnTaskbarTabThumbnailStretch@CMDIChildWndEx@@UAEHPAUHBITMAP__@@ABVCRect@@01@Z" PURGE="-1" COMMENT="" />
    <EXPORT ORDINAL="11435" NAME="?OnTaskbarTabThumbnailMouseActivate@CMDIChildWndEx@@UAEHPAVCWnd@@II@Z" PURGE="-1" COMMENT="" />
    <EXPORT ORDINAL="11434" NAME="?OnTaskbarTabThumbnailActivate@CMDIChildWndEx@@UAEXIPAVCWnd@@H@Z" PURGE="-1" COMMENT="" />
    <EXPORT ORDINAL="11433" NAME="?OnTabletQuerySystemGestureStatus@CWnd@@IAEJIJ@Z" PURGE="-1" COMMENT="" />
    <EXPORT ORDINAL="11432" NAME="?OnTabGroupMouseMove@CMDIClientAreaWnd@@IAEJIJ@Z" PURGE="-1" COMMENT="" />
    <EXPORT ORDINAL="11431" NAME="?OnSysKeyUp@COleControl@@IAEXIII@Z" PURGE="-1" COMMENT="" />
    <EXPORT ORDINAL="11430" NAME="?OnSysKeyUp@CMFCRibbonBar@@QAEHPAVCFrameWnd@@IJ@Z" PURGE="-1" COMMENT="" />
    <EXPORT ORDINAL="11429" NAME="?OnSysKeyDown@COleControl@@IAEXIII@Z" PURGE="-1" COMMENT="" />
    <EXPORT ORDINAL="11428" NAME="?OnSysKeyDown@CMFCRibbonBar@@QAEHPAVCFrameWnd@@IJ@Z" PURGE="-1" COMMENT="" />
    <EXPORT ORDINAL="11427" NAME="?OnSysCommand@CSplitterWnd@@IAEXIJ@Z" PURGE="-1" COMMENT="" />
    <EXPORT ORDINAL="11426" NAME="?OnSysCommand@CPropertySheet@@IAEXIJ@Z" PURGE="-1" COMMENT="" />
    <EXPORT ORDINAL="11425" NAME="?OnSysCommand@CMiniFrameWnd@@QAEXIJ@Z" PURGE="-1" COMMENT="" />
    <EXPORT ORDINAL="11424" NAME="?OnSysCommand@CMFCStatusBar@@IAEXIJ@Z" PURGE="-1" COMMENT="" />
    <EXPORT ORDINAL="11423" NAME="?OnSysCommand@CMFCRibbonStatusBar@@IAEXIJ@Z" PURGE="-1" COMMENT="" />
    <EXPORT ORDINAL="11422" NAME="?OnSysCommand@CMFCRibbonBar@@IAEXIJ@Z" PURGE="-1" COMMENT="" />
    <EXPORT ORDINAL="11421" NAME="?OnSysCommand@CMDITabProxyWnd@@IAEXIJ@Z" PURGE="-1" COMMENT="" />
    <EXPORT ORDINAL="11420" NAME="?OnSysCommand@CMDIChildWndEx@@IAEXIJ@Z" PURGE="-1" COMMENT="" />
    <EXPORT ORDINAL="11419" NAME="?OnSysCommand@CFrameWnd@@IAEXIJ@Z" PURGE="-1" COMMENT="" />
    <EXPORT ORDINAL="11418" NAME="?OnSysColorChange@CWnd@@IAEXXZ" PURGE="-1" COMMENT="" />
    <EXPORT ORDINAL="11417" NAME="?OnSysColorChange@CToolBar@@IAEXXZ" PURGE="-1" COMMENT="" />
    <EXPORT ORDINAL="11416" NAME="?OnSysColorChange@CMFCToolBarImages@@QAEXXZ" PURGE="-1" COMMENT="" />
    <EXPORT ORDINAL="11415" NAME="?OnSysColorChange@CMFCToolBarButtonsListButton@@IAEXXZ" PURGE="-1" COMMENT="" />
    <EXPORT ORDINAL="11414" NAME="?OnSysColorChange@CMFCToolBar@@IAEXXZ" PURGE="-1" COMMENT="" />
    <EXPORT ORDINAL="11413" NAME="?OnSysColorChange@CMFCTabCtrl@@IAEXXZ" PURGE="-1" COMMENT="" />
    <EXPORT ORDINAL="11412" NAME="?OnSysColorChange@CMFCShadowRenderer@@UAEXXZ" PURGE="-1" COMMENT="" />
    <EXPORT ORDINAL="11411" NAME="?OnSysColorChange@CMFCRibbonBar@@IAEXXZ" PURGE="-1" COMMENT="" />
    <EXPORT ORDINAL="11410" NAME="?OnSysColorChange@CMFCPropertySheet@@IAEXXZ" PURGE="-1" COMMENT="" />
    <EXPORT ORDINAL="11409" NAME="?OnSysColorChange@CMFCOutlookBarPane@@IAEXXZ" PURGE="-1" COMMENT="" />
    <EXPORT ORDINAL="11408" NAME="?OnSysColorChange@CMFCListCtrl@@IAEXXZ" PURGE="-1" COMMENT="" />
    <EXPORT ORDINAL="11407" NAME="?OnSysColorChange@CMFCControlRenderer@@UAEXXZ" PURGE="-1" COMMENT="" />
    <EXPORT ORDINAL="11406" NAME="?OnSysColorChange@CMFCColorDialog@@IAEXXZ" PURGE="-1" COMMENT="" />
    <EXPORT ORDINAL="11405" NAME="?OnSysColorChange@CMFCColorButton@@IAEXXZ" PURGE="-1" COMMENT="" />
    <EXPORT ORDINAL="11404" NAME="?OnSysColorChange@CMFCCaptionBar@@IAEXXZ" PURGE="-1" COMMENT="" />
    <EXPORT ORDINAL="11403" NAME="?OnSysColorChange@CMFCBaseTabCtrl@@IAEXXZ" PURGE="-1" COMMENT="" />
    <EXPORT ORDINAL="11402" NAME="?OnSysColorChange@CMDIFrameWndEx@@IAEXXZ" PURGE="-1" COMMENT="" />
    <EXPORT ORDINAL="11401" NAME="?OnSysColorChange@CFrameWndEx@@QAEXXZ" PURGE="-1" COMMENT="" />
    <EXPORT ORDINAL="11400" NAME="?OnSysColorChange@CDialogEx@@IAEXXZ" PURGE="-1" COMMENT="" />
    <EXPORT ORDINAL="11399" NAME="?OnStyleChanging@CMDIClientAreaWnd@@IAEXHPAUtagSTYLESTRUCT@@@Z" PURGE="-1" COMMENT="" />
    <EXPORT ORDINAL="11398" NAME="?OnStyleChanged@CPane@@IAEXHPAUtagSTYLESTRUCT@@@Z" PURGE="-1" COMMENT="" />
    <EXPORT ORDINAL="11397" NAME="?OnStyleChanged@CMFCStatusBar@@IAEXHPAUtagSTYLESTRUCT@@@Z" PURGE="-1" COMMENT="" />
    <EXPORT ORDINAL="11396" NAME="?OnStyleChanged@CMFCPropertyGridCtrl@@IAEXHPAUtagSTYLESTRUCT@@@Z" PURGE="-1" COMMENT="" />
    <EXPORT ORDINAL="11395" NAME="?OnStyleChanged@CMFCListCtrl@@IAEXHPAUtagSTYLESTRUCT@@@Z" PURGE="-1" COMMENT="" />
    <EXPORT ORDINAL="11394" NAME="?OnStyleChanged@CMDIChildWndEx@@IAEXHPAUtagSTYLESTRUCT@@@Z" PURGE="-1" COMMENT="" />
    <EXPORT ORDINAL="11393" NAME="?OnStoryboardUpdated@CAnimationController@@UAEXPAVCAnimationGroup@@@Z" PURGE="-1" COMMENT="" />
    <EXPORT ORDINAL="11392" NAME="?OnStoryboardStatusChanged@CAnimationController@@UAEXPAVCAnimationGroup@@W4__MIDL___MIDL_itf_UIAnimation_0000_0002_0001@@1@Z" PURGE="-1" COMMENT="" />
    <EXPORT ORDINAL="11391" NAME="?OnStopBinding@CAsyncMonikerFile@@MAEXJPBD@Z" PURGE="-1" COMMENT="" />
    <EXPORT ORDINAL="11390" NAME="?OnStatusTextChange@CHtmlView@@UAEXPBD@Z" PURGE="-1" COMMENT="" />
    <EXPORT ORDINAL="11389" NAME="?OnStatusCallback@CInternetSession@@UAEXKKPAXK@Z" PURGE="-1" COMMENT="" />
    <EXPORT ORDINAL="11388" NAME="?OnStatusBar@CHtmlView@@UAEXH@Z" PURGE="-1" COMMENT="" />
    <EXPORT ORDINAL="11387" NAME="?OnStartBinding@CAsyncMonikerFile@@MAEXXZ" PURGE="-1" COMMENT="" />
    <EXPORT ORDINAL="11386" NAME="?OnSplitCmd@CView@@IAEHI@Z" PURGE="-1" COMMENT="" />
    <EXPORT ORDINAL="11385" NAME="?OnSpinDeltaPos@CMFCPropertyGridCtrl@@IAEXPAUtagNMHDR@@PAJ@Z" PURGE="-1" COMMENT="" />
    <EXPORT ORDINAL="11384" NAME="?OnSocketNotify@CSocketWnd@@IAEJIJ@Z" PURGE="-1" COMMENT="" />
    <EXPORT ORDINAL="11383" NAME="?OnSocketDead@CSocketWnd@@IAEJIJ@Z" PURGE="-1" COMMENT="" />
    <EXPORT ORDINAL="11382" NAME="?OnSlide@CDockablePane@@MAEXH@Z" PURGE="-1" COMMENT="" />
    <EXPORT ORDINAL="11381" NAME="?OnSkip@CEnumArray@@MAEHXZ" PURGE="-1" COMMENT="" />
    <EXPORT ORDINAL="11380" NAME="?OnSizing@CPaneFrameWnd@@IAEXIPAUtagRECT@@@Z" PURGE="-1" COMMENT="" />
    <EXPORT ORDINAL="11379" NAME="?OnSizing@COleCntrFrameWndEx@@IAEXIPAUtagRECT@@@Z" PURGE="-1" COMMENT="" />
    <EXPORT ORDINAL="11378" NAME="?OnSizing@CMultiPaneFrameWnd@@IAEXIPAUtagRECT@@@Z" PURGE="-1" COMMENT="" />
    <EXPORT ORDINAL="11377" NAME="?OnSizing@CMFCRibbonBar@@IAEXIPAUtagRECT@@@Z" PURGE="-1" COMMENT="" />
    <EXPORT ORDINAL="11376" NAME="?OnSizing@CMDIChildWndEx@@IAEXIPAUtagRECT@@@Z" PURGE="-1" COMMENT="" />
    <EXPORT ORDINAL="11375" NAME="?OnSizing@CFrameWndEx@@QAEXIPAUtagRECT@@@Z" PURGE="-1" COMMENT="" />
    <EXPORT ORDINAL="11374" NAME="?OnSizeParent@COleResizeBar@@IAEJIJ@Z" PURGE="-1" COMMENT="" />
    <EXPORT ORDINAL="11373" NAME="?OnSizeParent@CDockBar@@IAEJIJ@Z" PURGE="-1" COMMENT="" />
    <EXPORT ORDINAL="11372" NAME="?OnSizeParent@CControlBar@@QAEJIJ@Z" PURGE="-1" COMMENT="" />
    <EXPORT ORDINAL="11371" NAME="?OnSizeList@CVSListBox@@MAEXXZ" PURGE="-1" COMMENT="" />
    <EXPORT ORDINAL="11370" NAME="?OnSize@CVSListBoxBase@@IAEXIHH@Z" PURGE="-1" COMMENT="" />
    <EXPORT ORDINAL="11369" NAME="?OnSize@CTabView@@IAEXIHH@Z" PURGE="-1" COMMENT="" />
    <EXPORT ORDINAL="11368" NAME="?OnSize@CStatusBar@@IAEXIHH@Z" PURGE="-1" COMMENT="" />
    <EXPORT ORDINAL="11367" NAME="?OnSize@CSplitterWnd@@IAEXIHH@Z" PURGE="-1" COMMENT="" />
    <EXPORT ORDINAL="11366" NAME="?OnSize@CScrollView@@QAEXIHH@Z" PURGE="-1" COMMENT="" />
    <EXPORT ORDINAL="11365" NAME="?OnSize@CPreviewViewEx@@IAEXIHH@Z" PURGE="-1" COMMENT="" />
    <EXPORT ORDINAL="11364" NAME="?OnSize@CPreviewView@@IAEXIHH@Z" PURGE="-1" COMMENT="" />
    <EXPORT ORDINAL="11363" NAME="?OnSize@CPaneFrameWnd@@IAEXIHH@Z" PURGE="-1" COMMENT="" />
    <EXPORT ORDINAL="11362" NAME="?OnSize@CPaneDivider@@IAEXIHH@Z" PURGE="-1" COMMENT="" />
    <EXPORT ORDINAL="11361" NAME="?OnSize@COleResizeBar@@IAEXIHH@Z" PURGE="-1" COMMENT="" />
    <EXPORT ORDINAL="11360" NAME="?OnSize@COleIPFrameWnd@@IAEXIHH@Z" PURGE="-1" COMMENT="" />
    <EXPORT ORDINAL="11359" NAME="?OnSize@COleControl@@IAEXIHH@Z" PURGE="-1" COMMENT="" />
    <EXPORT ORDINAL="11358" NAME="?OnSize@COleCntrFrameWndEx@@IAEXIHH@Z" PURGE="-1" COMMENT="" />
    <EXPORT ORDINAL="11357" NAME="?OnSize@CMultiPaneFrameWnd@@IAEXIHH@Z" PURGE="-1" COMMENT="" />
    <EXPORT ORDINAL="11356" NAME="?OnSize@CMFCToolBarEditBoxButton@@UAEXH@Z" PURGE="-1" COMMENT="" />
    <EXPORT ORDINAL="11355" NAME="?OnSize@CMFCToolBarDateTimeCtrl@@UAEXH@Z" PURGE="-1" COMMENT="" />
    <EXPORT ORDINAL="11354" NAME="?OnSize@CMFCToolBarComboBoxButton@@UAEXH@Z" PURGE="-1" COMMENT="" />
    <EXPORT ORDINAL="11353" NAME="?OnSize@CMFCToolBarButtonsListButton@@IAEXIHH@Z" PURGE="-1" COMMENT="" />
    <EXPORT ORDINAL="11352" NAME="?OnSize@CMFCToolBar@@IAEXIHH@Z" PURGE="-1" COMMENT="" />
    <EXPORT ORDINAL="11351" NAME="?OnSize@CMFCTasksPane@@IAEXIHH@Z" PURGE="-1" COMMENT="" />
    <EXPORT ORDINAL="11350" NAME="?OnSize@CMFCTabCtrl@@IAEXIHH@Z" PURGE="-1" COMMENT="" />
    <EXPORT ORDINAL="11349" NAME="?OnSize@CMFCStatusBar@@IAEXIHH@Z" PURGE="-1" COMMENT="" />
    <EXPORT ORDINAL="11348" NAME="?OnSize@CMFCStandardColorsPropertyPage@@IAEXIHH@Z" PURGE="-1" COMMENT="" />
    <EXPORT ORDINAL="11347" NAME="?OnSize@CMFCShadowWnd@@IAEXIHH@Z" PURGE="-1" COMMENT="" />
    <EXPORT ORDINAL="11346" NAME="?OnSize@CMFCRibbonStatusBar@@IAEXIHH@Z" PURGE="-1" COMMENT="" />
    <EXPORT ORDINAL="11345" NAME="?OnSize@CMFCRibbonPanelMenuBar@@IAEXIHH@Z" PURGE="-1" COMMENT="" />
    <EXPORT ORDINAL="11344" NAME="?OnSize@CMFCRibbonBar@@IAEXIHH@Z" PURGE="-1" COMMENT="" />
    <EXPORT ORDINAL="11343" NAME="?OnSize@CMFCPropertyGridCtrl@@IAEXIHH@Z" PURGE="-1" COMMENT="" />
    <EXPORT ORDINAL="11342" NAME="?OnSize@CMFCPreviewCtrlImpl@@QAEXIHH@Z" PURGE="-1" COMMENT="" />
    <EXPORT ORDINAL="11341" NAME="?OnSize@CMFCPopupMenu@@IAEXIHH@Z" PURGE="-1" COMMENT="" />
    <EXPORT ORDINAL="11340" NAME="?OnSize@CMFCOutlookBarTabCtrl@@IAEXIHH@Z" PURGE="-1" COMMENT="" />
    <EXPORT ORDINAL="11339" NAME="?OnSize@CMFCOutlookBarPane@@IAEXIHH@Z" PURGE="-1" COMMENT="" />
    <EXPORT ORDINAL="11338" NAME="?OnSize@CMFCListCtrl@@IAEXIHH@Z" PURGE="-1" COMMENT="" />
    <EXPORT ORDINAL="11337" NAME="?OnSize@CMFCKeyMapDialog@@IAEXIHH@Z" PURGE="-1" COMMENT="" />
    <EXPORT ORDINAL="11336" NAME="?OnSize@CMFCDropDownFrame@@IAEXIHH@Z" PURGE="-1" COMMENT="" />
    <EXPORT ORDINAL="11335" NAME="?OnSize@CMFCColorPropertySheet@@IAEXIHH@Z" PURGE="-1" COMMENT="" />
    <EXPORT ORDINAL="11334" NAME="?OnSize@CMFCColorPickerCtrl@@IAEXIHH@Z" PURGE="-1" COMMENT="" />
    <EXPORT ORDINAL="11333" NAME="?OnSize@CMFCCaptionBar@@IAEXIHH@Z" PURGE="-1" COMMENT="" />
    <EXPORT ORDINAL="11332" NAME="?OnSize@CMFCButton@@IAEXIHH@Z" PURGE="-1" COMMENT="" />
    <EXPORT ORDINAL="11331" NAME="?OnSize@CMDIFrameWndEx@@IAEXIHH@Z" PURGE="-1" COMMENT="" />
    <EXPORT ORDINAL="11330" NAME="?OnSize@CMDIFrameWnd@@IAEXIHH@Z" PURGE="-1" COMMENT="" />
    <EXPORT ORDINAL="11329" NAME="?OnSize@CMDIChildWndEx@@IAEXIHH@Z" PURGE="-1" COMMENT="" />
    <EXPORT ORDINAL="11328" NAME="?OnSize@CMDIChildWnd@@IAEXIHH@Z" PURGE="-1" COMMENT="" />
    <EXPORT ORDINAL="11327" NAME="?OnSize@CHtmlView@@IAEXIHH@Z" PURGE="-1" COMMENT="" />
    <EXPORT ORDINAL="11326" NAME="?OnSize@CFrameWndEx@@QAEXIHH@Z" PURGE="-1" COMMENT="" />
    <EXPORT ORDINAL="11325" NAME="?OnSize@CFrameWnd@@IAEXIHH@Z" PURGE="-1" COMMENT="" />
    <EXPORT ORDINAL="11323" NAME="?OnSize@CDockablePaneAdapter@@IAEXIHH@Z" PURGE="-1" COMMENT="" />
    <EXPORT ORDINAL="11324" NAME="?OnSize@CDockSite@@IAEXIHH@Z" PURGE="-1" COMMENT="" />
    <EXPORT ORDINAL="11322" NAME="?OnSize@CDHtmlDialog@@IAEXIHH@Z" PURGE="-1" COMMENT="" />
    <EXPORT ORDINAL="11321" NAME="?OnSize@CBaseTabbedPane@@IAEXIHH@Z" PURGE="-1" COMMENT="" />
    <EXPORT ORDINAL="11320" NAME="?OnSize@CBasePane@@IAEXIHH@Z" PURGE="-1" COMMENT="" />
    <EXPORT ORDINAL="11319" NAME="?OnShowWindow@XOleClientSite@COleControlSite@@UAGJH@Z" PURGE="-1" COMMENT="" />
    <EXPORT ORDINAL="11318" NAME="?OnShowWindow@XOleClientSite@COleClientItem@@UAGJH@Z" PURGE="-1" COMMENT="" />
    <EXPORT ORDINAL="11317" NAME="?OnShowWindow@COleControl@@IAEXHI@Z" PURGE="-1" COMMENT="" />
    <EXPORT ORDINAL="11316" NAME="?OnShowWindow@CMFCToolBar@@IAEXHI@Z" PURGE="-1" COMMENT="" />
    <EXPORT ORDINAL="11315" NAME="?OnShowWindow@CMFCStatusBar@@IAEXHI@Z" PURGE="-1" COMMENT="" />
    <EXPORT ORDINAL="11314" NAME="?OnShowWindow@CMFCRibbonStatusBar@@IAEXHI@Z" PURGE="-1" COMMENT="" />
    <EXPORT ORDINAL="11313" NAME="?OnShowWindow@CMFCRibbonBar@@IAEXHI@Z" PURGE="-1" COMMENT="" />
    <EXPORT ORDINAL="11312" NAME="?OnShowWindow@CMFCPopupMenu@@IAEXHI@Z" PURGE="-1" COMMENT="" />
    <EXPORT ORDINAL="11311" NAME="?OnShowViews@COleLinkingDoc@@MAEXH@Z" PURGE="-1" COMMENT="" />
    <EXPORT ORDINAL="11310" NAME="?OnShowViews@COleDocument@@UAEXH@Z" PURGE="-1" COMMENT="" />
    <EXPORT ORDINAL="11309" NAME="?OnShowUI@CHtmlView@@UAEJKPAUIOleInPlaceActiveObject@@PAUIOleCommandTarget@@PAUIOleInPlaceFrame@@PAUIOleInPlaceUIWindow@@@Z" PURGE="-1" COMMENT="" />
    <EXPORT ORDINAL="11308" NAME="?OnShowTooltips@CMFCToolBarsOptionsPropertyPage@@IAEXXZ" PURGE="-1" COMMENT="" />
    <EXPORT ORDINAL="11307" NAME="?OnShowToolBars@COleControl@@UAEXXZ" PURGE="-1" COMMENT="" />
    <EXPORT ORDINAL="11306" NAME="?OnShowTabDocumentsMenu@CMFCTabCtrl@@UAEXVCPoint@@@Z" PURGE="-1" COMMENT="" />
    <EXPORT ORDINAL="11305" NAME="?OnShowRow@CDockSite@@UAEXPAU__POSITION@@H@Z" PURGE="-1" COMMENT="" />
    <EXPORT ORDINAL="11304" NAME="?OnShowRibbonQATMenu@CMFCRibbonBar@@UAEHPAVCWnd@@HHPAVCMFCRibbonBaseElement@@@Z" PURGE="-1" COMMENT="" />
    <EXPORT ORDINAL="11303" NAME="?OnShowRibbonContextMenu@CMFCRibbonBar@@UAEHPAVCWnd@@HHPAVCMFCRibbonBaseElement@@@Z" PURGE="-1" COMMENT="" />
    <EXPORT ORDINAL="11302" NAME="?OnShowRecentlyUsedMenus@CMFCToolBarsOptionsPropertyPage@@IAEXXZ" PURGE="-1" COMMENT="" />
    <EXPORT ORDINAL="11301" NAME="?OnShowPopupMenu@CMFCRibbonUndoButton@@MAEXXZ" PURGE="-1" COMMENT="" />
    <EXPORT ORDINAL="11300" NAME="?OnShowPopupMenu@CMFCRibbonGallery@@MAEXXZ" PURGE="-1" COMMENT="" />
    <EXPORT ORDINAL="11299" NAME="?OnShowPopupMenu@CMFCRibbonDefaultPanelButton@@UAEXXZ" PURGE="-1" COMMENT="" />
    <EXPORT ORDINAL="11298" NAME="?OnShowPopupMenu@CMFCRibbonColorButton@@MAEXXZ" PURGE="-1" COMMENT="" />
    <EXPORT ORDINAL="11297" NAME="?OnShowPopupMenu@CMFCRibbonButton@@MAEXXZ" PURGE="-1" COMMENT="" />
    <EXPORT ORDINAL="11296" NAME="?OnShowPopupMenu@CMFCRibbonBaseElement@@UAEXXZ" PURGE="-1" COMMENT="" />
    <EXPORT ORDINAL="11295" NAME="?OnShowPopupMenu@CMDIFrameWndEx@@UAEHPAVCMFCPopupMenu@@@Z" PURGE="-1" COMMENT="" />
    <EXPORT ORDINAL="11294" NAME="?OnShowPopupMenu@CFrameWndEx@@UAEHPAVCMFCPopupMenu@@@Z" PURGE="-1" COMMENT="" />
    <EXPORT ORDINAL="11293" NAME="?OnShowPopupMenu@CFrameImpl@@IAEHPAVCMFCPopupMenu@@PAVCFrameWnd@@@Z" PURGE="-1" COMMENT="" />
    <EXPORT ORDINAL="11292" NAME="?OnShowPanes@COleIPFrameWndEx@@UAEHH@Z" PURGE="-1" COMMENT="" />
    <EXPORT ORDINAL="11291" NAME="?OnShowPanes@COleDocIPFrameWndEx@@UAEHH@Z" PURGE="-1" COMMENT="" />
    <EXPORT ORDINAL="11290" NAME="?OnShowPanes@COleCntrFrameWndEx@@UAEHH@Z" PURGE="-1" COMMENT="" />
    <EXPORT ORDINAL="11289" NAME="?OnShowPanes@CMDIFrameWndEx@@UAEHH@Z" PURGE="-1" COMMENT="" />
    <EXPORT ORDINAL="11288" NAME="?OnShowPanes@CFrameWndEx@@UAEHH@Z" PURGE="-1" COMMENT="" />
    <EXPORT ORDINAL="11287" NAME="?OnShowPane@CPaneDivider@@UAEXPAVCDockablePane@@H@Z" PURGE="-1" COMMENT="" />
    <EXPORT ORDINAL="11286" NAME="?OnShowPane@CPaneContainerManager@@UAEHPAVCDockablePane@@H@Z" PURGE="-1" COMMENT="" />
    <EXPORT ORDINAL="11285" NAME="?OnShowPane@CPaneContainer@@UAEXPAVCDockablePane@@H@Z" PURGE="-1" COMMENT="" />
    <EXPORT ORDINAL="11284" NAME="?OnShowPane@CMultiPaneFrameWnd@@UAEXPAVCDockablePane@@H@Z" PURGE="-1" COMMENT="" />
    <EXPORT ORDINAL="11283" NAME="?OnShowOptions@CMFCOutlookBarTabCtrl@@UAEXXZ" PURGE="-1" COMMENT="" />
    <EXPORT ORDINAL="11282" NAME="?OnShowMorePageButtons@CMFCOutlookBarTabCtrl@@UAEXXZ" PURGE="-1" COMMENT="" />
    <EXPORT ORDINAL="11281" NAME="?OnShowMenusDelay@CMFCToolBarsOptionsPropertyPage@@IAEXXZ" PURGE="-1" COMMENT="" />
    <EXPORT ORDINAL="11280" NAME="?OnShowMenuBar@CFrameWnd@@MAEXXZ" PURGE="-1" COMMENT="" />
    <EXPORT ORDINAL="11279" NAME="?OnShowMenu@CMFCMenuButton@@MAEXXZ" PURGE="-1" COMMENT="" />
    <EXPORT ORDINAL="11278" NAME="?OnShowMDITabContextMenu@CMDIFrameWndEx@@UAEHVCPoint@@KH@Z" PURGE="-1" COMMENT="" />
    <EXPORT ORDINAL="11277" NAME="?OnShowItem@COleClientItem@@MAEXXZ" PURGE="-1" COMMENT="" />
    <EXPORT ORDINAL="11276" NAME="?OnShowFewerPageButtons@CMFCOutlookBarTabCtrl@@UAEXXZ" PURGE="-1" COMMENT="" />
    <EXPORT ORDINAL="11275" NAME="?OnShowEditbox@CMFCToolBarSpinEditBoxButton@@MAEXH@Z" PURGE="-1" COMMENT="" />
    <EXPORT ORDINAL="11274" NAME="?OnShowDocument@COleServerDoc@@MAEXH@Z" PURGE="-1" COMMENT="" />
    <EXPORT ORDINAL="11273" NAME="?OnShowCustomizePane@CFrameImpl@@IAEHPAVCMFCPopupMenu@@I@Z" PURGE="-1" COMMENT="" />
    <EXPORT ORDINAL="11272" NAME="?OnShowControlBars@COleServerDocEx@@MAEXPAVCFrameWnd@@H@Z" PURGE="-1" COMMENT="" />
    <EXPORT ORDINAL="11271" NAME="?OnShowControlBars@COleServerDoc@@UAEXPAVCFrameWnd@@H@Z" PURGE="-1" COMMENT="" />
    <EXPORT ORDINAL="11270" NAME="?OnShowControlBars@COleClientItem@@UAEHPAVCFrameWnd@@H@Z" PURGE="-1" COMMENT="" />
    <EXPORT ORDINAL="11269" NAME="?OnShowControlBarMenu@CPane@@UAEHVCPoint@@@Z" PURGE="-1" COMMENT="" />
    <EXPORT ORDINAL="11268" NAME="?OnShowContextMenu@CMFCShellTreeCtrl@@IAEXVCPoint@@@Z" PURGE="-1" COMMENT="" />
    <EXPORT ORDINAL="11267" NAME="?OnShowContextMenu@CHtmlView@@UAEJKPAUtagPOINT@@PAUIUnknown@@PAUIDispatch@@@Z" PURGE="-1" COMMENT="" />
    <EXPORT ORDINAL="11266" NAME="?OnShowColorPopup@CMFCColorButton@@MAEXXZ" PURGE="-1" COMMENT="" />
    <EXPORT ORDINAL="11265" NAME="?OnShowBand@CReBar@@IAEJIJ@Z" PURGE="-1" COMMENT="" />
    <EXPORT ORDINAL="11264" NAME="?OnShowBand@CMFCReBar@@IAEJIJ@Z" PURGE="-1" COMMENT="" />
    <EXPORT ORDINAL="11263" NAME="?OnShow@COleServerItem@@MAEXXZ" PURGE="-1" COMMENT="" />
    <EXPORT ORDINAL="11262" NAME="?OnShow@CMFCToolTipCtrl@@IAEXPAUtagNMHDR@@PAJ@Z" PURGE="-1" COMMENT="" />
    <EXPORT ORDINAL="11261" NAME="?OnShow@CMFCToolBarEditBoxButton@@UAEXH@Z" PURGE="-1" COMMENT="" />
    <EXPORT ORDINAL="11260" NAME="?OnShow@CMFCToolBarDateTimeCtrl@@UAEXH@Z" PURGE="-1" COMMENT="" />
    <EXPORT ORDINAL="11259" NAME="?OnShow@CMFCToolBarComboBoxButton@@UAEXH@Z" PURGE="-1" COMMENT="" />
    <EXPORT ORDINAL="11258" NAME="?OnShow@CMFCRibbonPanel@@MAEXH@Z" PURGE="-1" COMMENT="" />
    <EXPORT ORDINAL="11257" NAME="?OnShow@CMFCRibbonEdit@@UAEXH@Z" PURGE="-1" COMMENT="" />
    <EXPORT ORDINAL="11256" NAME="?OnShow@CMFCRibbonButtonsGroup@@MAEXH@Z" PURGE="-1" COMMENT="" />
    <EXPORT ORDINAL="11255" NAME="?OnShow@CDocObjectServerItem@@MAEXXZ" PURGE="-1" COMMENT="" />
    <EXPORT ORDINAL="11254" NAME="?OnShareViolation@XFileDialogEvents@CFileDialog@@UAGJPAUIFileDialog@@PAUIShellItem@@PAW4FDE_SHAREVIOLATION_RESPONSE@@@Z" PURGE="-1" COMMENT="" />
    <EXPORT ORDINAL="11253" NAME="?OnShareViolation@CFileDialog@@MAEIPBD@Z" PURGE="-1" COMMENT="" />
    <EXPORT ORDINAL="11248" NAME="?OnSettingChange@CWnd@@IAEXIPBD@Z" PURGE="-1" COMMENT="" />
    <EXPORT ORDINAL="11247" NAME="?OnSettingChange@CPaneFrameWnd@@IAEXIPBD@Z" PURGE="-1" COMMENT="" />
    <EXPORT ORDINAL="11246" NAME="?OnSettingChange@CMFCToolBar@@IAEXIPBD@Z" PURGE="-1" COMMENT="" />
    <EXPORT ORDINAL="11245" NAME="?OnSettingChange@CMFCTasksPane@@IAEXIPBD@Z" PURGE="-1" COMMENT="" />
    <EXPORT ORDINAL="11244" NAME="?OnSettingChange@CMFCTabCtrl@@IAEXIPBD@Z" PURGE="-1" COMMENT="" />
    <EXPORT ORDINAL="11243" NAME="?OnSettingChange@CMFCStatusBar@@IAEXIPBD@Z" PURGE="-1" COMMENT="" />
    <EXPORT ORDINAL="11242" NAME="?OnSettingChange@CMFCRibbonBar@@IAEXIPBD@Z" PURGE="-1" COMMENT="" />
    <EXPORT ORDINAL="11241" NAME="?OnSettingChange@CMFCPropertySheet@@IAEXIPBD@Z" PURGE="-1" COMMENT="" />
    <EXPORT ORDINAL="11240" NAME="?OnSettingChange@CMFCMenuBar@@IAEXIPBD@Z" PURGE="-1" COMMENT="" />
    <EXPORT ORDINAL="11239" NAME="?OnSettingChange@CDockablePane@@IAEXIPBD@Z" PURGE="-1" COMMENT="" />
    <EXPORT ORDINAL="11238" NAME="?OnSettingChange@CDialogEx@@IAEXIPBD@Z" PURGE="-1" COMMENT="" />
    <EXPORT ORDINAL="11237" NAME="?OnSettingChange@CBasePane@@IAEXIPBD@Z" PURGE="-1" COMMENT="" />
    <EXPORT ORDINAL="11236" NAME="?OnSettingChange@AFX_GLOBAL_DATA@@QAEXXZ" PURGE="-1" COMMENT="" />
    <EXPORT ORDINAL="11252" NAME="?OnSetWindowRegion@CMFCVisualManagerOffice2007@@UAEHPAVCWnd@@VCSize@@@Z" PURGE="-1" COMMENT="" />
    <EXPORT ORDINAL="11251" NAME="?OnSetWindowRegion@CMFCVisualManager@@UAEHPAVCWnd@@VCSize@@@Z" PURGE="-1" COMMENT="" />
    <EXPORT ORDINAL="11250" NAME="?OnSetWindowPos@CDockSite@@UAEHPBVCWnd@@ABVCRect@@I@Z" PURGE="-1" COMMENT="" />
    <EXPORT ORDINAL="11249" NAME="?OnSetUpdateOptions@CRecordset@@UAEXPAX@Z" PURGE="-1" COMMENT="" />
    <EXPORT ORDINAL="11235" NAME="?OnSetText@CVSListBoxBase@@IAEJIJ@Z" PURGE="-1" COMMENT="" />
    <EXPORT ORDINAL="11234" NAME="?OnSetText@CStatusBar@@IAEJIJ@Z" PURGE="-1" COMMENT="" />
    <EXPORT ORDINAL="11233" NAME="?OnSetText@COleControl@@IAEJIJ@Z" PURGE="-1" COMMENT="" />
    <EXPORT ORDINAL="11232" NAME="?OnSetText@CMFCTasksPane@@IAEJIJ@Z" PURGE="-1" COMMENT="" />
    <EXPORT ORDINAL="11231" NAME="?OnSetText@CMFCStatusBar@@IAEJIJ@Z" PURGE="-1" COMMENT="" />
    <EXPORT ORDINAL="11230" NAME="?OnSetText@CMFCMaskedEdit@@IAEJIJ@Z" PURGE="-1" COMMENT="" />
    <EXPORT ORDINAL="11229" NAME="?OnSetText@CMDIFrameWndEx@@IAEJIJ@Z" PURGE="-1" COMMENT="" />
    <EXPORT ORDINAL="11228" NAME="?OnSetText@CMDIChildWndEx@@IAEJIJ@Z" PURGE="-1" COMMENT="" />
    <EXPORT ORDINAL="11227" NAME="?OnSetText@CFrameWndEx@@QAEJIJ@Z" PURGE="-1" COMMENT="" />
    <EXPORT ORDINAL="11226" NAME="?OnSetText@CFrameImpl@@IAEXPBD@Z" PURGE="-1" COMMENT="" />
    <EXPORT ORDINAL="11225" NAME="?OnSetText@CDockablePane@@IAEJIJ@Z" PURGE="-1" COMMENT="" />
    <EXPORT ORDINAL="11224" NAME="?OnSetSizeHelper@CToolBar@@IAEJAAVCSize@@J@Z" PURGE="-1" COMMENT="" />
    <EXPORT ORDINAL="11223" NAME="?OnSetRollUpTimer@CPaneFrameWnd@@UAEXXZ" PURGE="-1" COMMENT="" />
    <EXPORT ORDINAL="11222" NAME="?OnSetRollUpTimer@CMultiPaneFrameWnd@@UAEXXZ" PURGE="-1" COMMENT="" />
    <EXPORT ORDINAL="11221" NAME="?OnSetPrintPreviewKeys@CMFCRibbonBar@@MAEXPAVCMFCRibbonPanel@@00@Z" PURGE="-1" COMMENT="" />
    <EXPORT ORDINAL="11220" NAME="?OnSetPreviewMode@COleIPFrameWndEx@@UAEXHPAUCPrintPreviewState@@@Z" PURGE="-1" COMMENT="" />
    <EXPORT ORDINAL="11219" NAME="?OnSetPreviewMode@COleDocIPFrameWndEx@@UAEXHPAUCPrintPreviewState@@@Z" PURGE="-1" COMMENT="" />
    <EXPORT ORDINAL="11218" NAME="?OnSetPreviewMode@CMDIFrameWndEx@@UAEXHPAUCPrintPreviewState@@@Z" PURGE="-1" COMMENT="" />
    <EXPORT ORDINAL="11217" NAME="?OnSetPreviewMode@CMDIChildWndEx@@UAEXHPAUCPrintPreviewState@@@Z" PURGE="-1" COMMENT="" />
    <EXPORT ORDINAL="11216" NAME="?OnSetPreviewMode@CFrameWndEx@@UAEXHPAUCPrintPreviewState@@@Z" PURGE="-1" COMMENT="" />
    <EXPORT ORDINAL="11215" NAME="?OnSetPreviewMode@CFrameWnd@@UAEXHPAUCPrintPreviewState@@@Z" PURGE="-1" COMMENT="" />
    <EXPORT ORDINAL="11214" NAME="?OnSetPageSite@COlePropertyPage@@UAEXXZ" PURGE="-1" COMMENT="" />
    <EXPORT ORDINAL="11213" NAME="?OnSetOptions@CRecordset@@UAEXPAX@Z" PURGE="-1" COMMENT="" />
    <EXPORT ORDINAL="11212" NAME="?OnSetOptions@CDatabase@@UAEXPAX@Z" PURGE="-1" COMMENT="" />
    <EXPORT ORDINAL="11211" NAME="?OnSetObjectRects@COleControl@@UAEHPBUtagRECT@@0@Z" PURGE="-1" COMMENT="" />
    <EXPORT ORDINAL="11210" NAME="?OnSetMinHeight@CStatusBar@@IAEJIJ@Z" PURGE="-1" COMMENT="" />
    <EXPORT ORDINAL="11209" NAME="?OnSetMessageString@COleIPFrameWnd@@UAEJIJ@Z" PURGE="-1" COMMENT="" />
    <EXPORT ORDINAL="11208" NAME="?OnSetMessageString@COleControl@@IAEJIJ@Z" PURGE="-1" COMMENT="" />
    <EXPORT ORDINAL="11207" NAME="?OnSetMessageString@CFrameWnd@@IAEJIJ@Z" PURGE="-1" COMMENT="" />
    <EXPORT ORDINAL="11206" NAME="?OnSetMenu@COleIPFrameWndEx@@IAEJIJ@Z" PURGE="-1" COMMENT="" />
    <EXPORT ORDINAL="11205" NAME="?OnSetMenu@COleIPFrameWndEx@@IAEHPAUHMENU__@@@Z" PURGE="-1" COMMENT="" />
    <EXPORT ORDINAL="11204" NAME="?OnSetMenu@COleDocIPFrameWndEx@@IAEJIJ@Z" PURGE="-1" COMMENT="" />
    <EXPORT ORDINAL="11203" NAME="?OnSetMenu@COleDocIPFrameWndEx@@IAEHPAUHMENU__@@@Z" PURGE="-1" COMMENT="" />
    <EXPORT ORDINAL="11202" NAME="?OnSetMenu@COleClientItem@@UAEXPAVCMenu@@PAXPAUHWND__@@@Z" PURGE="-1" COMMENT="" />
    <EXPORT ORDINAL="11201" NAME="?OnSetMenu@CMDIFrameWndEx@@MAEHPAUHMENU__@@@Z" PURGE="-1" COMMENT="" />
    <EXPORT ORDINAL="11200" NAME="?OnSetMenu@CMDIClientAreaWnd@@IAEJIJ@Z" PURGE="-1" COMMENT="" />
    <EXPORT ORDINAL="11199" NAME="?OnSetMenu@CFrameWndEx@@QAEJIJ@Z" PURGE="-1" COMMENT="" />
    <EXPORT ORDINAL="11198" NAME="?OnSetMenu@CFrameWndEx@@IAEHPAUHMENU__@@@Z" PURGE="-1" COMMENT="" />
    <EXPORT ORDINAL="11197" NAME="?OnSetItemRects@COleServerDoc@@MAEXPBUtagRECT@@0@Z" PURGE="-1" COMMENT="" />
    <EXPORT ORDINAL="11196" NAME="?OnSetItemRects@CDocObjectServer@@IAEXPAUtagRECT@@0@Z" PURGE="-1" COMMENT="" />
    <EXPORT ORDINAL="11195" NAME="?OnSetImage@CMFCButton@@IAEJIJ@Z" PURGE="-1" COMMENT="" />
    <EXPORT ORDINAL="11194" NAME="?OnSetIcon@CMFCRibbonLinkCtrl@@UAEXXZ" PURGE="-1" COMMENT="" />
    <EXPORT ORDINAL="11193" NAME="?OnSetIcon@CMDIChildWndEx@@IAEJIJ@Z" PURGE="-1" COMMENT="" />
    <EXPORT ORDINAL="11192" NAME="?OnSetIcon@CBasePane@@IAEJIJ@Z" PURGE="-1" COMMENT="" />
    <EXPORT ORDINAL="11191" NAME="?OnSetHostNames@COleServerDoc@@MAEXPBD0@Z" PURGE="-1" COMMENT="" />
    <EXPORT ORDINAL="11190" NAME="?OnSetFont@CVSListBoxBase@@IAEJIJ@Z" PURGE="-1" COMMENT="" />
    <EXPORT ORDINAL="11189" NAME="?OnSetFont@CMFCTasksPane@@IAEJIJ@Z" PURGE="-1" COMMENT="" />
    <EXPORT ORDINAL="11188" NAME="?OnSetFont@CMFCStatusBar@@IAEJIJ@Z" PURGE="-1" COMMENT="" />
    <EXPORT ORDINAL="11187" NAME="?OnSetFont@CMFCRibbonBar@@IAEJIJ@Z" PURGE="-1" COMMENT="" />
    <EXPORT ORDINAL="11186" NAME="?OnSetFont@CMFCPropertyGridToolTipCtrl@@IAEJIJ@Z" PURGE="-1" COMMENT="" />
    <EXPORT ORDINAL="11185" NAME="?OnSetFont@CMFCPropertyGridCtrl@@IAEJIJ@Z" PURGE="-1" COMMENT="" />
    <EXPORT ORDINAL="11184" NAME="?OnSetFont@CMFCHeaderCtrl@@IAEJIJ@Z" PURGE="-1" COMMENT="" />
    <EXPORT ORDINAL="11183" NAME="?OnSetFont@CMFCCaptionBar@@IAEJIJ@Z" PURGE="-1" COMMENT="" />
    <EXPORT ORDINAL="11182" NAME="?OnSetFont@CMFCButton@@IAEJIJ@Z" PURGE="-1" COMMENT="" />
    <EXPORT ORDINAL="11181" NAME="?OnSetFont@CEditView@@IAEJIJ@Z" PURGE="-1" COMMENT="" />
    <EXPORT ORDINAL="11180" NAME="?OnSetFont@CDialog@@UAEXPAVCFont@@@Z" PURGE="-1" COMMENT="" />
    <EXPORT ORDINAL="11179" NAME="?OnSetFont@CCheckListBox@@IAEJIJ@Z" PURGE="-1" COMMENT="" />
    <EXPORT ORDINAL="11178" NAME="?OnSetFocusR@CMFCMaskedEdit@@IAEXXZ" PURGE="-1" COMMENT="" />
    <EXPORT ORDINAL="11177" NAME="?OnSetFocus@CWnd@@IAEXPAV1@@Z" PURGE="-1" COMMENT="" />
    <EXPORT ORDINAL="11176" NAME="?OnSetFocus@CVSListBoxBase@@IAEXPAVCWnd@@@Z" PURGE="-1" COMMENT="" />
    <EXPORT ORDINAL="11175" NAME="?OnSetFocus@CPaneFrameWnd@@IAEXPAVCWnd@@@Z" PURGE="-1" COMMENT="" />
    <EXPORT ORDINAL="11174" NAME="?OnSetFocus@COleControl@@IAEXPAVCWnd@@@Z" PURGE="-1" COMMENT="" />
    <EXPORT ORDINAL="11173" NAME="?OnSetFocus@CMultiPaneFrameWnd@@IAEXPAVCWnd@@@Z" PURGE="-1" COMMENT="" />
    <EXPORT ORDINAL="11172" NAME="?OnSetFocus@CMFCToolBarEditCtrl@@IAEXPAVCWnd@@@Z" PURGE="-1" COMMENT="" />
    <EXPORT ORDINAL="11171" NAME="?OnSetFocus@CMFCToolBarComboBoxEdit@@IAEXPAVCWnd@@@Z" PURGE="-1" COMMENT="" />
    <EXPORT ORDINAL="11170" NAME="?OnSetFocus@CMFCToolBar@@IAEXPAVCWnd@@@Z" PURGE="-1" COMMENT="" />
    <EXPORT ORDINAL="11169" NAME="?OnSetFocus@CMFCTabCtrl@@IAEXPAVCWnd@@@Z" PURGE="-1" COMMENT="" />
    <EXPORT ORDINAL="11168" NAME="?OnSetFocus@CMFCRibbonRichEditCtrl@@IAEXPAVCWnd@@@Z" PURGE="-1" COMMENT="" />
    <EXPORT ORDINAL="11167" NAME="?OnSetFocus@CMFCRibbonGallery@@UAEXH@Z" PURGE="-1" COMMENT="" />
    <EXPORT ORDINAL="11166" NAME="?OnSetFocus@CMFCRibbonEdit@@UAEXH@Z" PURGE="-1" COMMENT="" />
    <EXPORT ORDINAL="11165" NAME="?OnSetFocus@CMFCRibbonBar@@IAEXPAVCWnd@@@Z" PURGE="-1" COMMENT="" />
    <EXPORT ORDINAL="11164" NAME="?OnSetFocus@CMFCPropertyGridCtrl@@IAEXPAVCWnd@@@Z" PURGE="-1" COMMENT="" />
    <EXPORT ORDINAL="11163" NAME="?OnSetFocus@CMFCOutlookBarPane@@IAEXPAVCWnd@@@Z" PURGE="-1" COMMENT="" />
    <EXPORT ORDINAL="11162" NAME="?OnSetFocus@CMFCMenuBar@@IAEXPAVCWnd@@@Z" PURGE="-1" COMMENT="" />
    <EXPORT ORDINAL="11161" NAME="?OnSetFocus@CMFCDesktopAlertDialog@@IAEXPAVCWnd@@@Z" PURGE="-1" COMMENT="" />
    <EXPORT ORDINAL="11160" NAME="?OnSetFocus@CMFCColorPickerCtrl@@IAEXPAVCWnd@@@Z" PURGE="-1" COMMENT="" />
    <EXPORT ORDINAL="11159" NAME="?OnSetFocus@CFrameWnd@@IAEXPAVCWnd@@@Z" PURGE="-1" COMMENT="" />
    <EXPORT ORDINAL="11158" NAME="?OnSetFocus@CFormView@@IAEXPAVCWnd@@@Z" PURGE="-1" COMMENT="" />
    <EXPORT ORDINAL="11157" NAME="?OnSetFocus@CDockablePane@@IAEXPAVCWnd@@@Z" PURGE="-1" COMMENT="" />
    <EXPORT ORDINAL="11156" NAME="?OnSetFocus@CBaseTabbedPane@@IAEXPAVCWnd@@@Z" PURGE="-1" COMMENT="" />
    <EXPORT ORDINAL="11155" NAME="?OnSetExtent@COleServerItem@@UAEHW4tagDVASPECT@@ABVCSize@@@Z" PURGE="-1" COMMENT="" />
    <EXPORT ORDINAL="11154" NAME="?OnSetExtent@COleControl@@UAEHPAUtagSIZE@@@Z" PURGE="-1" COMMENT="" />
    <EXPORT ORDINAL="11152" NAME="?OnSetDefaultButtonText@CMFCToolBar@@UAEHPAVCMFCToolBarButton@@@Z" PURGE="-1" COMMENT="" />
    <EXPORT ORDINAL="11151" NAME="?OnSetDefaultButtonText@CMFCPopupMenuBar@@MAEHPAVCMFCToolBarButton@@@Z" PURGE="-1" COMMENT="" />
    <EXPORT ORDINAL="11150" NAME="?OnSetDefaultButtonText@CMFCMenuBar@@UAEHPAVCMFCToolBarButton@@@Z" PURGE="-1" COMMENT="" />
    <EXPORT ORDINAL="11153" NAME="?OnSetDefID@CPropertySheet@@IAEJIJ@Z" PURGE="-1" COMMENT="" />
    <EXPORT ORDINAL="11149" NAME="?OnSetData@COleServerItem@@UAEHPAUtagFORMATETC@@PAUtagSTGMEDIUM@@H@Z" PURGE="-1" COMMENT="" />
    <EXPORT ORDINAL="11148" NAME="?OnSetData@COleDataSource@@UAEHPAUtagFORMATETC@@PAUtagSTGMEDIUM@@H@Z" PURGE="-1" COMMENT="" />
    <EXPORT ORDINAL="11147" NAME="?OnSetData@COleControl@@UAEHPAUtagFORMATETC@@PAUtagSTGMEDIUM@@H@Z" PURGE="-1" COMMENT="" />
    <EXPORT ORDINAL="11146" NAME="?OnSetData@CItemDataSource@COleServerItem@@MAEHPAUtagFORMATETC@@PAUtagSTGMEDIUM@@H@Z" PURGE="-1" COMMENT="" />
    <EXPORT ORDINAL="11145" NAME="?OnSetData@CControlDataSource@COleControl@@MAEHPAUtagFORMATETC@@PAUtagSTGMEDIUM@@H@Z" PURGE="-1" COMMENT="" />
    <EXPORT ORDINAL="11144" NAME="?OnSetCursor@CSplitterWnd@@IAEHPAVCWnd@@II@Z" PURGE="-1" COMMENT="" />
    <EXPORT ORDINAL="11143" NAME="?OnSetCursor@CPreviewView@@IAEHPAVCWnd@@II@Z" PURGE="-1" COMMENT="" />
    <EXPORT ORDINAL="11142" NAME="?OnSetCursor@CPaneFrameWnd@@IAEHPAVCWnd@@II@Z" PURGE="-1" COMMENT="" />
    <EXPORT ORDINAL="11141" NAME="?OnSetCursor@CPaneDivider@@IAEHPAVCWnd@@II@Z" PURGE="-1" COMMENT="" />
    <EXPORT ORDINAL="11140" NAME="?OnSetCursor@COleResizeBar@@IAEHPAVCWnd@@II@Z" PURGE="-1" COMMENT="" />
    <EXPORT ORDINAL="11139" NAME="?OnSetCursor@COleControl@@IAEHPAVCWnd@@II@Z" PURGE="-1" COMMENT="" />
    <EXPORT ORDINAL="11138" NAME="?OnSetCursor@CMFCToolBar@@IAEHPAVCWnd@@II@Z" PURGE="-1" COMMENT="" />
    <EXPORT ORDINAL="11137" NAME="?OnSetCursor@CMFCTasksPane@@IAEHPAVCWnd@@II@Z" PURGE="-1" COMMENT="" />
    <EXPORT ORDINAL="11136" NAME="?OnSetCursor@CMFCTabCtrl@@IAEHPAVCWnd@@II@Z" PURGE="-1" COMMENT="" />
    <EXPORT ORDINAL="11135" NAME="?OnSetCursor@CMFCRibbonBar@@IAEHPAVCWnd@@II@Z" PURGE="-1" COMMENT="" />
    <EXPORT ORDINAL="11134" NAME="?OnSetCursor@CMFCPropertyGridProperty@@UBEHXZ" PURGE="-1" COMMENT="" />
    <EXPORT ORDINAL="11133" NAME="?OnSetCursor@CMFCPropertyGridCtrl@@IAEHPAVCWnd@@II@Z" PURGE="-1" COMMENT="" />
    <EXPORT ORDINAL="11132" NAME="?OnSetCursor@CMFCPopupMenu@@IAEHPAVCWnd@@II@Z" PURGE="-1" COMMENT="" />
    <EXPORT ORDINAL="11131" NAME="?OnSetCursor@CMFCOutlookBarToolBar@@QAEHPAVCWnd@@II@Z" PURGE="-1" COMMENT="" />
    <EXPORT ORDINAL="11130" NAME="?OnSetCursor@CMFCOutlookBarTabCtrl@@IAEHPAVCWnd@@II@Z" PURGE="-1" COMMENT="" />
    <EXPORT ORDINAL="11129" NAME="?OnSetCursor@CMFCImagePaintArea@@IAEHPAVCWnd@@II@Z" PURGE="-1" COMMENT="" />
    <EXPORT ORDINAL="11128" NAME="?OnSetCursor@CMFCColorDialog@@IAEHPAVCWnd@@II@Z" PURGE="-1" COMMENT="" />
    <EXPORT ORDINAL="11127" NAME="?OnSetCursor@CMFCButton@@IAEHPAVCWnd@@II@Z" PURGE="-1" COMMENT="" />
    <EXPORT ORDINAL="11126" NAME="?OnSetCursor@CFrameWnd@@IAEHPAVCWnd@@II@Z" PURGE="-1" COMMENT="" />
    <EXPORT ORDINAL="11125" NAME="?OnSetColumns@CMFCShellListCtrl@@UAEXXZ" PURGE="-1" COMMENT="" />
    <EXPORT ORDINAL="11124" NAME="?OnSetColumns@CMFCKeyMapDialog@@MAEXXZ" PURGE="-1" COMMENT="" />
    <EXPORT ORDINAL="11123" NAME="?OnSetColorScheme@COleServerItem@@UAEHPBUtagLOGPALETTE@@@Z" PURGE="-1" COMMENT="" />
    <EXPORT ORDINAL="11122" NAME="?OnSetClientSite@COleControl@@UAEXXZ" PURGE="-1" COMMENT="" />
    <EXPORT ORDINAL="11121" NAME="?OnSetCheck@CMFCButton@@IAEJIJ@Z" PURGE="-1" COMMENT="" />
    <EXPORT ORDINAL="11120" NAME="?OnSetButtonSize@CToolBar@@IAEJIJ@Z" PURGE="-1" COMMENT="" />
    <EXPORT ORDINAL="11119" NAME="?OnSetBitmapSize@CToolBar@@IAEJIJ@Z" PURGE="-1" COMMENT="" />
    <EXPORT ORDINAL="11118" NAME="?OnSetActive@CPropertyPage@@UAEHXZ" PURGE="-1" COMMENT="" />
    <EXPORT ORDINAL="11117" NAME="?OnSetActive@CMFCPropertyPage@@UAEHXZ" PURGE="-1" COMMENT="" />
    <EXPORT ORDINAL="11116" NAME="?OnSetAccData@CMFCToolBar@@UAEHJ@Z" PURGE="-1" COMMENT="" />
    <EXPORT ORDINAL="11115" NAME="?OnSetAccData@CMFCTasksPane@@UAEHJ@Z" PURGE="-1" COMMENT="" />
    <EXPORT ORDINAL="11114" NAME="?OnSetAccData@CMFCRibbonPanelMenuBar@@UAEHJ@Z" PURGE="-1" COMMENT="" />
    <EXPORT ORDINAL="11113" NAME="?OnSetAccData@CMFCRibbonBar@@UAEHJ@Z" PURGE="-1" COMMENT="" />
    <EXPORT ORDINAL="11112" NAME="?OnSetAccData@CBasePane@@UAEHJ@Z" PURGE="-1" COMMENT="" />
    <EXPORT ORDINAL="11111" NAME="?OnSendIconicThumbnail@CMDITabProxyWnd@@IAEJIJ@Z" PURGE="-1" COMMENT="" />
    <EXPORT ORDINAL="11110" NAME="?OnSendIconicThumbnail@CMDIChildWndEx@@IAEXIJ@Z" PURGE="-1" COMMENT="" />
    <EXPORT ORDINAL="11109" NAME="?OnSendIconicLivePreviewBitmap@CMDITabProxyWnd@@IAEJIJ@Z" PURGE="-1" COMMENT="" />
    <EXPORT ORDINAL="11108" NAME="?OnSendIconicLivePreviewBitmap@CMDIChildWndEx@@IAEXIJ@Z" PURGE="-1" COMMENT="" />
    <EXPORT ORDINAL="11107" NAME="?OnSendCommand@CMFCPopupMenuBar@@MAEHPBVCMFCToolBarButton@@@Z" PURGE="-1" COMMENT="" />
    <EXPORT ORDINAL="11106" NAME="?OnSendCommand@CMFCOutlookBarToolBar@@UAEHPBVCMFCToolBarButton@@@Z" PURGE="-1" COMMENT="" />
    <EXPORT ORDINAL="11105" NAME="?OnSendCommand@CMFCOutlookBarPaneList@@EAEHPBVCMFCToolBarButton@@@Z" PURGE="-1" COMMENT="" />
    <EXPORT ORDINAL="11104" NAME="?OnSendCommand@CMFCMenuBar@@UAEHPBVCMFCToolBarButton@@@Z" PURGE="-1" COMMENT="" />
    <EXPORT ORDINAL="11103" NAME="?OnSendCommand@CMFCDropDownToolBar@@UAEHPBVCMFCToolBarButton@@@Z" PURGE="-1" COMMENT="" />
    <EXPORT ORDINAL="11102" NAME="?OnSendCommand@CMFCColorBar@@MAEHPBVCMFCToolBarButton@@@Z" PURGE="-1" COMMENT="" />
    <EXPORT ORDINAL="11101" NAME="?OnSend@CAsyncSocket@@MAEXH@Z" PURGE="-1" COMMENT="" />
    <EXPORT ORDINAL="11100" NAME="?OnSelendokCategoryCombo@CMFCRibbonCustomizePropertyPage@@IAEXXZ" PURGE="-1" COMMENT="" />
    <EXPORT ORDINAL="11096" NAME="?OnSelectionChanged@CVSToolsListBox@@UAEXXZ" PURGE="-1" COMMENT="" />
    <EXPORT ORDINAL="11095" NAME="?OnSelectionChange@XFileDialogEvents@CFileDialog@@UAGJPAUIFileDialog@@@Z" PURGE="-1" COMMENT="" />
    <EXPORT ORDINAL="11099" NAME="?OnSelectTree@CMFCPropertySheet@@IAEXPAUtagNMHDR@@PAJ@Z" PURGE="-1" COMMENT="" />
    <EXPORT ORDINAL="11098" NAME="?OnSelectList@CMFCPropertySheet@@IAEXXZ" PURGE="-1" COMMENT="" />
    <EXPORT ORDINAL="11097" NAME="?OnSelectItem@CMFCRibbonComboBox@@UAEXH@Z" PURGE="-1" COMMENT="" />
    <EXPORT ORDINAL="11094" NAME="?OnSelectCombo@CMFCPropertyGridProperty@@UAEXXZ" PURGE="-1" COMMENT="" />
    <EXPORT ORDINAL="11093" NAME="?OnSelectCombo@CMFCPropertyGridCtrl@@IAEXXZ" PURGE="-1" COMMENT="" />
    <EXPORT ORDINAL="11092" NAME="?OnSelchangeViewType@CMFCToolBarsKeyboardPropertyPage@@IAEXXZ" PURGE="-1" COMMENT="" />
    <EXPORT ORDINAL="11091" NAME="?OnSelchangeViewType@CMFCRibbonKeyboardCustomizeDialog@@IAEXXZ" PURGE="-1" COMMENT="" />
    <EXPORT ORDINAL="11090" NAME="?OnSelchangeViewType@CMFCKeyMapDialog@@IAEXXZ" PURGE="-1" COMMENT="" />
    <EXPORT ORDINAL="11089" NAME="?OnSelchangeUserTools@CMFCToolBarsCommandsPropertyPage@@IAEXXZ" PURGE="-1" COMMENT="" />
    <EXPORT ORDINAL="11088" NAME="?OnSelchangeToolbarList@CMFCToolBarsListPropertyPage@@IAEXXZ" PURGE="-1" COMMENT="" />
    <EXPORT ORDINAL="11087" NAME="?OnSelchangeQATCommands@CMFCRibbonCustomizePropertyPage@@IAEXXZ" PURGE="-1" COMMENT="" />
    <EXPORT ORDINAL="11086" NAME="?OnSelchangeMenuList@CMFCToolBarsMenuPropertyPage@@IAEXXZ" PURGE="-1" COMMENT="" />
    <EXPORT ORDINAL="11085" NAME="?OnSelchangeListOfCommands@CMFCMousePropertyPage@@IAEXXZ" PURGE="-1" COMMENT="" />
    <EXPORT ORDINAL="11084" NAME="?OnSelchangeList@CMFCWindowsManagerDialog@@IAEXXZ" PURGE="-1" COMMENT="" />
    <EXPORT ORDINAL="11083" NAME="?OnSelchangeCurrentKeysList@CMFCToolBarsKeyboardPropertyPage@@IAEXXZ" PURGE="-1" COMMENT="" />
    <EXPORT ORDINAL="11082" NAME="?OnSelchangeCurrentKeysList@CMFCRibbonKeyboardCustomizeDialog@@IAEXXZ" PURGE="-1" COMMENT="" />
    <EXPORT ORDINAL="11081" NAME="?OnSelchangeContextMenuList@CMFCToolBarsMenuPropertyPage@@IAEXXZ" PURGE="-1" COMMENT="" />
    <EXPORT ORDINAL="11080" NAME="?OnSelchangeCommandsList@CMFCToolBarsKeyboardPropertyPage@@IAEXXZ" PURGE="-1" COMMENT="" />
    <EXPORT ORDINAL="11079" NAME="?OnSelchangeCommandsList@CMFCRibbonKeyboardCustomizeDialog@@IAEXXZ" PURGE="-1" COMMENT="" />
    <EXPORT ORDINAL="11078" NAME="?OnSelchangeCommandsList@CMFCRibbonCustomizePropertyPage@@IAEXXZ" PURGE="-1" COMMENT="" />
    <EXPORT ORDINAL="11077" NAME="?OnSelchangeCategory@CMFCToolBarsKeyboardPropertyPage@@IAEXXZ" PURGE="-1" COMMENT="" />
    <EXPORT ORDINAL="11076" NAME="?OnSelchangeCategory@CMFCToolBarsCommandsPropertyPage@@IAEXXZ" PURGE="-1" COMMENT="" />
    <EXPORT ORDINAL="11075" NAME="?OnSelchangeCategory@CMFCRibbonKeyboardCustomizeDialog@@IAEXXZ" PURGE="-1" COMMENT="" />
    <EXPORT ORDINAL="11074" NAME="?OnSelchangeCategory@CMFCKeyMapDialog@@IAEXXZ" PURGE="-1" COMMENT="" />
    <EXPORT ORDINAL="11072" NAME="?OnSelchange@COutlookOptionsDlg@@IAEXXZ" PURGE="-1" COMMENT="" />
    <EXPORT ORDINAL="11073" NAME="?OnSelChange@CRichEditView@@IAEXPAUtagNMHDR@@PAJ@Z" PURGE="-1" COMMENT="" />
    <EXPORT ORDINAL="11071" NAME="?OnScrollHorz@CMFCRibbonCategory@@UAEHHH@Z" PURGE="-1" COMMENT="" />
    <EXPORT ORDINAL="11070" NAME="?OnScrollBy@CView@@UAEHVCSize@@H@Z" PURGE="-1" COMMENT="" />
    <EXPORT ORDINAL="11069" NAME="?OnScrollBy@CScrollView@@UAEHVCSize@@H@Z" PURGE="-1" COMMENT="" />
    <EXPORT ORDINAL="11068" NAME="?OnScrollBy@COleClientItem@@MAEHVCSize@@@Z" PURGE="-1" COMMENT="" />
    <EXPORT ORDINAL="11067" NAME="?OnScroll@CView@@UAEHIIH@Z" PURGE="-1" COMMENT="" />
    <EXPORT ORDINAL="11066" NAME="?OnScroll@CScrollView@@UAEHIIH@Z" PURGE="-1" COMMENT="" />
    <EXPORT ORDINAL="11065" NAME="?OnSaveViewState@CDocObjectServer@@MAEXAAVCArchive@@@Z" PURGE="-1" COMMENT="" />
    <EXPORT ORDINAL="11064" NAME="?OnSaveEmbedding@COleServerItem@@MAEXPAUIStorage@@@Z" PURGE="-1" COMMENT="" />
    <EXPORT ORDINAL="11063" NAME="?OnSaveEmbedding@COleServerDoc@@MAEXPAUIStorage@@@Z" PURGE="-1" COMMENT="" />
    <EXPORT ORDINAL="11062" NAME="?OnSaveDocument@COleServerDoc@@UAEHPBD@Z" PURGE="-1" COMMENT="" />
    <EXPORT ORDINAL="11061" NAME="?OnSaveDocument@COleLinkingDoc@@UAEHPBD@Z" PURGE="-1" COMMENT="" />
    <EXPORT ORDINAL="11060" NAME="?OnSaveDocument@COleDocument@@UAEHPBD@Z" PURGE="-1" COMMENT="" />
    <EXPORT ORDINAL="11059" NAME="?OnSaveDocument@CHtmlEditDoc@@UAEHPBD@Z" PURGE="-1" COMMENT="" />
    <EXPORT ORDINAL="11058" NAME="?OnSaveDocument@CDocument@@UAEHPBD@Z" PURGE="-1" COMMENT="" />
    <EXPORT ORDINAL="11057" NAME="?OnSave@XAdviseSink@COleClientItem@@UAGXXZ" PURGE="-1" COMMENT="" />
    <EXPORT ORDINAL="11056" NAME="?OnSave@CMFCWindowsManagerDialog@@IAEXXZ" PURGE="-1" COMMENT="" />
    <EXPORT ORDINAL="11046" NAME="?OnRowsetChange@XRowsetNotify@COleControlSite@@UAGJPAUIRowset@@KKH@Z" PURGE="-1" COMMENT="" />
    <EXPORT ORDINAL="11045" NAME="?OnRowChange@XRowsetNotify@COleControlSite@@UAGJPAUIRowset@@KQBKKKH@Z" PURGE="-1" COMMENT="" />
    <EXPORT ORDINAL="11044" NAME="?OnRotateListValue@CMFCPropertyGridProperty@@MAEHH@Z" PURGE="-1" COMMENT="" />
    <EXPORT ORDINAL="11043" NAME="?OnRichPreviewUnload@CDocument@@UAEXXZ" PURGE="-1" COMMENT="" />
    <EXPORT ORDINAL="11041" NAME="?OnReturn@CMFCShellListCtrl@@IAEXPAUtagNMHDR@@PAJ@Z" PURGE="-1" COMMENT="" />
    <EXPORT ORDINAL="11040" NAME="?OnResizeRow@CDockSite@@UAEHPAVCDockingPanesRow@@H@Z" PURGE="-1" COMMENT="" />
    <EXPORT ORDINAL="11039" NAME="?OnResizePane@CDockingPanesRow@@UAEXPAVCBasePane@@@Z" PURGE="-1" COMMENT="" />
    <EXPORT ORDINAL="11038" NAME="?OnResizeChild@COleIPFrameWnd@@IAEJIJ@Z" PURGE="-1" COMMENT="" />
    <EXPORT ORDINAL="11037" NAME="?OnResizeBorder@COleServerDocEx@@MAEXPBUtagRECT@@PAUIOleInPlaceUIWindow@@H@Z" PURGE="-1" COMMENT="" />
    <EXPORT ORDINAL="11036" NAME="?OnResizeBorder@COleServerDoc@@UAEXPBUtagRECT@@PAUIOleInPlaceUIWindow@@H@Z" PURGE="-1" COMMENT="" />
    <EXPORT ORDINAL="11035" NAME="?OnResizeBorder@CHtmlView@@UAEJPBUtagRECT@@PAUIOleInPlaceUIWindow@@H@Z" PURGE="-1" COMMENT="" />
    <EXPORT ORDINAL="11034" NAME="?OnResetUsageData@CMFCToolBarsOptionsPropertyPage@@IAEXXZ" PURGE="-1" COMMENT="" />
    <EXPORT ORDINAL="11033" NAME="?OnResetToolbar@CMFCToolBarsListPropertyPage@@IAEXXZ" PURGE="-1" COMMENT="" />
    <EXPORT ORDINAL="11032" NAME="?OnResetState@COleControl@@UAEXXZ" PURGE="-1" COMMENT="" />
    <EXPORT ORDINAL="11031" NAME="?OnResetMenu@CMFCToolBarsMenuPropertyPage@@IAEXXZ" PURGE="-1" COMMENT="" />
    <EXPORT ORDINAL="11030" NAME="?OnResetFrameMenu@CMFCToolBarsMenuPropertyPage@@IAEXXZ" PURGE="-1" COMMENT="" />
    <EXPORT ORDINAL="11029" NAME="?OnResetAllToolbars@CMFCToolBarsListPropertyPage@@IAEXXZ" PURGE="-1" COMMENT="" />
    <EXPORT ORDINAL="11028" NAME="?OnResetAll@CMFCToolBarsKeyboardPropertyPage@@IAEXXZ" PURGE="-1" COMMENT="" />
    <EXPORT ORDINAL="11027" NAME="?OnResetAll@CMFCRibbonKeyboardCustomizeDialog@@IAEXXZ" PURGE="-1" COMMENT="" />
    <EXPORT ORDINAL="11026" NAME="?OnReset@CPropertyPage@@UAEXXZ" PURGE="-1" COMMENT="" />
    <EXPORT ORDINAL="11025" NAME="?OnReset@COutlookOptionsDlg@@IAEXXZ" PURGE="-1" COMMENT="" />
    <EXPORT ORDINAL="11024" NAME="?OnReset@CEnumArray@@MAEXXZ" PURGE="-1" COMMENT="" />
    <EXPORT ORDINAL="11023" NAME="?OnRequestPositionChange@COleIPFrameWnd@@MAEXPBUtagRECT@@@Z" PURGE="-1" COMMENT="" />
    <EXPORT ORDINAL="11022" NAME="?OnRequestPositionChange@COleDocIPFrameWnd@@MAEXPBUtagRECT@@@Z" PURGE="-1" COMMENT="" />
    <EXPORT ORDINAL="11020" NAME="?OnRequestEdit@XPropertyNotifySink@COleControlSite@@UAGJJ@Z" PURGE="-1" COMMENT="" />
    <EXPORT ORDINAL="11021" NAME="?OnRequestEdit@XPropNotifySink@COlePropertyPage@@UAGJJ@Z" PURGE="-1" COMMENT="" />
    <EXPORT ORDINAL="11019" NAME="?OnRequestEdit@XFontNotification@COleControl@@UAGJJ@Z" PURGE="-1" COMMENT="" />
    <EXPORT ORDINAL="11018" NAME="?OnReplaceSel@CRichEditView@@MAEXPBDHHH0@Z" PURGE="-1" COMMENT="" />
    <EXPORT ORDINAL="11017" NAME="?OnReplaceSel@CEditView@@MAEXPBDHH0@Z" PURGE="-1" COMMENT="" />
    <EXPORT ORDINAL="11016" NAME="?OnReplaceAll@CRichEditView@@MAEXPBD0HH@Z" PURGE="-1" COMMENT="" />
    <EXPORT ORDINAL="11015" NAME="?OnReplaceAll@CEditView@@MAEXPBD0H@Z" PURGE="-1" COMMENT="" />
    <EXPORT ORDINAL="11014" NAME="?OnRenderGlobalData@COleServerItem@@UAEHPAUtagFORMATETC@@PAPAX@Z" PURGE="-1" COMMENT="" />
    <EXPORT ORDINAL="11013" NAME="?OnRenderGlobalData@COleDataSource@@UAEHPAUtagFORMATETC@@PAPAX@Z" PURGE="-1" COMMENT="" />
    <EXPORT ORDINAL="11012" NAME="?OnRenderGlobalData@COleControl@@UAEHPAUtagFORMATETC@@PAPAX@Z" PURGE="-1" COMMENT="" />
    <EXPORT ORDINAL="11011" NAME="?OnRenderGlobalData@CItemDataSource@COleServerItem@@MAEHPAUtagFORMATETC@@PAPAX@Z" PURGE="-1" COMMENT="" />
    <EXPORT ORDINAL="11010" NAME="?OnRenderGlobalData@CControlDataSource@COleControl@@MAEHPAUtagFORMATETC@@PAPAX@Z" PURGE="-1" COMMENT="" />
    <EXPORT ORDINAL="11009" NAME="?OnRenderFileData@COleServerItem@@UAEHPAUtagFORMATETC@@PAVCFile@@@Z" PURGE="-1" COMMENT="" />
    <EXPORT ORDINAL="11008" NAME="?OnRenderFileData@COleDataSource@@UAEHPAUtagFORMATETC@@PAVCFile@@@Z" PURGE="-1" COMMENT="" />
    <EXPORT ORDINAL="11007" NAME="?OnRenderFileData@COleControl@@UAEHPAUtagFORMATETC@@PAVCFile@@@Z" PURGE="-1" COMMENT="" />
    <EXPORT ORDINAL="11006" NAME="?OnRenderFileData@CItemDataSource@COleServerItem@@MAEHPAUtagFORMATETC@@PAVCFile@@@Z" PURGE="-1" COMMENT="" />
    <EXPORT ORDINAL="11005" NAME="?OnRenderFileData@CControlDataSource@COleControl@@MAEHPAUtagFORMATETC@@PAVCFile@@@Z" PURGE="-1" COMMENT="" />
    <EXPORT ORDINAL="11004" NAME="?OnRenderData@COleServerItem@@UAEHPAUtagFORMATETC@@PAUtagSTGMEDIUM@@@Z" PURGE="-1" COMMENT="" />
    <EXPORT ORDINAL="11003" NAME="?OnRenderData@COleDataSource@@UAEHPAUtagFORMATETC@@PAUtagSTGMEDIUM@@@Z" PURGE="-1" COMMENT="" />
    <EXPORT ORDINAL="11002" NAME="?OnRenderData@COleControl@@UAEHPAUtagFORMATETC@@PAUtagSTGMEDIUM@@@Z" PURGE="-1" COMMENT="" />
    <EXPORT ORDINAL="11001" NAME="?OnRenderData@CItemDataSource@COleServerItem@@MAEHPAUtagFORMATETC@@PAUtagSTGMEDIUM@@@Z" PURGE="-1" COMMENT="" />
    <EXPORT ORDINAL="11000" NAME="?OnRenderData@CControlDataSource@COleControl@@MAEHPAUtagFORMATETC@@PAUtagSTGMEDIUM@@@Z" PURGE="-1" COMMENT="" />
    <EXPORT ORDINAL="10999" NAME="?OnRenameToolbar@CMFCToolBarsListPropertyPage@@IAEXXZ" PURGE="-1" COMMENT="" />
    <EXPORT ORDINAL="10998" NAME="?OnRename@XAdviseSink@COleClientItem@@UAGXPAUIMoniker@@@Z" PURGE="-1" COMMENT="" />
    <EXPORT ORDINAL="10997" NAME="?OnRemoveTreePage@CMFCPropertySheet@@UAEHPAVCPropertyPage@@@Z" PURGE="-1" COMMENT="" />
    <EXPORT ORDINAL="10996" NAME="?OnRemoveRow@CDockSite@@UAEXPAU__POSITION@@H@Z" PURGE="-1" COMMENT="" />
    <EXPORT ORDINAL="10995" NAME="?OnRemoveMenus@COleDocObjectItem@@UAEXPAVCMenu@@@Z" PURGE="-1" COMMENT="" />
    <EXPORT ORDINAL="10994" NAME="?OnRemoveMenus@COleClientItem@@UAEXPAVCMenu@@@Z" PURGE="-1" COMMENT="" />
    <EXPORT ORDINAL="10993" NAME="?OnRemove@CMFCToolBarsKeyboardPropertyPage@@IAEXXZ" PURGE="-1" COMMENT="" />
    <EXPORT ORDINAL="10992" NAME="?OnRemove@CMFCRibbonKeyboardCustomizeDialog@@IAEXXZ" PURGE="-1" COMMENT="" />
    <EXPORT ORDINAL="10991" NAME="?OnRemove@CMFCRibbonCustomizePropertyPage@@IAEXXZ" PURGE="-1" COMMENT="" />
    <EXPORT ORDINAL="10990" NAME="?OnReflectorDestroyed@COleControl@@MAEXXZ" PURGE="-1" COMMENT="" />
    <EXPORT ORDINAL="10989" NAME="?OnReceive@CAsyncSocket@@MAEXH@Z" PURGE="-1" COMMENT="" />
    <EXPORT ORDINAL="10988" NAME="?OnRecalcParent@CReBar@@IAEXXZ" PURGE="-1" COMMENT="" />
    <EXPORT ORDINAL="10987" NAME="?OnRecalcParent@COleIPFrameWnd@@IAEJIJ@Z" PURGE="-1" COMMENT="" />
    <EXPORT ORDINAL="10986" NAME="?OnRecalcParent@CMFCReBar@@IAEXXZ" PURGE="-1" COMMENT="" />
    <EXPORT ORDINAL="10985" NAME="?OnRecalcLayout@COleFrameHook@@UAEXXZ" PURGE="-1" COMMENT="" />
    <EXPORT ORDINAL="10984" NAME="?OnReactivateAndUndo@COleServerDoc@@MAEHXZ" PURGE="-1" COMMENT="" />
    <EXPORT ORDINAL="11055" NAME="?OnRTLChanged@CPane@@MAEXH@Z" PURGE="-1" COMMENT="" />
    <EXPORT ORDINAL="11054" NAME="?OnRTLChanged@CMFCRibbonStatusBarPane@@MAEXH@Z" PURGE="-1" COMMENT="" />
    <EXPORT ORDINAL="11053" NAME="?OnRTLChanged@CMFCRibbonStatusBar@@MAEXH@Z" PURGE="-1" COMMENT="" />
    <EXPORT ORDINAL="11052" NAME="?OnRTLChanged@CMFCRibbonPanel@@MAEXH@Z" PURGE="-1" COMMENT="" />
    <EXPORT ORDINAL="11051" NAME="?OnRTLChanged@CMFCRibbonGallery@@UAEXH@Z" PURGE="-1" COMMENT="" />
    <EXPORT ORDINAL="11050" NAME="?OnRTLChanged@CMFCRibbonEdit@@UAEXH@Z" PURGE="-1" COMMENT="" />
    <EXPORT ORDINAL="11049" NAME="?OnRTLChanged@CMFCRibbonCategory@@UAEXH@Z" PURGE="-1" COMMENT="" />
    <EXPORT ORDINAL="11048" NAME="?OnRTLChanged@CMFCRibbonButtonsGroup@@MAEXH@Z" PURGE="-1" COMMENT="" />
    <EXPORT ORDINAL="11047" NAME="?OnRTLChanged@CMFCRibbonBar@@UAEXH@Z" PURGE="-1" COMMENT="" />
    <EXPORT ORDINAL="11042" NAME="?OnRGBChanged@CMFCCustomColorsPropertyPage@@IAEXXZ" PURGE="-1" COMMENT="" />
    <EXPORT ORDINAL="10983" NAME="?OnRButtonUp@COleControl@@IAEXIVCPoint@@@Z" PURGE="-1" COMMENT="" />
    <EXPORT ORDINAL="10982" NAME="?OnRButtonUp@CMFCEditBrowseCtrl@@IAEXIVCPoint@@@Z" PURGE="-1" COMMENT="" />
    <EXPORT ORDINAL="10981" NAME="?OnRButtonUp@CMFCCaptionBar@@IAEXIVCPoint@@@Z" PURGE="-1" COMMENT="" />
    <EXPORT ORDINAL="10980" NAME="?OnRButtonDown@COleControl@@IAEXIVCPoint@@@Z" PURGE="-1" COMMENT="" />
    <EXPORT ORDINAL="10979" NAME="?OnRButtonDown@CMFCToolBar@@IAEXIVCPoint@@@Z" PURGE="-1" COMMENT="" />
    <EXPORT ORDINAL="10978" NAME="?OnRButtonDown@CMFCShellTreeCtrl@@IAEXIVCPoint@@@Z" PURGE="-1" COMMENT="" />
    <EXPORT ORDINAL="10977" NAME="?OnRButtonDown@CMFCPropertyGridCtrl@@IAEXIVCPoint@@@Z" PURGE="-1" COMMENT="" />
    <EXPORT ORDINAL="10976" NAME="?OnRButtonDown@CMFCEditBrowseCtrl@@IAEXIVCPoint@@@Z" PURGE="-1" COMMENT="" />
    <EXPORT ORDINAL="10975" NAME="?OnRButtonDown@CMFCBaseTabCtrl@@IAEXIVCPoint@@@Z" PURGE="-1" COMMENT="" />
    <EXPORT ORDINAL="10974" NAME="?OnRButtonDown@CDockablePane@@IAEXIVCPoint@@@Z" PURGE="-1" COMMENT="" />
    <EXPORT ORDINAL="10973" NAME="?OnRButtonDblClk@COleControl@@IAEXIVCPoint@@@Z" PURGE="-1" COMMENT="" />
    <EXPORT ORDINAL="10972" NAME="?OnQuit@CHtmlView@@UAEXXZ" PURGE="-1" COMMENT="" />
    <EXPORT ORDINAL="10971" NAME="?OnQueryUpdateItems@COleServerItem@@UAEHXZ" PURGE="-1" COMMENT="" />
    <EXPORT ORDINAL="10970" NAME="?OnQueryNewPalette@COleFrameHook@@UAEHXZ" PURGE="-1" COMMENT="" />
    <EXPORT ORDINAL="10969" NAME="?OnQueryNewPalette@CMFCColorPickerCtrl@@IAEHXZ" PURGE="-1" COMMENT="" />
    <EXPORT ORDINAL="10968" NAME="?OnQueryNewPalette@CMFCColorBar@@IAEHXZ" PURGE="-1" COMMENT="" />
    <EXPORT ORDINAL="10967" NAME="?OnQueryNewPalette@CFrameWnd@@IAEHXZ" PURGE="-1" COMMENT="" />
    <EXPORT ORDINAL="10966" NAME="?OnQueryHitRect@COleControl@@UAEHKPBUtagRECT@@0JPAK@Z" PURGE="-1" COMMENT="" />
    <EXPORT ORDINAL="10965" NAME="?OnQueryHitPoint@COleControl@@UAEHKPBUtagRECT@@UtagPOINT@@JPAK@Z" PURGE="-1" COMMENT="" />
    <EXPORT ORDINAL="10964" NAME="?OnQueryEndSession@CFrameWnd@@IAEHXZ" PURGE="-1" COMMENT="" />
    <EXPORT ORDINAL="10963" NAME="?OnQueryEndSession@CDialog@@IAEHXZ" PURGE="-1" COMMENT="" />
    <EXPORT ORDINAL="10962" NAME="?OnQueryCenterWnd@CMiniFrameWnd@@QAEJIJ@Z" PURGE="-1" COMMENT="" />
    <EXPORT ORDINAL="10961" NAME="?OnQueryCancel@CPropertyPage@@UAEHXZ" PURGE="-1" COMMENT="" />
    <EXPORT ORDINAL="10960" NAME="?OnPropertyChanged@CMFCPropertyGridCtrl@@UBEXPAVCMFCPropertyGridProperty@@@Z" PURGE="-1" COMMENT="" />
    <EXPORT ORDINAL="10959" NAME="?OnPropertyChange@CHtmlView@@UAEXPBD@Z" PURGE="-1" COMMENT="" />
    <EXPORT ORDINAL="10958" NAME="?OnProperties@COleControl@@UAEHPAUtagMSG@@PAUHWND__@@PBUtagRECT@@@Z" PURGE="-1" COMMENT="" />
    <EXPORT ORDINAL="10957" NAME="?OnPromptReset@CMFCToolBar@@IAEJIJ@Z" PURGE="-1" COMMENT="" />
    <EXPORT ORDINAL="10956" NAME="?OnProgressChange@CHtmlView@@UAEXJJ@Z" PURGE="-1" COMMENT="" />
    <EXPORT ORDINAL="10955" NAME="?OnProgress@CAsyncMonikerFile@@MAEXKKKPBD@Z" PURGE="-1" COMMENT="" />
    <EXPORT ORDINAL="10954" NAME="?OnProcessDblClk@CPane@@UAEXXZ" PURGE="-1" COMMENT="" />
    <EXPORT ORDINAL="10950" NAME="?OnPrinterChanged@CRichEditView@@MAEXABVCDC@@@Z" PURGE="-1" COMMENT="" />
    <EXPORT ORDINAL="10953" NAME="?OnPrintSetup@CPrintDialog@@IAEXXZ" PURGE="-1" COMMENT="" />
    <EXPORT ORDINAL="10952" NAME="?OnPrintItem@CMFCKeyMapDialog@@MBEHAAVCDC@@HHHH@Z" PURGE="-1" COMMENT="" />
    <EXPORT ORDINAL="10951" NAME="?OnPrintHeader@CMFCKeyMapDialog@@MBEHAAVCDC@@HH@Z" PURGE="-1" COMMENT="" />
    <EXPORT ORDINAL="10949" NAME="?OnPrintClient@CView@@IAEJIJ@Z" PURGE="-1" COMMENT="" />
    <EXPORT ORDINAL="14473" NAME="?OnPrintClient@CTabView@@IAEJIJ@Z" PURGE="-1" COMMENT="" />
    <EXPORT ORDINAL="10948" NAME="?OnPrintClient@CSplitterWnd@@IAEJIJ@Z" PURGE="-1" COMMENT="" />
    <EXPORT ORDINAL="10947" NAME="?OnPrintClient@CScrollView@@QAEJIJ@Z" PURGE="-1" COMMENT="" />
    <EXPORT ORDINAL="10946" NAME="?OnPrintClient@CPaneDialog@@QAEJIJ@Z" PURGE="-1" COMMENT="" />
    <EXPORT ORDINAL="10945" NAME="?OnPrintClient@CMFCPropertyGridCtrl@@IAEJIJ@Z" PURGE="-1" COMMENT="" />
    <EXPORT ORDINAL="10944" NAME="?OnPrintClient@CMFCDesktopAlertWnd@@IAEJIJ@Z" PURGE="-1" COMMENT="" />
    <EXPORT ORDINAL="10943" NAME="?OnPrintClient@CMFCDesktopAlertDialog@@IAEJIJ@Z" PURGE="-1" COMMENT="" />
    <EXPORT ORDINAL="10942" NAME="?OnPrintClient@CFormView@@IAEJIJ@Z" PURGE="-1" COMMENT="" />
    <EXPORT ORDINAL="10941" NAME="?OnPrintClient@CCtrlView@@IAEJIJ@Z" PURGE="-1" COMMENT="" />
    <EXPORT ORDINAL="10940" NAME="?OnPrintClient@CBasePane@@IAEJIJ@Z" PURGE="-1" COMMENT="" />
    <EXPORT ORDINAL="10939" NAME="?OnPrint@CView@@MAEXPAVCDC@@PAUCPrintInfo@@@Z" PURGE="-1" COMMENT="" />
    <EXPORT ORDINAL="10938" NAME="?OnPrint@CRichEditView@@MAEXPAVCDC@@PAUCPrintInfo@@@Z" PURGE="-1" COMMENT="" />
    <EXPORT ORDINAL="10937" NAME="?OnPrint@COleDocObjectItem@@SAXPAVCView@@PAUCPrintInfo@@H@Z" PURGE="-1" COMMENT="" />
    <EXPORT ORDINAL="10936" NAME="?OnPrint@CMFCKeyMapDialog@@IAEXXZ" PURGE="-1" COMMENT="" />
    <EXPORT ORDINAL="10935" NAME="?OnPrint@CEditView@@MAEXPAVCDC@@PAUCPrintInfo@@@Z" PURGE="-1" COMMENT="" />
    <EXPORT ORDINAL="10933" NAME="?OnPreviewPrint@CPreviewView@@IAEXXZ" PURGE="-1" COMMENT="" />
    <EXPORT ORDINAL="10932" NAME="?OnPreviewHandlerTranslateAccelerator@CDocument@@UAEJPAUtagMSG@@@Z" PURGE="-1" COMMENT="" />
    <EXPORT ORDINAL="10931" NAME="?OnPreviewHandlerQueryFocus@CDocument@@UAEJPAPAUHWND__@@@Z" PURGE="-1" COMMENT="" />
    <EXPORT ORDINAL="10930" NAME="?OnPreviewClose@CPreviewView@@IAEXXZ" PURGE="-1" COMMENT="" />
    <EXPORT ORDINAL="10934" NAME="?OnPrevPage@CPreviewView@@IAEXXZ" PURGE="-1" COMMENT="" />
    <EXPORT ORDINAL="10928" NAME="?OnPressTaskbarThmbnailCloseButton@CMDIChildWndEx@@UAEXXZ" PURGE="-1" COMMENT="" />
    <EXPORT ORDINAL="10927" NAME="?OnPressOtherButton@CMFCTasksPane@@UAEXPAVCMFCCaptionMenuButton@@PAVCWnd@@@Z" PURGE="-1" COMMENT="" />
    <EXPORT ORDINAL="10926" NAME="?OnPressHomeButton@CMFCTasksPane@@UAEXXZ" PURGE="-1" COMMENT="" />
    <EXPORT ORDINAL="10925" NAME="?OnPressForwardButton@CMFCTasksPane@@UAEXXZ" PURGE="-1" COMMENT="" />
    <EXPORT ORDINAL="10924" NAME="?OnPressCloseButton@CTabbedPane@@MAEXXZ" PURGE="-1" COMMENT="" />
    <EXPORT ORDINAL="10923" NAME="?OnPressCloseButton@CPane@@UAEXXZ" PURGE="-1" COMMENT="" />
    <EXPORT ORDINAL="10922" NAME="?OnPressCloseButton@CDockablePane@@MAEXXZ" PURGE="-1" COMMENT="" />
    <EXPORT ORDINAL="10921" NAME="?OnPressButtons@CPaneFrameWnd@@MAEXI@Z" PURGE="-1" COMMENT="" />
    <EXPORT ORDINAL="10920" NAME="?OnPressButtons@CMFCTasksPaneFrameWnd@@MAEXI@Z" PURGE="-1" COMMENT="" />
    <EXPORT ORDINAL="10919" NAME="?OnPressButtons@CMFCTasksPane@@MAEXI@Z" PURGE="-1" COMMENT="" />
    <EXPORT ORDINAL="10918" NAME="?OnPressBackButton@CMFCTasksPane@@UAEXXZ" PURGE="-1" COMMENT="" />
    <EXPORT ORDINAL="10917" NAME="?OnPreserveZeroBorderHelper@CToolBar@@IAEJIJ@Z" PURGE="-1" COMMENT="" />
    <EXPORT ORDINAL="10916" NAME="?OnPreserveSizingPolicyHelper@CToolBar@@IAEJIJ@Z" PURGE="-1" COMMENT="" />
    <EXPORT ORDINAL="10915" NAME="?OnPreparePrinting@CView@@MAEHPAUCPrintInfo@@@Z" PURGE="-1" COMMENT="" />
    <EXPORT ORDINAL="10914" NAME="?OnPreparePrinting@COleDocObjectItem@@SAHPAVCView@@PAUCPrintInfo@@H@Z" PURGE="-1" COMMENT="" />
    <EXPORT ORDINAL="10913" NAME="?OnPreparePrinting@CHtmlEditView@@UAEHPAUCPrintInfo@@@Z" PURGE="-1" COMMENT="" />
    <EXPORT ORDINAL="10912" NAME="?OnPreparePrinting@CEditView@@MAEHPAUCPrintInfo@@@Z" PURGE="-1" COMMENT="" />
    <EXPORT ORDINAL="10911" NAME="?OnPrepareDC@CView@@UAEXPAVCDC@@PAUCPrintInfo@@@Z" PURGE="-1" COMMENT="" />
    <EXPORT ORDINAL="10910" NAME="?OnPrepareDC@CScrollView@@UAEXPAVCDC@@PAUCPrintInfo@@@Z" PURGE="-1" COMMENT="" />
    <EXPORT ORDINAL="10909" NAME="?OnPrepareDC@CRichEditView@@UAEXPAVCDC@@PAUCPrintInfo@@@Z" PURGE="-1" COMMENT="" />
    <EXPORT ORDINAL="10908" NAME="?OnPrepareDC@CPreviewView@@UAEXPAVCDC@@PAUCPrintInfo@@@Z" PURGE="-1" COMMENT="" />
    <EXPORT ORDINAL="10907" NAME="?OnPrepareDC@CEditView@@UAEXPAVCDC@@PAUCPrintInfo@@@Z" PURGE="-1" COMMENT="" />
    <EXPORT ORDINAL="10929" NAME="?OnPreTranslateMessage@COleFrameHook@@UAEHPAUtagMSG@@@Z" PURGE="-1" COMMENT="" />
    <EXPORT ORDINAL="10906" NAME="?OnPowerBroadcast@CMDIFrameWndEx@@IAEIII@Z" PURGE="-1" COMMENT="" />
    <EXPORT ORDINAL="10905" NAME="?OnPowerBroadcast@CFrameWndEx@@QAEIII@Z" PURGE="-1" COMMENT="" />
    <EXPORT ORDINAL="10904" NAME="?OnPostRecalcLayout@CMFCRibbonBar@@IAEJIJ@Z" PURGE="-1" COMMENT="" />
    <EXPORT ORDINAL="10903" NAME="?OnPostPreviewFrame@CMDIFrameWndEx@@IAEJIJ@Z" PURGE="-1" COMMENT="" />
    <EXPORT ORDINAL="10902" NAME="?OnPostPreviewFrame@CFrameWndEx@@QAEJIJ@Z" PURGE="-1" COMMENT="" />
    <EXPORT ORDINAL="10901" NAME="?OnPosRectChange@XOleIPSite@COleControlSite@@UAGJPBUtagRECT@@@Z" PURGE="-1" COMMENT="" />
    <EXPORT ORDINAL="10900" NAME="?OnPosRectChange@XOleIPSite@COleClientItem@@UAGJPBUtagRECT@@@Z" PURGE="-1" COMMENT="" />
    <EXPORT ORDINAL="10899" NAME="?OnPosChange@CSmartDockingManager@@QAEXXZ" PURGE="-1" COMMENT="" />
    <EXPORT ORDINAL="10898" NAME="?OnPopMessageString@CFrameWnd@@IAEJIJ@Z" PURGE="-1" COMMENT="" />
    <EXPORT ORDINAL="10897" NAME="?OnPop@CMFCToolTipCtrl@@IAEXPAUtagNMHDR@@PAJ@Z" PURGE="-1" COMMENT="" />
    <EXPORT ORDINAL="10896" NAME="?OnPickColor@CMFCImageEditorDialog@@IAEHK@Z" PURGE="-1" COMMENT="" />
    <EXPORT ORDINAL="10895" NAME="?OnPasteNativeObject@CRichEditView@@MAEHPAUIStorage@@@Z" PURGE="-1" COMMENT="" />
    <EXPORT ORDINAL="10894" NAME="?OnPaste@CMFCMaskedEdit@@IAEJIJ@Z" PURGE="-1" COMMENT="" />
    <EXPORT ORDINAL="10893" NAME="?OnParentNotify@CWnd@@IAEXIJ@Z" PURGE="-1" COMMENT="" />
    <EXPORT ORDINAL="10892" NAME="?OnParaRight@CRichEditView@@IAEXXZ" PURGE="-1" COMMENT="" />
    <EXPORT ORDINAL="10891" NAME="?OnParaLeft@CRichEditView@@IAEXXZ" PURGE="-1" COMMENT="" />
    <EXPORT ORDINAL="10890" NAME="?OnParaCenter@CRichEditView@@IAEXXZ" PURGE="-1" COMMENT="" />
    <EXPORT ORDINAL="10889" NAME="?OnParaAlign@CRichEditView@@QAEXG@Z" PURGE="-1" COMMENT="" />
    <EXPORT ORDINAL="10888" NAME="?OnPaneRecalcLayout@CPaneFrameWnd@@UAEXXZ" PURGE="-1" COMMENT="" />
    <EXPORT ORDINAL="10887" NAME="?OnPaneRecalcLayout@CMultiPaneFrameWnd@@UAEXXZ" PURGE="-1" COMMENT="" />
    <EXPORT ORDINAL="10886" NAME="?OnPaneDividerMove@CPaneContainerManager@@UAEHPAVCPaneDivider@@IHAAPAX@Z" PURGE="-1" COMMENT="" />
    <EXPORT ORDINAL="10885" NAME="?OnPaneContextMenu@CMFCRibbonStatusBar@@MAEXPAVCWnd@@VCPoint@@@Z" PURGE="-1" COMMENT="" />
    <EXPORT ORDINAL="10884" NAME="?OnPaneContextMenu@CMFCRibbonBar@@MAEXPAVCWnd@@VCPoint@@@Z" PURGE="-1" COMMENT="" />
    <EXPORT ORDINAL="10883" NAME="?OnPaneContextMenu@CDockingManager@@QAEXVCPoint@@@Z" PURGE="-1" COMMENT="" />
    <EXPORT ORDINAL="10882" NAME="?OnPaneContextMenu@CBasePane@@UAEXPAVCWnd@@VCPoint@@@Z" PURGE="-1" COMMENT="" />
    <EXPORT ORDINAL="10881" NAME="?OnPaneCheck@COleIPFrameWndEx@@IAEHI@Z" PURGE="-1" COMMENT="" />
    <EXPORT ORDINAL="10880" NAME="?OnPaneCheck@COleDocIPFrameWndEx@@IAEHI@Z" PURGE="-1" COMMENT="" />
    <EXPORT ORDINAL="10879" NAME="?OnPaneCheck@CMDIFrameWndEx@@IAEHI@Z" PURGE="-1" COMMENT="" />
    <EXPORT ORDINAL="10878" NAME="?OnPaneCheck@CFrameWndEx@@QAEHI@Z" PURGE="-1" COMMENT="" />
    <EXPORT ORDINAL="10877" NAME="?OnPaletteChanged@COleFrameHook@@UAEXPAVCWnd@@@Z" PURGE="-1" COMMENT="" />
    <EXPORT ORDINAL="10876" NAME="?OnPaletteChanged@CMFCColorPickerCtrl@@IAEXPAVCWnd@@@Z" PURGE="-1" COMMENT="" />
    <EXPORT ORDINAL="10875" NAME="?OnPaletteChanged@CMFCColorBar@@IAEXPAVCWnd@@@Z" PURGE="-1" COMMENT="" />
    <EXPORT ORDINAL="10874" NAME="?OnPaletteChanged@CFrameWnd@@IAEXPAVCWnd@@@Z" PURGE="-1" COMMENT="" />
    <EXPORT ORDINAL="10873" NAME="?OnPaint@CWnd@@IAEXXZ" PURGE="-1" COMMENT="" />
    <EXPORT ORDINAL="10871" NAME="?OnPaint@CView@@IAEXXZ" PURGE="-1" COMMENT="" />
    <EXPORT ORDINAL="10872" NAME="?OnPaint@CVSListBoxBase@@IAEXXZ" PURGE="-1" COMMENT="" />
    <EXPORT ORDINAL="10870" NAME="?OnPaint@CToolBar@@IAEXXZ" PURGE="-1" COMMENT="" />
    <EXPORT ORDINAL="10869" NAME="?OnPaint@CStatusBar@@IAEXXZ" PURGE="-1" COMMENT="" />
    <EXPORT ORDINAL="10868" NAME="?OnPaint@CSplitterWnd@@IAEXXZ" PURGE="-1" COMMENT="" />
    <EXPORT ORDINAL="10867" NAME="?OnPaint@CSmartDockingStandaloneGuideWnd@@IAEXXZ" PURGE="-1" COMMENT="" />
    <EXPORT ORDINAL="10866" NAME="?OnPaint@CSmartDockingHighlighterWnd@@IAEXXZ" PURGE="-1" COMMENT="" />
    <EXPORT ORDINAL="10865" NAME="?OnPaint@CSmartDockingGroupGuidesWnd@@QAEXXZ" PURGE="-1" COMMENT="" />
    <EXPORT ORDINAL="10864" NAME="?OnPaint@CReBar@@IAEXXZ" PURGE="-1" COMMENT="" />
    <EXPORT ORDINAL="10863" NAME="?OnPaint@CPaneDivider@@IAEXXZ" PURGE="-1" COMMENT="" />
    <EXPORT ORDINAL="10862" NAME="?OnPaint@COleResizeBar@@IAEXXZ" PURGE="-1" COMMENT="" />
    <EXPORT ORDINAL="10861" NAME="?OnPaint@COleControlContainer@@UAEHPAVCDC@@@Z" PURGE="-1" COMMENT="" />
    <EXPORT ORDINAL="10860" NAME="?OnPaint@COleControl@@IAEXPAVCDC@@@Z" PURGE="-1" COMMENT="" />
    <EXPORT ORDINAL="10859" NAME="?OnPaint@CMFCToolTipCtrl@@IAEXXZ" PURGE="-1" COMMENT="" />
    <EXPORT ORDINAL="10858" NAME="?OnPaint@CMFCToolBarComboBoxEdit@@IAEXXZ" PURGE="-1" COMMENT="" />
    <EXPORT ORDINAL="10857" NAME="?OnPaint@CMFCToolBarButtonCustomizeDialog@@IAEXXZ" PURGE="-1" COMMENT="" />
    <EXPORT ORDINAL="10856" NAME="?OnPaint@CMFCTasksPane@@IAEXXZ" PURGE="-1" COMMENT="" />
    <EXPORT ORDINAL="10855" NAME="?OnPaint@CMFCTabCtrl@@IAEXXZ" PURGE="-1" COMMENT="" />
    <EXPORT ORDINAL="10854" NAME="?OnPaint@CMFCSpinButtonCtrl@@IAEXXZ" PURGE="-1" COMMENT="" />
    <EXPORT ORDINAL="10853" NAME="?OnPaint@CMFCRibbonStatusBar@@IAEXXZ" PURGE="-1" COMMENT="" />
    <EXPORT ORDINAL="10852" NAME="?OnPaint@CMFCRibbonRichEditCtrl@@IAEXXZ" PURGE="-1" COMMENT="" />
    <EXPORT ORDINAL="10851" NAME="?OnPaint@CMFCRibbonKeyTip@@IAEXXZ" PURGE="-1" COMMENT="" />
    <EXPORT ORDINAL="10850" NAME="?OnPaint@CMFCRibbonBar@@IAEXXZ" PURGE="-1" COMMENT="" />
    <EXPORT ORDINAL="10849" NAME="?OnPaint@CMFCReBar@@IAEXXZ" PURGE="-1" COMMENT="" />
    <EXPORT ORDINAL="10848" NAME="?OnPaint@CMFCPropertyGridToolTipCtrl@@IAEXXZ" PURGE="-1" COMMENT="" />
    <EXPORT ORDINAL="10847" NAME="?OnPaint@CMFCPropertyGridCtrl@@IAEXXZ" PURGE="-1" COMMENT="" />
    <EXPORT ORDINAL="10846" NAME="?OnPaint@CMFCPreviewCtrlImpl@@QAEXXZ" PURGE="-1" COMMENT="" />
    <EXPORT ORDINAL="10845" NAME="?OnPaint@CMFCPopupMenu@@IAEXXZ" PURGE="-1" COMMENT="" />
    <EXPORT ORDINAL="10844" NAME="?OnPaint@CMFCOutlookBarTabCtrl@@IAEXXZ" PURGE="-1" COMMENT="" />
    <EXPORT ORDINAL="10843" NAME="?OnPaint@CMFCOutlookBar@@IAEXXZ" PURGE="-1" COMMENT="" />
    <EXPORT ORDINAL="10842" NAME="?OnPaint@CMFCImageEditorDialog@@IAEXXZ" PURGE="-1" COMMENT="" />
    <EXPORT ORDINAL="10841" NAME="?OnPaint@CMFCHeaderCtrl@@IAEXXZ" PURGE="-1" COMMENT="" />
    <EXPORT ORDINAL="10840" NAME="?OnPaint@CMFCDropDownFrame@@IAEXXZ" PURGE="-1" COMMENT="" />
    <EXPORT ORDINAL="10839" NAME="?OnPaint@CMFCDesktopAlertWnd@@IAEXXZ" PURGE="-1" COMMENT="" />
    <EXPORT ORDINAL="10838" NAME="?OnPaint@CMFCDesktopAlertDialog@@IAEXXZ" PURGE="-1" COMMENT="" />
    <EXPORT ORDINAL="10837" NAME="?OnPaint@CMFCCaptionBar@@IAEXXZ" PURGE="-1" COMMENT="" />
    <EXPORT ORDINAL="10836" NAME="?OnPaint@CHtmlView@@IAEXXZ" PURGE="-1" COMMENT="" />
    <EXPORT ORDINAL="10835" NAME="?OnPaint@CHtmlEditView@@QAEXXZ" PURGE="-1" COMMENT="" />
    <EXPORT ORDINAL="10832" NAME="?OnPaint@CDockablePane@@IAEXXZ" PURGE="-1" COMMENT="" />
    <EXPORT ORDINAL="10834" NAME="?OnPaint@CDockSite@@IAEXXZ" PURGE="-1" COMMENT="" />
    <EXPORT ORDINAL="10833" NAME="?OnPaint@CDockBar@@IAEXXZ" PURGE="-1" COMMENT="" />
    <EXPORT ORDINAL="10831" NAME="?OnPaint@CDialog@@IAEXXZ" PURGE="-1" COMMENT="" />
    <EXPORT ORDINAL="10830" NAME="?OnPaint@CCtrlView@@IAEXXZ" PURGE="-1" COMMENT="" />
    <EXPORT ORDINAL="10829" NAME="?OnPaint@CControlBar@@QAEXXZ" PURGE="-1" COMMENT="" />
    <EXPORT ORDINAL="10828" NAME="?OnPaint@CCommonDialog@@IAEXXZ" PURGE="-1" COMMENT="" />
    <EXPORT ORDINAL="10827" NAME="?OnPaint@CBasePane@@IAEXXZ" PURGE="-1" COMMENT="" />
    <EXPORT ORDINAL="10826" NAME="?OnPaint@CAutoHideDockSite@@IAEXXZ" PURGE="-1" COMMENT="" />
    <EXPORT ORDINAL="10825" NAME="?OnOverwrite@XFileDialogEvents@CFileDialog@@UAGJPAUIFileDialog@@PAUIShellItem@@PAW4FDE_OVERWRITE_RESPONSE@@@Z" PURGE="-1" COMMENT="" />
    <EXPORT ORDINAL="10824" NAME="?OnOutOfBandData@CAsyncSocket@@MAEXH@Z" PURGE="-1" COMMENT="" />
    <EXPORT ORDINAL="10823" NAME="?OnOther@CMFCTasksPane@@IAEXXZ" PURGE="-1" COMMENT="" />
    <EXPORT ORDINAL="10822" NAME="?OnOpenRecentFile@CWinApp@@IAEHI@Z" PURGE="-1" COMMENT="" />
    <EXPORT ORDINAL="10821" NAME="?OnOpenEmbedding@COleServerDoc@@MAEXPAUIStorage@@@Z" PURGE="-1" COMMENT="" />
    <EXPORT ORDINAL="10820" NAME="?OnOpenDocument@COleLinkingDoc@@UAEHPBD@Z" PURGE="-1" COMMENT="" />
    <EXPORT ORDINAL="10819" NAME="?OnOpenDocument@COleDocument@@UAEHPBD@Z" PURGE="-1" COMMENT="" />
    <EXPORT ORDINAL="10818" NAME="?OnOpenDocument@CHtmlEditDoc@@UAEHPBD@Z" PURGE="-1" COMMENT="" />
    <EXPORT ORDINAL="10817" NAME="?OnOpenDocument@CDocument@@UAEHPBD@Z" PURGE="-1" COMMENT="" />
    <EXPORT ORDINAL="10816" NAME="?OnOpen@COleServerItem@@MAEXXZ" PURGE="-1" COMMENT="" />
    <EXPORT ORDINAL="10815" NAME="?OnOpen@COleControl@@MAEJHPAUtagMSG@@@Z" PURGE="-1" COMMENT="" />
    <EXPORT ORDINAL="10806" NAME="?OnOcmCtlColorStatic@COleControl@@IAEJIJ@Z" PURGE="-1" COMMENT="" />
    <EXPORT ORDINAL="10805" NAME="?OnOcmCtlColorScrollBar@COleControl@@IAEJIJ@Z" PURGE="-1" COMMENT="" />
    <EXPORT ORDINAL="10804" NAME="?OnOcmCtlColorMsgBox@COleControl@@IAEJIJ@Z" PURGE="-1" COMMENT="" />
    <EXPORT ORDINAL="10803" NAME="?OnOcmCtlColorListBox@COleControl@@IAEJIJ@Z" PURGE="-1" COMMENT="" />
    <EXPORT ORDINAL="10802" NAME="?OnOcmCtlColorEdit@COleControl@@IAEJIJ@Z" PURGE="-1" COMMENT="" />
    <EXPORT ORDINAL="10801" NAME="?OnOcmCtlColorDlg@COleControl@@IAEJIJ@Z" PURGE="-1" COMMENT="" />
    <EXPORT ORDINAL="10800" NAME="?OnOcmCtlColorBtn@COleControl@@IAEJIJ@Z" PURGE="-1" COMMENT="" />
    <EXPORT ORDINAL="10799" NAME="?OnObjectsChanged@COlePropertyPage@@UAEXXZ" PURGE="-1" COMMENT="" />
    <EXPORT ORDINAL="10814" NAME="?OnOK@CPropertyPage@@UAEXXZ" PURGE="-1" COMMENT="" />
    <EXPORT ORDINAL="10813" NAME="?OnOK@COutlookOptionsDlg@@MAEXXZ" PURGE="-1" COMMENT="" />
    <EXPORT ORDINAL="10812" NAME="?OnOK@CMFCToolBarsToolsPropertyPage@@UAEXXZ" PURGE="-1" COMMENT="" />
    <EXPORT ORDINAL="10811" NAME="?OnOK@CMFCToolBarButtonCustomizeDialog@@MAEXXZ" PURGE="-1" COMMENT="" />
    <EXPORT ORDINAL="10810" NAME="?OnOK@CMFCTasksPane@@UAEXXZ" PURGE="-1" COMMENT="" />
    <EXPORT ORDINAL="10809" NAME="?OnOK@CMFCRibbonCustomizePropertyPage@@UAEXXZ" PURGE="-1" COMMENT="" />
    <EXPORT ORDINAL="10808" NAME="?OnOK@CDialog@@MAEXXZ" PURGE="-1" COMMENT="" />
    <EXPORT ORDINAL="10807" NAME="?OnOK@CCommonDialog@@MAEXXZ" PURGE="-1" COMMENT="" />
    <EXPORT ORDINAL="10798" NAME="?OnNumPageChange@CPreviewView@@IAEXXZ" PURGE="-1" COMMENT="" />
    <EXPORT ORDINAL="10795" NAME="?OnNotify@CWnd@@MAEHIJPAJ@Z" PURGE="-1" COMMENT="" />
    <EXPORT ORDINAL="10794" NAME="?OnNotify@CSplitterWnd@@MAEHIJPAJ@Z" PURGE="-1" COMMENT="" />
    <EXPORT ORDINAL="10793" NAME="?OnNotify@CPropertyPage@@MAEHIJPAJ@Z" PURGE="-1" COMMENT="" />
    <EXPORT ORDINAL="10792" NAME="?OnNotify@CMFCTabCtrl@@MAEHIJPAJ@Z" PURGE="-1" COMMENT="" />
    <EXPORT ORDINAL="10791" NAME="?OnNotify@CMFCPropertyGridCtrl@@MAEHIJPAJ@Z" PURGE="-1" COMMENT="" />
    <EXPORT ORDINAL="10790" NAME="?OnNotify@CMFCPopupMenu@@MAEHIJPAJ@Z" PURGE="-1" COMMENT="" />
    <EXPORT ORDINAL="10789" NAME="?OnNotify@CMFCKeyMapDialog@@MAEHIJPAJ@Z" PURGE="-1" COMMENT="" />
    <EXPORT ORDINAL="10788" NAME="?OnNotify@CMFCColorPropertySheet@@MAEHIJPAJ@Z" PURGE="-1" COMMENT="" />
    <EXPORT ORDINAL="10787" NAME="?OnNotify@CFileDialog@@MAEHIJPAJ@Z" PURGE="-1" COMMENT="" />
    <EXPORT ORDINAL="10796" NAME="?OnNotRespondingDialog@COleMessageFilter@@UAEHPAUHTASK__@@@Z" PURGE="-1" COMMENT="" />
    <EXPORT ORDINAL="10786" NAME="?OnNoDblcliick@CMFCMousePropertyPage@@IAEXXZ" PURGE="-1" COMMENT="" />
    <EXPORT ORDINAL="10785" NAME="?OnNextPaneCmd@CView@@IAEHI@Z" PURGE="-1" COMMENT="" />
    <EXPORT ORDINAL="10784" NAME="?OnNextPage@CPreviewView@@IAEXXZ" PURGE="-1" COMMENT="" />
    <EXPORT ORDINAL="10783" NAME="?OnNext@CEnumUnknown@@MAEHPAX@Z" PURGE="-1" COMMENT="" />
    <EXPORT ORDINAL="10782" NAME="?OnNext@CEnumOleVerb@@MAEHPAX@Z" PURGE="-1" COMMENT="" />
    <EXPORT ORDINAL="10781" NAME="?OnNext@CEnumFormatEtc@@MAEHPAX@Z" PURGE="-1" COMMENT="" />
    <EXPORT ORDINAL="10779" NAME="?OnNext@CEnumConnections@@MAEHPAX@Z" PURGE="-1" COMMENT="" />
    <EXPORT ORDINAL="10780" NAME="?OnNext@CEnumConnPoints@@MAEHPAX@Z" PURGE="-1" COMMENT="" />
    <EXPORT ORDINAL="10778" NAME="?OnNext@CEnumArray@@MAEHPAX@Z" PURGE="-1" COMMENT="" />
    <EXPORT ORDINAL="10777" NAME="?OnNewWindow2@CHtmlView@@UAEXPAPAUIDispatch@@PAH@Z" PURGE="-1" COMMENT="" />
    <EXPORT ORDINAL="10776" NAME="?OnNewToolbar@CMFCToolBarsListPropertyPage@@IAEXXZ" PURGE="-1" COMMENT="" />
    <EXPORT ORDINAL="10775" NAME="?OnNewString@CMFCToolBarsListCheckBox@@IAEXH@Z" PURGE="-1" COMMENT="" />
    <EXPORT ORDINAL="10774" NAME="?OnNewEmbedding@COleServerDoc@@MAEXPAUIStorage@@@Z" PURGE="-1" COMMENT="" />
    <EXPORT ORDINAL="10773" NAME="?OnNewDocument@COleServerDocEx@@MAEHXZ" PURGE="-1" COMMENT="" />
    <EXPORT ORDINAL="10772" NAME="?OnNewDocument@COleLinkingDoc@@UAEHXZ" PURGE="-1" COMMENT="" />
    <EXPORT ORDINAL="10771" NAME="?OnNewDocument@COleDocument@@UAEHXZ" PURGE="-1" COMMENT="" />
    <EXPORT ORDINAL="10770" NAME="?OnNewDocument@CHtmlEditDoc@@UAEHXZ" PURGE="-1" COMMENT="" />
    <EXPORT ORDINAL="10769" NAME="?OnNewDocument@CDocument@@UAEHXZ" PURGE="-1" COMMENT="" />
    <EXPORT ORDINAL="10768" NAME="?OnNeedTipText@CPaneFrameWnd@@IAEHIPAUtagNMHDR@@PAJ@Z" PURGE="-1" COMMENT="" />
    <EXPORT ORDINAL="10767" NAME="?OnNeedTipText@CMFCToolBar@@IAEHIPAUtagNMHDR@@PAJ@Z" PURGE="-1" COMMENT="" />
    <EXPORT ORDINAL="10766" NAME="?OnNeedTipText@CMFCTasksPaneFrameWnd@@IAEHIPAUtagNMHDR@@PAJ@Z" PURGE="-1" COMMENT="" />
    <EXPORT ORDINAL="10765" NAME="?OnNeedTipText@CMFCTasksPane@@IAEHIPAUtagNMHDR@@PAJ@Z" PURGE="-1" COMMENT="" />
    <EXPORT ORDINAL="10764" NAME="?OnNeedTipText@CMFCRibbonPanelMenuBar@@IAEHIPAUtagNMHDR@@PAJ@Z" PURGE="-1" COMMENT="" />
    <EXPORT ORDINAL="10763" NAME="?OnNeedTipText@CMFCRibbonBar@@IAEHIPAUtagNMHDR@@PAJ@Z" PURGE="-1" COMMENT="" />
    <EXPORT ORDINAL="10762" NAME="?OnNeedTipText@CMFCPropertyGridCtrl@@IAEHIPAUtagNMHDR@@PAJ@Z" PURGE="-1" COMMENT="" />
    <EXPORT ORDINAL="10761" NAME="?OnNeedTipText@CMFCCaptionBar@@IAEHIPAUtagNMHDR@@PAJ@Z" PURGE="-1" COMMENT="" />
    <EXPORT ORDINAL="10760" NAME="?OnNeedTipText@CMFCBaseTabCtrl@@IAEHIPAUtagNMHDR@@PAJ@Z" PURGE="-1" COMMENT="" />
    <EXPORT ORDINAL="10759" NAME="?OnNeedTipText@CDockablePane@@IAEHIPAUtagNMHDR@@PAJ@Z" PURGE="-1" COMMENT="" />
    <EXPORT ORDINAL="10758" NAME="?OnNcRButtonUp@CMDIChildWndEx@@IAEXIVCPoint@@@Z" PURGE="-1" COMMENT="" />
    <EXPORT ORDINAL="10757" NAME="?OnNcPaint@CToolBar@@IAEXXZ" PURGE="-1" COMMENT="" />
    <EXPORT ORDINAL="10756" NAME="?OnNcPaint@CStatusBar@@IAEXXZ" PURGE="-1" COMMENT="" />
    <EXPORT ORDINAL="10755" NAME="?OnNcPaint@CReBar@@IAEXXZ" PURGE="-1" COMMENT="" />
    <EXPORT ORDINAL="10754" NAME="?OnNcPaint@CPaneFrameWnd@@IAEXXZ" PURGE="-1" COMMENT="" />
    <EXPORT ORDINAL="10753" NAME="?OnNcPaint@COleControl@@IAEXXZ" PURGE="-1" COMMENT="" />
    <EXPORT ORDINAL="10752" NAME="?OnNcPaint@CMFCVisualManagerWindows7@@UAEHPAVCWnd@@ABVCObList@@VCRect@@@Z" PURGE="-1" COMMENT="" />
    <EXPORT ORDINAL="10751" NAME="?OnNcPaint@CMFCVisualManagerOffice2007@@UAEHPAVCWnd@@ABVCObList@@VCRect@@@Z" PURGE="-1" COMMENT="" />
    <EXPORT ORDINAL="10750" NAME="?OnNcPaint@CMFCVisualManager@@UAEHPAVCWnd@@ABVCObList@@VCRect@@@Z" PURGE="-1" COMMENT="" />
    <EXPORT ORDINAL="10749" NAME="?OnNcPaint@CMFCToolBar@@IAEXXZ" PURGE="-1" COMMENT="" />
    <EXPORT ORDINAL="10748" NAME="?OnNcPaint@CMFCTasksPaneFrameWnd@@IAEXXZ" PURGE="-1" COMMENT="" />
    <EXPORT ORDINAL="10747" NAME="?OnNcPaint@CMFCReBar@@IAEXXZ" PURGE="-1" COMMENT="" />
    <EXPORT ORDINAL="10746" NAME="?OnNcPaint@CMFCPropertyGridCtrl@@IAEXXZ" PURGE="-1" COMMENT="" />
    <EXPORT ORDINAL="10745" NAME="?OnNcPaint@CMFCPopupMenuBar@@IAEXXZ" PURGE="-1" COMMENT="" />
    <EXPORT ORDINAL="10744" NAME="?OnNcPaint@CMFCOutlookBarToolBar@@QAEXXZ" PURGE="-1" COMMENT="" />
    <EXPORT ORDINAL="10743" NAME="?OnNcPaint@CMFCEditBrowseCtrl@@IAEXXZ" PURGE="-1" COMMENT="" />
    <EXPORT ORDINAL="10742" NAME="?OnNcPaint@CMFCColorBar@@IAEXXZ" PURGE="-1" COMMENT="" />
    <EXPORT ORDINAL="10741" NAME="?OnNcPaint@CMFCCaptionBar@@IAEXXZ" PURGE="-1" COMMENT="" />
    <EXPORT ORDINAL="10740" NAME="?OnNcPaint@CMDIFrameWndEx@@IAEXXZ" PURGE="-1" COMMENT="" />
    <EXPORT ORDINAL="10739" NAME="?OnNcPaint@CMDIChildWndEx@@IAEXXZ" PURGE="-1" COMMENT="" />
    <EXPORT ORDINAL="10738" NAME="?OnNcPaint@CFrameWndEx@@QAEXXZ" PURGE="-1" COMMENT="" />
    <EXPORT ORDINAL="10737" NAME="?OnNcPaint@CFrameImpl@@IAEHXZ" PURGE="-1" COMMENT="" />
    <EXPORT ORDINAL="10735" NAME="?OnNcPaint@CDockablePane@@IAEXXZ" PURGE="-1" COMMENT="" />
    <EXPORT ORDINAL="10736" NAME="?OnNcPaint@CDockBar@@IAEXXZ" PURGE="-1" COMMENT="" />
    <EXPORT ORDINAL="10734" NAME="?OnNcMouseMove@CPaneFrameWnd@@IAEXIVCPoint@@@Z" PURGE="-1" COMMENT="" />
    <EXPORT ORDINAL="10733" NAME="?OnNcMouseMove@CMFCEditBrowseCtrl@@IAEXIVCPoint@@@Z" PURGE="-1" COMMENT="" />
    <EXPORT ORDINAL="10732" NAME="?OnNcMouseMove@CMDIFrameWndEx@@IAEXIVCPoint@@@Z" PURGE="-1" COMMENT="" />
    <EXPORT ORDINAL="10731" NAME="?OnNcMouseMove@CMDIChildWndEx@@IAEXIVCPoint@@@Z" PURGE="-1" COMMENT="" />
    <EXPORT ORDINAL="10730" NAME="?OnNcMouseMove@CFrameWndEx@@QAEXIVCPoint@@@Z" PURGE="-1" COMMENT="" />
    <EXPORT ORDINAL="10729" NAME="?OnNcMouseMove@CFrameImpl@@IAEXIVCPoint@@@Z" PURGE="-1" COMMENT="" />
    <EXPORT ORDINAL="10728" NAME="?OnNcMouseMove@CDockablePane@@IAEXIVCPoint@@@Z" PURGE="-1" COMMENT="" />
    <EXPORT ORDINAL="10727" NAME="?OnNcLButtonDown@COleControl@@IAEXIVCPoint@@@Z" PURGE="-1" COMMENT="" />
    <EXPORT ORDINAL="10726" NAME="?OnNcLButtonDown@CMiniDockFrameWnd@@QAEXIVCPoint@@@Z" PURGE="-1" COMMENT="" />
    <EXPORT ORDINAL="10725" NAME="?OnNcLButtonDown@CMFCPopupMenu@@IAEXIVCPoint@@@Z" PURGE="-1" COMMENT="" />
    <EXPORT ORDINAL="10724" NAME="?OnNcLButtonDown@CDockablePane@@IAEXIVCPoint@@@Z" PURGE="-1" COMMENT="" />
    <EXPORT ORDINAL="10723" NAME="?OnNcLButtonDblClk@CPaneFrameWnd@@IAEXIVCPoint@@@Z" PURGE="-1" COMMENT="" />
    <EXPORT ORDINAL="10722" NAME="?OnNcLButtonDblClk@CMiniDockFrameWnd@@QAEXIVCPoint@@@Z" PURGE="-1" COMMENT="" />
    <EXPORT ORDINAL="10721" NAME="?OnNcLButtonDblClk@CMFCEditBrowseCtrl@@IAEXIVCPoint@@@Z" PURGE="-1" COMMENT="" />
    <EXPORT ORDINAL="10720" NAME="?OnNcHitTest@CToolBar@@IAEJVCPoint@@@Z" PURGE="-1" COMMENT="" />
    <EXPORT ORDINAL="10719" NAME="?OnNcHitTest@CStatusBar@@IAEJVCPoint@@@Z" PURGE="-1" COMMENT="" />
    <EXPORT ORDINAL="10718" NAME="?OnNcHitTest@CPaneFrameWnd@@IAEJVCPoint@@@Z" PURGE="-1" COMMENT="" />
    <EXPORT ORDINAL="10717" NAME="?OnNcHitTest@COleControl@@IAEJVCPoint@@@Z" PURGE="-1" COMMENT="" />
    <EXPORT ORDINAL="10716" NAME="?OnNcHitTest@CMiniFrameWnd@@QAEJVCPoint@@@Z" PURGE="-1" COMMENT="" />
    <EXPORT ORDINAL="10715" NAME="?OnNcHitTest@CMFCToolBar@@IAEJVCPoint@@@Z" PURGE="-1" COMMENT="" />
    <EXPORT ORDINAL="10714" NAME="?OnNcHitTest@CMFCStatusBar@@IAEJVCPoint@@@Z" PURGE="-1" COMMENT="" />
    <EXPORT ORDINAL="10713" NAME="?OnNcHitTest@CMFCRibbonStatusBar@@IAEJVCPoint@@@Z" PURGE="-1" COMMENT="" />
    <EXPORT ORDINAL="10712" NAME="?OnNcHitTest@CMFCPopupMenu@@IAEJVCPoint@@@Z" PURGE="-1" COMMENT="" />
    <EXPORT ORDINAL="10711" NAME="?OnNcHitTest@CMFCEditBrowseCtrl@@IAEJVCPoint@@@Z" PURGE="-1" COMMENT="" />
    <EXPORT ORDINAL="10710" NAME="?OnNcHitTest@CMDIFrameWndEx@@IAEJVCPoint@@@Z" PURGE="-1" COMMENT="" />
    <EXPORT ORDINAL="10709" NAME="?OnNcHitTest@CMDIChildWndEx@@IAEJVCPoint@@@Z" PURGE="-1" COMMENT="" />
    <EXPORT ORDINAL="10708" NAME="?OnNcHitTest@CFrameWndEx@@QAEJVCPoint@@@Z" PURGE="-1" COMMENT="" />
    <EXPORT ORDINAL="10707" NAME="?OnNcHitTest@CFrameImpl@@IAEIVCPoint@@@Z" PURGE="-1" COMMENT="" />
    <EXPORT ORDINAL="10706" NAME="?OnNcHitTest@CDockablePane@@IAEJVCPoint@@@Z" PURGE="-1" COMMENT="" />
    <EXPORT ORDINAL="10705" NAME="?OnNcDestroy@CWnd@@IAEXXZ" PURGE="-1" COMMENT="" />
    <EXPORT ORDINAL="10704" NAME="?OnNcDestroy@CPaneFrameWnd@@IAEXXZ" PURGE="-1" COMMENT="" />
    <EXPORT ORDINAL="10703" NAME="?OnNcDestroy@CPaneDivider@@IAEXXZ" PURGE="-1" COMMENT="" />
    <EXPORT ORDINAL="10702" NAME="?OnNcDestroy@CPane@@IAEXXZ" PURGE="-1" COMMENT="" />
    <EXPORT ORDINAL="10701" NAME="?OnNcDestroy@CMFCPreviewCtrlImpl@@QAEXXZ" PURGE="-1" COMMENT="" />
    <EXPORT ORDINAL="10700" NAME="?OnNcDestroy@CMFCOutlookBarPaneAdapter@@IAEXXZ" PURGE="-1" COMMENT="" />
    <EXPORT ORDINAL="10699" NAME="?OnNcDestroy@CMFCOutlookBarPane@@IAEXXZ" PURGE="-1" COMMENT="" />
    <EXPORT ORDINAL="10698" NAME="?OnNcDestroy@CMFCDesktopAlertWnd@@IAEXXZ" PURGE="-1" COMMENT="" />
    <EXPORT ORDINAL="10697" NAME="?OnNcDestroy@CMFCAutoHideBar@@IAEXXZ" PURGE="-1" COMMENT="" />
    <EXPORT ORDINAL="10696" NAME="?OnNcDestroy@CListView@@QAEXXZ" PURGE="-1" COMMENT="" />
    <EXPORT ORDINAL="10695" NAME="?OnNcDestroy@CListCtrl@@IAEXXZ" PURGE="-1" COMMENT="" />
    <EXPORT ORDINAL="10694" NAME="?OnNcDestroy@CDockSite@@IAEXXZ" PURGE="-1" COMMENT="" />
    <EXPORT ORDINAL="10693" NAME="?OnNcDestroy@CBaseTabbedPane@@IAEXXZ" PURGE="-1" COMMENT="" />
    <EXPORT ORDINAL="10692" NAME="?OnNcCreate@CToolBar@@IAEHPAUtagCREATESTRUCTA@@@Z" PURGE="-1" COMMENT="" />
    <EXPORT ORDINAL="10691" NAME="?OnNcCreate@CSplitterWnd@@IAEHPAUtagCREATESTRUCTA@@@Z" PURGE="-1" COMMENT="" />
    <EXPORT ORDINAL="10690" NAME="?OnNcCreate@CReBar@@IAEHPAUtagCREATESTRUCTA@@@Z" PURGE="-1" COMMENT="" />
    <EXPORT ORDINAL="10689" NAME="?OnNcCreate@CPropertySheet@@IAEHPAUtagCREATESTRUCTA@@@Z" PURGE="-1" COMMENT="" />
    <EXPORT ORDINAL="10688" NAME="?OnNcCreate@CPaneFrameWnd@@IAEHPAUtagCREATESTRUCTA@@@Z" PURGE="-1" COMMENT="" />
    <EXPORT ORDINAL="10687" NAME="?OnNcCreate@COleControl@@IAEHPAUtagCREATESTRUCTA@@@Z" PURGE="-1" COMMENT="" />
    <EXPORT ORDINAL="10686" NAME="?OnNcCreate@CMiniFrameWnd@@QAEHPAUtagCREATESTRUCTA@@@Z" PURGE="-1" COMMENT="" />
    <EXPORT ORDINAL="10685" NAME="?OnNcCreate@CMFCReBar@@IAEHPAUtagCREATESTRUCTA@@@Z" PURGE="-1" COMMENT="" />
    <EXPORT ORDINAL="10684" NAME="?OnNcCreate@CMDIChildWnd@@IAEHPAUtagCREATESTRUCTA@@@Z" PURGE="-1" COMMENT="" />
    <EXPORT ORDINAL="10683" NAME="?OnNcCalcSize@CVSListBoxEditCtrl@@IAEXHPAUtagNCCALCSIZE_PARAMS@@@Z" PURGE="-1" COMMENT="" />
    <EXPORT ORDINAL="10682" NAME="?OnNcCalcSize@CToolBar@@IAEXHPAUtagNCCALCSIZE_PARAMS@@@Z" PURGE="-1" COMMENT="" />
    <EXPORT ORDINAL="10681" NAME="?OnNcCalcSize@CStatusBar@@IAEXHPAUtagNCCALCSIZE_PARAMS@@@Z" PURGE="-1" COMMENT="" />
    <EXPORT ORDINAL="10680" NAME="?OnNcCalcSize@CReBar@@IAEXHPAUtagNCCALCSIZE_PARAMS@@@Z" PURGE="-1" COMMENT="" />
    <EXPORT ORDINAL="10679" NAME="?OnNcCalcSize@CPaneFrameWnd@@IAEXHPAUtagNCCALCSIZE_PARAMS@@@Z" PURGE="-1" COMMENT="" />
    <EXPORT ORDINAL="10678" NAME="?OnNcCalcSize@COleControl@@IAEXHPAUtagNCCALCSIZE_PARAMS@@@Z" PURGE="-1" COMMENT="" />
    <EXPORT ORDINAL="10677" NAME="?OnNcCalcSize@CMFCToolBar@@IAEXHPAUtagNCCALCSIZE_PARAMS@@@Z" PURGE="-1" COMMENT="" />
    <EXPORT ORDINAL="10676" NAME="?OnNcCalcSize@CMFCReBar@@IAEXHPAUtagNCCALCSIZE_PARAMS@@@Z" PURGE="-1" COMMENT="" />
    <EXPORT ORDINAL="10675" NAME="?OnNcCalcSize@CMFCPropertyGridCtrl@@IAEXHPAUtagNCCALCSIZE_PARAMS@@@Z" PURGE="-1" COMMENT="" />
    <EXPORT ORDINAL="10674" NAME="?OnNcCalcSize@CMFCPopupMenuBar@@IAEXHPAUtagNCCALCSIZE_PARAMS@@@Z" PURGE="-1" COMMENT="" />
    <EXPORT ORDINAL="10673" NAME="?OnNcCalcSize@CMFCOutlookBarToolBar@@QAEXHPAUtagNCCALCSIZE_PARAMS@@@Z" PURGE="-1" COMMENT="" />
    <EXPORT ORDINAL="10672" NAME="?OnNcCalcSize@CMFCOutlookBarPane@@IAEXHPAUtagNCCALCSIZE_PARAMS@@@Z" PURGE="-1" COMMENT="" />
    <EXPORT ORDINAL="10671" NAME="?OnNcCalcSize@CMFCEditBrowseCtrl@@IAEXHPAUtagNCCALCSIZE_PARAMS@@@Z" PURGE="-1" COMMENT="" />
    <EXPORT ORDINAL="10670" NAME="?OnNcCalcSize@CMFCColorBar@@IAEXHPAUtagNCCALCSIZE_PARAMS@@@Z" PURGE="-1" COMMENT="" />
    <EXPORT ORDINAL="10669" NAME="?OnNcCalcSize@CMFCCaptionBar@@IAEXHPAUtagNCCALCSIZE_PARAMS@@@Z" PURGE="-1" COMMENT="" />
    <EXPORT ORDINAL="10668" NAME="?OnNcCalcSize@CMDIFrameWndEx@@IAEXHPAUtagNCCALCSIZE_PARAMS@@@Z" PURGE="-1" COMMENT="" />
    <EXPORT ORDINAL="10667" NAME="?OnNcCalcSize@CMDIChildWndEx@@IAEXHPAUtagNCCALCSIZE_PARAMS@@@Z" PURGE="-1" COMMENT="" />
    <EXPORT ORDINAL="10666" NAME="?OnNcCalcSize@CFrameWndEx@@QAEXHPAUtagNCCALCSIZE_PARAMS@@@Z" PURGE="-1" COMMENT="" />
    <EXPORT ORDINAL="10665" NAME="?OnNcCalcSize@CFrameImpl@@IAEHHPAUtagNCCALCSIZE_PARAMS@@@Z" PURGE="-1" COMMENT="" />
    <EXPORT ORDINAL="10663" NAME="?OnNcCalcSize@CDockablePane@@IAEXHPAUtagNCCALCSIZE_PARAMS@@@Z" PURGE="-1" COMMENT="" />
    <EXPORT ORDINAL="10664" NAME="?OnNcCalcSize@CDockBar@@IAEXHPAUtagNCCALCSIZE_PARAMS@@@Z" PURGE="-1" COMMENT="" />
    <EXPORT ORDINAL="10662" NAME="?OnNcActivate@CPaneFrameWnd@@IAEHH@Z" PURGE="-1" COMMENT="" />
    <EXPORT ORDINAL="10661" NAME="?OnNcActivate@CMiniFrameWnd@@QAEHH@Z" PURGE="-1" COMMENT="" />
    <EXPORT ORDINAL="10660" NAME="?OnNcActivate@CMFCVisualManagerWindows7@@UAEHPAVCWnd@@H@Z" PURGE="-1" COMMENT="" />
    <EXPORT ORDINAL="10659" NAME="?OnNcActivate@CMFCVisualManagerOffice2007@@UAEHPAVCWnd@@H@Z" PURGE="-1" COMMENT="" />
    <EXPORT ORDINAL="10658" NAME="?OnNcActivate@CMFCVisualManager@@UAEHPAVCWnd@@H@Z" PURGE="-1" COMMENT="" />
    <EXPORT ORDINAL="10657" NAME="?OnNcActivate@CMFCPropertyPage@@IAEHH@Z" PURGE="-1" COMMENT="" />
    <EXPORT ORDINAL="10656" NAME="?OnNcActivate@CMDIFrameWndEx@@IAEHH@Z" PURGE="-1" COMMENT="" />
    <EXPORT ORDINAL="10655" NAME="?OnNcActivate@CMDIChildWndEx@@IAEHH@Z" PURGE="-1" COMMENT="" />
    <EXPORT ORDINAL="10654" NAME="?OnNcActivate@CMDIChildWnd@@IAEHH@Z" PURGE="-1" COMMENT="" />
    <EXPORT ORDINAL="10653" NAME="?OnNcActivate@CFrameWndEx@@QAEHH@Z" PURGE="-1" COMMENT="" />
    <EXPORT ORDINAL="10652" NAME="?OnNcActivate@CFrameWnd@@IAEHH@Z" PURGE="-1" COMMENT="" />
    <EXPORT ORDINAL="10651" NAME="?OnNcActivate@CFrameImpl@@IAEHH@Z" PURGE="-1" COMMENT="" />
    <EXPORT ORDINAL="10650" NAME="?OnNcActivate@CDialogImpl@@IAEXAAH@Z" PURGE="-1" COMMENT="" />
    <EXPORT ORDINAL="10649" NAME="?OnNcActivate@CDialogEx@@IAEHH@Z" PURGE="-1" COMMENT="" />
    <EXPORT ORDINAL="10648" NAME="?OnNavigateError@CHtmlView@@UAEXPBD0KPAH@Z" PURGE="-1" COMMENT="" />
    <EXPORT ORDINAL="10645" NAME="?OnNavigateComplete@CMultiPageDHtmlDialog@@MAEXPAUIDispatch@@PBD@Z" PURGE="-1" COMMENT="" />
    <EXPORT ORDINAL="10644" NAME="?OnNavigateComplete@CDHtmlDialog@@UAEXPAUIDispatch@@PBD@Z" PURGE="-1" COMMENT="" />
    <EXPORT ORDINAL="10647" NAME="?OnNavigateComplete2@CHtmlView@@UAEXPBD@Z" PURGE="-1" COMMENT="" />
    <EXPORT ORDINAL="10646" NAME="?OnNavigateComplete2@CHtmlEditView@@UAEXPBD@Z" PURGE="-1" COMMENT="" />
    <EXPORT ORDINAL="10797" NAME="?OnNTCtlColor@CWnd@@IAEJIJ@Z" PURGE="-1" COMMENT="" />
    <EXPORT ORDINAL="10643" NAME="?OnMoving@CPaneFrameWnd@@IAEXIPAUtagRECT@@@Z" PURGE="-1" COMMENT="" />
    <EXPORT ORDINAL="10642" NAME="?OnMoveUp@COutlookOptionsDlg@@IAEXXZ" PURGE="-1" COMMENT="" />
    <EXPORT ORDINAL="10641" NAME="?OnMoveTabComplete@CMDIClientAreaWnd@@IAEJIJ@Z" PURGE="-1" COMMENT="" />
    <EXPORT ORDINAL="10640" NAME="?OnMovePane@CPaneFrameWnd@@UAEXPAVCPane@@VCPoint@@@Z" PURGE="-1" COMMENT="" />
    <EXPORT ORDINAL="10639" NAME="?OnMoveMiniFrame@COleIPFrameWndEx@@UAEHPAVCWnd@@@Z" PURGE="-1" COMMENT="" />
    <EXPORT ORDINAL="10638" NAME="?OnMoveMiniFrame@COleDocIPFrameWndEx@@UAEHPAVCWnd@@@Z" PURGE="-1" COMMENT="" />
    <EXPORT ORDINAL="10637" NAME="?OnMoveMiniFrame@COleCntrFrameWndEx@@UAEHPAVCWnd@@@Z" PURGE="-1" COMMENT="" />
    <EXPORT ORDINAL="10636" NAME="?OnMoveMiniFrame@CMDIFrameWndEx@@UAEHPAVCWnd@@@Z" PURGE="-1" COMMENT="" />
    <EXPORT ORDINAL="10635" NAME="?OnMoveMiniFrame@CMDIChildWndEx@@UAEHPAVCWnd@@@Z" PURGE="-1" COMMENT="" />
    <EXPORT ORDINAL="10634" NAME="?OnMoveMiniFrame@CFrameWndEx@@UAEHPAVCWnd@@@Z" PURGE="-1" COMMENT="" />
    <EXPORT ORDINAL="10633" NAME="?OnMoveMiniFrame@CDockingManager@@UAEHPAVCWnd@@@Z" PURGE="-1" COMMENT="" />
    <EXPORT ORDINAL="10632" NAME="?OnMoveInternalPaneDivider@CPaneContainer@@UAEHHAAPAX@Z" PURGE="-1" COMMENT="" />
    <EXPORT ORDINAL="10631" NAME="?OnMoveDown@COutlookOptionsDlg@@IAEXXZ" PURGE="-1" COMMENT="" />
    <EXPORT ORDINAL="10630" NAME="?OnMove@CRecordView@@UAEHI@Z" PURGE="-1" COMMENT="" />
    <EXPORT ORDINAL="10629" NAME="?OnMove@COleDBRecordView@@UAEHI@Z" PURGE="-1" COMMENT="" />
    <EXPORT ORDINAL="10628" NAME="?OnMove@COleControl@@IAEXHH@Z" PURGE="-1" COMMENT="" />
    <EXPORT ORDINAL="10627" NAME="?OnMove@CMFCToolBarSpinEditBoxButton@@MAEXXZ" PURGE="-1" COMMENT="" />
    <EXPORT ORDINAL="10626" NAME="?OnMove@CMFCToolBarEditBoxButton@@UAEXXZ" PURGE="-1" COMMENT="" />
    <EXPORT ORDINAL="10625" NAME="?OnMove@CMFCToolBarDateTimeCtrl@@UAEXXZ" PURGE="-1" COMMENT="" />
    <EXPORT ORDINAL="10624" NAME="?OnMove@CMFCToolBarComboBoxButton@@UAEXXZ" PURGE="-1" COMMENT="" />
    <EXPORT ORDINAL="10623" NAME="?OnMove@CDaoRecordView@@UAEHI@Z" PURGE="-1" COMMENT="" />
    <EXPORT ORDINAL="10622" NAME="?OnMouseWheel@CSplitterWnd@@IAEHIFVCPoint@@@Z" PURGE="-1" COMMENT="" />
    <EXPORT ORDINAL="10621" NAME="?OnMouseWheel@CScrollView@@QAEHIFVCPoint@@@Z" PURGE="-1" COMMENT="" />
    <EXPORT ORDINAL="10620" NAME="?OnMouseWheel@CMFCTasksPane@@IAEHIFVCPoint@@@Z" PURGE="-1" COMMENT="" />
    <EXPORT ORDINAL="10619" NAME="?OnMouseWheel@CMFCRibbonPanelMenu@@IAEHIFVCPoint@@@Z" PURGE="-1" COMMENT="" />
    <EXPORT ORDINAL="10618" NAME="?OnMouseWheel@CMFCRibbonBar@@IAEHIFVCPoint@@@Z" PURGE="-1" COMMENT="" />
    <EXPORT ORDINAL="10617" NAME="?OnMouseWheel@CMFCPropertyGridCtrl@@IAEHIFVCPoint@@@Z" PURGE="-1" COMMENT="" />
    <EXPORT ORDINAL="10616" NAME="?OnMouseWheel@CMFCPopupMenu@@IAEHIFVCPoint@@@Z" PURGE="-1" COMMENT="" />
    <EXPORT ORDINAL="10615" NAME="?OnMouseMove@CSplitterWnd@@IAEXIVCPoint@@@Z" PURGE="-1" COMMENT="" />
    <EXPORT ORDINAL="10614" NAME="?OnMouseMove@CSmartDockingManager@@QAEXVCPoint@@@Z" PURGE="-1" COMMENT="" />
    <EXPORT ORDINAL="10613" NAME="?OnMouseMove@CScreenWnd@@IAEXIVCPoint@@@Z" PURGE="-1" COMMENT="" />
    <EXPORT ORDINAL="10612" NAME="?OnMouseMove@CRibbonCategoryScroll@@EAEXVCPoint@@@Z" PURGE="-1" COMMENT="" />
    <EXPORT ORDINAL="10611" NAME="?OnMouseMove@CPaneFrameWnd@@IAEXIVCPoint@@@Z" PURGE="-1" COMMENT="" />
    <EXPORT ORDINAL="10610" NAME="?OnMouseMove@CPaneDivider@@IAEXIVCPoint@@@Z" PURGE="-1" COMMENT="" />
    <EXPORT ORDINAL="10609" NAME="?OnMouseMove@CPane@@IAEXIVCPoint@@@Z" PURGE="-1" COMMENT="" />
    <EXPORT ORDINAL="10608" NAME="?OnMouseMove@COleControl@@IAEXIVCPoint@@@Z" PURGE="-1" COMMENT="" />
    <EXPORT ORDINAL="10607" NAME="?OnMouseMove@CMFCToolBarEditCtrl@@IAEXIVCPoint@@@Z" PURGE="-1" COMMENT="" />
    <EXPORT ORDINAL="10606" NAME="?OnMouseMove@CMFCToolBarComboBoxEdit@@IAEXIVCPoint@@@Z" PURGE="-1" COMMENT="" />
    <EXPORT ORDINAL="10605" NAME="?OnMouseMove@CMFCToolBar@@IAEXIVCPoint@@@Z" PURGE="-1" COMMENT="" />
    <EXPORT ORDINAL="10604" NAME="?OnMouseMove@CMFCTasksPane@@IAEXIVCPoint@@@Z" PURGE="-1" COMMENT="" />
    <EXPORT ORDINAL="10603" NAME="?OnMouseMove@CMFCTabCtrl@@IAEXIVCPoint@@@Z" PURGE="-1" COMMENT="" />
    <EXPORT ORDINAL="10602" NAME="?OnMouseMove@CMFCSpinButtonCtrl@@IAEXIVCPoint@@@Z" PURGE="-1" COMMENT="" />
    <EXPORT ORDINAL="10601" NAME="?OnMouseMove@CMFCRibbonSlider@@MAEXVCPoint@@@Z" PURGE="-1" COMMENT="" />
    <EXPORT ORDINAL="10600" NAME="?OnMouseMove@CMFCRibbonPanelMenuBar@@IAEXIVCPoint@@@Z" PURGE="-1" COMMENT="" />
    <EXPORT ORDINAL="10599" NAME="?OnMouseMove@CMFCRibbonLinkCtrl@@UAEXVCPoint@@@Z" PURGE="-1" COMMENT="" />
    <EXPORT ORDINAL="10598" NAME="?OnMouseMove@CMFCRibbonCategory@@UAEXVCPoint@@@Z" PURGE="-1" COMMENT="" />
    <EXPORT ORDINAL="10597" NAME="?OnMouseMove@CMFCRibbonButton@@MAEXVCPoint@@@Z" PURGE="-1" COMMENT="" />
    <EXPORT ORDINAL="10596" NAME="?OnMouseMove@CMFCRibbonBar@@IAEXIVCPoint@@@Z" PURGE="-1" COMMENT="" />
    <EXPORT ORDINAL="10595" NAME="?OnMouseMove@CMFCReBar@@IAEXIVCPoint@@@Z" PURGE="-1" COMMENT="" />
    <EXPORT ORDINAL="10594" NAME="?OnMouseMove@CMFCProperySheetListBox@@AAEXIVCPoint@@@Z" PURGE="-1" COMMENT="" />
    <EXPORT ORDINAL="10593" NAME="?OnMouseMove@CMFCPropertyGridCtrl@@IAEXIVCPoint@@@Z" PURGE="-1" COMMENT="" />
    <EXPORT ORDINAL="10592" NAME="?OnMouseMove@CMFCPopupMenuBar@@IAEXIVCPoint@@@Z" PURGE="-1" COMMENT="" />
    <EXPORT ORDINAL="10591" NAME="?OnMouseMove@CMFCPopupMenu@@IAEXIVCPoint@@@Z" PURGE="-1" COMMENT="" />
    <EXPORT ORDINAL="10590" NAME="?OnMouseMove@CMFCOutlookBarTabCtrl@@IAEXIVCPoint@@@Z" PURGE="-1" COMMENT="" />
    <EXPORT ORDINAL="10589" NAME="?OnMouseMove@CMFCImagePaintArea@@IAEXIVCPoint@@@Z" PURGE="-1" COMMENT="" />
    <EXPORT ORDINAL="10588" NAME="?OnMouseMove@CMFCHeaderCtrl@@IAEXIVCPoint@@@Z" PURGE="-1" COMMENT="" />
    <EXPORT ORDINAL="10587" NAME="?OnMouseMove@CMFCEditBrowseCtrl@@IAEXIVCPoint@@@Z" PURGE="-1" COMMENT="" />
    <EXPORT ORDINAL="10586" NAME="?OnMouseMove@CMFCDropDownToolBar@@QAEXIVCPoint@@@Z" PURGE="-1" COMMENT="" />
    <EXPORT ORDINAL="10585" NAME="?OnMouseMove@CMFCDesktopAlertWnd@@IAEXIVCPoint@@@Z" PURGE="-1" COMMENT="" />
    <EXPORT ORDINAL="10584" NAME="?OnMouseMove@CMFCColorPickerCtrl@@IAEXIVCPoint@@@Z" PURGE="-1" COMMENT="" />
    <EXPORT ORDINAL="10583" NAME="?OnMouseMove@CMFCColorDialog@@IAEXIVCPoint@@@Z" PURGE="-1" COMMENT="" />
    <EXPORT ORDINAL="10582" NAME="?OnMouseMove@CMFCColorButton@@IAEXIVCPoint@@@Z" PURGE="-1" COMMENT="" />
    <EXPORT ORDINAL="10581" NAME="?OnMouseMove@CMFCColorBar@@IAEXIVCPoint@@@Z" PURGE="-1" COMMENT="" />
    <EXPORT ORDINAL="10580" NAME="?OnMouseMove@CMFCCaptionBar@@IAEXIVCPoint@@@Z" PURGE="-1" COMMENT="" />
    <EXPORT ORDINAL="10579" NAME="?OnMouseMove@CMFCButton@@IAEXIVCPoint@@@Z" PURGE="-1" COMMENT="" />
    <EXPORT ORDINAL="10578" NAME="?OnMouseMove@CMFCBaseTabCtrl@@IAEXIVCPoint@@@Z" PURGE="-1" COMMENT="" />
    <EXPORT ORDINAL="10577" NAME="?OnMouseMove@CMFCAutoHideBar@@IAEXIVCPoint@@@Z" PURGE="-1" COMMENT="" />
    <EXPORT ORDINAL="10576" NAME="?OnMouseMove@CMDIFrameWndEx@@IAEXIVCPoint@@@Z" PURGE="-1" COMMENT="" />
    <EXPORT ORDINAL="10575" NAME="?OnMouseMove@CMDIChildWndEx@@IAEXIVCPoint@@@Z" PURGE="-1" COMMENT="" />
    <EXPORT ORDINAL="10574" NAME="?OnMouseMove@CFrameWndEx@@QAEXIVCPoint@@@Z" PURGE="-1" COMMENT="" />
    <EXPORT ORDINAL="10573" NAME="?OnMouseMove@CFrameImpl@@IAEXVCPoint@@@Z" PURGE="-1" COMMENT="" />
    <EXPORT ORDINAL="10572" NAME="?OnMouseMove@CDockablePane@@IAEXIVCPoint@@@Z" PURGE="-1" COMMENT="" />
    <EXPORT ORDINAL="10571" NAME="?OnMouseLeave@CMFCToolBarEditCtrl@@IAEXXZ" PURGE="-1" COMMENT="" />
    <EXPORT ORDINAL="10570" NAME="?OnMouseLeave@CMFCToolBarComboBoxEdit@@IAEXXZ" PURGE="-1" COMMENT="" />
    <EXPORT ORDINAL="10569" NAME="?OnMouseLeave@CMFCToolBar@@IAEXXZ" PURGE="-1" COMMENT="" />
    <EXPORT ORDINAL="10568" NAME="?OnMouseLeave@CMFCSpinButtonCtrl@@IAEXXZ" PURGE="-1" COMMENT="" />
    <EXPORT ORDINAL="10567" NAME="?OnMouseLeave@CMFCRibbonRichEditCtrl@@IAEXXZ" PURGE="-1" COMMENT="" />
    <EXPORT ORDINAL="10566" NAME="?OnMouseLeave@CMFCRibbonPanelMenuBar@@IAEXXZ" PURGE="-1" COMMENT="" />
    <EXPORT ORDINAL="10565" NAME="?OnMouseLeave@CMFCRibbonBar@@IAEXXZ" PURGE="-1" COMMENT="" />
    <EXPORT ORDINAL="10564" NAME="?OnMouseLeave@CMFCProperySheetListBox@@AAEXXZ" PURGE="-1" COMMENT="" />
    <EXPORT ORDINAL="10563" NAME="?OnMouseLeave@CMFCHeaderCtrl@@IAEXXZ" PURGE="-1" COMMENT="" />
    <EXPORT ORDINAL="10562" NAME="?OnMouseLeave@CMFCColorBar@@IAEXXZ" PURGE="-1" COMMENT="" />
    <EXPORT ORDINAL="10561" NAME="?OnMouseLeave@CMFCCaptionBar@@IAEXXZ" PURGE="-1" COMMENT="" />
    <EXPORT ORDINAL="10560" NAME="?OnMouseLeave@CMFCAutoHideBar@@IAEXXZ" PURGE="-1" COMMENT="" />
    <EXPORT ORDINAL="10559" NAME="?OnMouseActivate@CView@@IAEHPAVCWnd@@II@Z" PURGE="-1" COMMENT="" />
    <EXPORT ORDINAL="10558" NAME="?OnMouseActivate@CTabView@@IAEHPAVCWnd@@II@Z" PURGE="-1" COMMENT="" />
    <EXPORT ORDINAL="10557" NAME="?OnMouseActivate@CPaneFrameWnd@@IAEHPAVCWnd@@II@Z" PURGE="-1" COMMENT="" />
    <EXPORT ORDINAL="10556" NAME="?OnMouseActivate@COleControl@@IAEHPAVCWnd@@II@Z" PURGE="-1" COMMENT="" />
    <EXPORT ORDINAL="10555" NAME="?OnMouseActivate@CMiniDockFrameWnd@@QAEHPAVCWnd@@II@Z" PURGE="-1" COMMENT="" />
    <EXPORT ORDINAL="10554" NAME="?OnMouseActivate@CMFCRibbonKeyTip@@IAEHPAVCWnd@@II@Z" PURGE="-1" COMMENT="" />
    <EXPORT ORDINAL="10553" NAME="?OnMouseActivate@CMFCPopupMenu@@IAEHPAVCWnd@@II@Z" PURGE="-1" COMMENT="" />
    <EXPORT ORDINAL="10552" NAME="?OnMouseActivate@CMFCDropDownFrame@@IAEHPAVCWnd@@II@Z" PURGE="-1" COMMENT="" />
    <EXPORT ORDINAL="10551" NAME="?OnMouseActivate@CMDITabProxyWnd@@IAEHPAVCWnd@@II@Z" PURGE="-1" COMMENT="" />
    <EXPORT ORDINAL="10550" NAME="?OnMouseActivate@CMDIChildWnd@@IAEHPAVCWnd@@II@Z" PURGE="-1" COMMENT="" />
    <EXPORT ORDINAL="10549" NAME="?OnMouseActivate@CControlBar@@QAEHPAVCWnd@@II@Z" PURGE="-1" COMMENT="" />
    <EXPORT ORDINAL="10548" NAME="?OnMnemonic@XOleControl@COleControl@@UAGJPAUtagMSG@@@Z" PURGE="-1" COMMENT="" />
    <EXPORT ORDINAL="10547" NAME="?OnMnemonic@COleControl@@UAEXPAUtagMSG@@@Z" PURGE="-1" COMMENT="" />
    <EXPORT ORDINAL="10546" NAME="?OnMinimize@CMFCWindowsManagerDialog@@IAEXXZ" PURGE="-1" COMMENT="" />
    <EXPORT ORDINAL="10545" NAME="?OnMessagePending@CSocket@@MAEHXZ" PURGE="-1" COMMENT="" />
    <EXPORT ORDINAL="10544" NAME="?OnMessagePending@COleMessageFilter@@UAEHPBUtagMSG@@@Z" PURGE="-1" COMMENT="" />
    <EXPORT ORDINAL="10543" NAME="?OnMenuSelect@COleFrameHook@@UAEHIIPAUHMENU__@@@Z" PURGE="-1" COMMENT="" />
    <EXPORT ORDINAL="10542" NAME="?OnMenuSelect@COleControl@@IAEXIIPAUHMENU__@@@Z" PURGE="-1" COMMENT="" />
    <EXPORT ORDINAL="10541" NAME="?OnMenuSelect@CFrameWnd@@IAEXIIPAUHMENU__@@@Z" PURGE="-1" COMMENT="" />
    <EXPORT ORDINAL="10540" NAME="?OnMenuKey@CMFCRibbonRecentFilesList@@MAEHI@Z" PURGE="-1" COMMENT="" />
    <EXPORT ORDINAL="10539" NAME="?OnMenuChar@COleIPFrameWndEx@@IAEJIIPAVCMenu@@@Z" PURGE="-1" COMMENT="" />
    <EXPORT ORDINAL="10538" NAME="?OnMenuChar@COleDocIPFrameWndEx@@IAEJIIPAVCMenu@@@Z" PURGE="-1" COMMENT="" />
    <EXPORT ORDINAL="10537" NAME="?OnMenuChar@CMDIFrameWndEx@@IAEJIIPAVCMenu@@@Z" PURGE="-1" COMMENT="" />
    <EXPORT ORDINAL="10536" NAME="?OnMenuChar@CMDIFrameWnd@@IAEJIIPAVCMenu@@@Z" PURGE="-1" COMMENT="" />
    <EXPORT ORDINAL="10535" NAME="?OnMenuChar@CFrameWndEx@@QAEJIIPAVCMenu@@@Z" PURGE="-1" COMMENT="" />
    <EXPORT ORDINAL="10534" NAME="?OnMenuChar@CFrameWnd@@IAEJIIPAVCMenu@@@Z" PURGE="-1" COMMENT="" />
    <EXPORT ORDINAL="10533" NAME="?OnMenuChar@CFrameImpl@@IAEHI@Z" PURGE="-1" COMMENT="" />
    <EXPORT ORDINAL="10532" NAME="?OnMenuBar@CHtmlView@@UAEXH@Z" PURGE="-1" COMMENT="" />
    <EXPORT ORDINAL="10531" NAME="?OnMeasureItem@CWnd@@IAEXHPAUtagMEASUREITEMSTRUCT@@@Z" PURGE="-1" COMMENT="" />
    <EXPORT ORDINAL="10521" NAME="?OnMapPropertyToPage@COleControl@@UAEHJPAU_GUID@@PAH@Z" PURGE="-1" COMMENT="" />
    <EXPORT ORDINAL="10530" NAME="?OnMDIWindowCmd@CMDIFrameWnd@@IAEHI@Z" PURGE="-1" COMMENT="" />
    <EXPORT ORDINAL="10529" NAME="?OnMDIRefreshMenu@CMDIClientAreaWnd@@IAEJIJ@Z" PURGE="-1" COMMENT="" />
    <EXPORT ORDINAL="10528" NAME="?OnMDINext@CMDIClientAreaWnd@@IAEJIJ@Z" PURGE="-1" COMMENT="" />
    <EXPORT ORDINAL="10527" NAME="?OnMDIDestroy@CMDIClientAreaWnd@@IAEJIJ@Z" PURGE="-1" COMMENT="" />
    <EXPORT ORDINAL="10526" NAME="?OnMDIActivate@CMDIChildWndEx@@IAEXHPAVCWnd@@0@Z" PURGE="-1" COMMENT="" />
    <EXPORT ORDINAL="10525" NAME="?OnMDIActivate@CMDIChildWnd@@IAEXHPAVCWnd@@0@Z" PURGE="-1" COMMENT="" />
    <EXPORT ORDINAL="10524" NAME="?OnMButtonUp@COleControl@@IAEXIVCPoint@@@Z" PURGE="-1" COMMENT="" />
    <EXPORT ORDINAL="10523" NAME="?OnMButtonDown@COleControl@@IAEXIVCPoint@@@Z" PURGE="-1" COMMENT="" />
    <EXPORT ORDINAL="10522" NAME="?OnMButtonDblClk@COleControl@@IAEXIVCPoint@@@Z" PURGE="-1" COMMENT="" />
    <EXPORT ORDINAL="10520" NAME="?OnLuminance@CMFCCustomColorsPropertyPage@@IAEXXZ" PURGE="-1" COMMENT="" />
    <EXPORT ORDINAL="10519" NAME="?OnLowResource@CAsyncMonikerFile@@MAEXXZ" PURGE="-1" COMMENT="" />
    <EXPORT ORDINAL="10518" NAME="?OnLoadFrame@CFrameImpl@@IAEXXZ" PURGE="-1" COMMENT="" />
    <EXPORT ORDINAL="10517" NAME="?OnLoadDocumentFromStream@COleDocument@@MAEJPAUIStream@@K@Z" PURGE="-1" COMMENT="" />
    <EXPORT ORDINAL="10516" NAME="?OnLoadDocumentFromStream@CDocument@@UAEJPAUIStream@@K@Z" PURGE="-1" COMMENT="" />
    <EXPORT ORDINAL="10379" NAME="?OnLargeIcons@CMFCToolBarsOptionsPropertyPage@@IAEXXZ" PURGE="-1" COMMENT="" />
    <EXPORT ORDINAL="10515" NAME="?OnLButtonUp@CSplitterWnd@@IAEXIVCPoint@@@Z" PURGE="-1" COMMENT="" />
    <EXPORT ORDINAL="10514" NAME="?OnLButtonUp@CPaneFrameWnd@@IAEXIVCPoint@@@Z" PURGE="-1" COMMENT="" />
    <EXPORT ORDINAL="10513" NAME="?OnLButtonUp@CPaneDivider@@IAEXIVCPoint@@@Z" PURGE="-1" COMMENT="" />
    <EXPORT ORDINAL="10512" NAME="?OnLButtonUp@CPane@@IAEXIVCPoint@@@Z" PURGE="-1" COMMENT="" />
    <EXPORT ORDINAL="10511" NAME="?OnLButtonUp@COleControl@@IAEXIVCPoint@@@Z" PURGE="-1" COMMENT="" />
    <EXPORT ORDINAL="10510" NAME="?OnLButtonUp@CMFCToolBar@@IAEXIVCPoint@@@Z" PURGE="-1" COMMENT="" />
    <EXPORT ORDINAL="10509" NAME="?OnLButtonUp@CMFCTasksPane@@IAEXIVCPoint@@@Z" PURGE="-1" COMMENT="" />
    <EXPORT ORDINAL="10508" NAME="?OnLButtonUp@CMFCTabCtrl@@IAEXIVCPoint@@@Z" PURGE="-1" COMMENT="" />
    <EXPORT ORDINAL="10507" NAME="?OnLButtonUp@CMFCSpinButtonCtrl@@IAEXIVCPoint@@@Z" PURGE="-1" COMMENT="" />
    <EXPORT ORDINAL="10506" NAME="?OnLButtonUp@CMFCRibbonSlider@@MAEXVCPoint@@@Z" PURGE="-1" COMMENT="" />
    <EXPORT ORDINAL="10505" NAME="?OnLButtonUp@CMFCRibbonPanelMenuBar@@IAEXIVCPoint@@@Z" PURGE="-1" COMMENT="" />
    <EXPORT ORDINAL="10504" NAME="?OnLButtonUp@CMFCRibbonEdit@@UAEXVCPoint@@@Z" PURGE="-1" COMMENT="" />
    <EXPORT ORDINAL="10503" NAME="?OnLButtonUp@CMFCRibbonContextCaption@@MAEXVCPoint@@@Z" PURGE="-1" COMMENT="" />
    <EXPORT ORDINAL="10502" NAME="?OnLButtonUp@CMFCRibbonComboBox@@MAEXVCPoint@@@Z" PURGE="-1" COMMENT="" />
    <EXPORT ORDINAL="10501" NAME="?OnLButtonUp@CMFCRibbonCategory@@UAEXVCPoint@@@Z" PURGE="-1" COMMENT="" />
    <EXPORT ORDINAL="10500" NAME="?OnLButtonUp@CMFCRibbonCaptionButton@@MAEXVCPoint@@@Z" PURGE="-1" COMMENT="" />
    <EXPORT ORDINAL="10499" NAME="?OnLButtonUp@CMFCRibbonButton@@MAEXVCPoint@@@Z" PURGE="-1" COMMENT="" />
    <EXPORT ORDINAL="10498" NAME="?OnLButtonUp@CMFCRibbonBar@@IAEXIVCPoint@@@Z" PURGE="-1" COMMENT="" />
    <EXPORT ORDINAL="10497" NAME="?OnLButtonUp@CMFCReBar@@IAEXIVCPoint@@@Z" PURGE="-1" COMMENT="" />
    <EXPORT ORDINAL="10496" NAME="?OnLButtonUp@CMFCPropertyGridCtrl@@IAEXIVCPoint@@@Z" PURGE="-1" COMMENT="" />
    <EXPORT ORDINAL="10495" NAME="?OnLButtonUp@CMFCPopupMenuBar@@IAEXIVCPoint@@@Z" PURGE="-1" COMMENT="" />
    <EXPORT ORDINAL="10494" NAME="?OnLButtonUp@CMFCPopupMenu@@IAEXIVCPoint@@@Z" PURGE="-1" COMMENT="" />
    <EXPORT ORDINAL="10493" NAME="?OnLButtonUp@CMFCOutlookBarTabCtrl@@IAEXIVCPoint@@@Z" PURGE="-1" COMMENT="" />
    <EXPORT ORDINAL="10492" NAME="?OnLButtonUp@CMFCOutlookBarPane@@IAEXIVCPoint@@@Z" PURGE="-1" COMMENT="" />
    <EXPORT ORDINAL="10491" NAME="?OnLButtonUp@CMFCMenuButton@@IAEXIVCPoint@@@Z" PURGE="-1" COMMENT="" />
    <EXPORT ORDINAL="10490" NAME="?OnLButtonUp@CMFCMaskedEdit@@IAEXIVCPoint@@@Z" PURGE="-1" COMMENT="" />
    <EXPORT ORDINAL="10489" NAME="?OnLButtonUp@CMFCImagePaintArea@@IAEXIVCPoint@@@Z" PURGE="-1" COMMENT="" />
    <EXPORT ORDINAL="10488" NAME="?OnLButtonUp@CMFCHeaderCtrl@@IAEXIVCPoint@@@Z" PURGE="-1" COMMENT="" />
    <EXPORT ORDINAL="10487" NAME="?OnLButtonUp@CMFCEditBrowseCtrl@@IAEXIVCPoint@@@Z" PURGE="-1" COMMENT="" />
    <EXPORT ORDINAL="10486" NAME="?OnLButtonUp@CMFCDropDownToolBar@@QAEXIVCPoint@@@Z" PURGE="-1" COMMENT="" />
    <EXPORT ORDINAL="10485" NAME="?OnLButtonUp@CMFCDesktopAlertWnd@@IAEXIVCPoint@@@Z" PURGE="-1" COMMENT="" />
    <EXPORT ORDINAL="10484" NAME="?OnLButtonUp@CMFCColorPickerCtrl@@IAEXIVCPoint@@@Z" PURGE="-1" COMMENT="" />
    <EXPORT ORDINAL="10483" NAME="?OnLButtonUp@CMFCColorBar@@IAEXIVCPoint@@@Z" PURGE="-1" COMMENT="" />
    <EXPORT ORDINAL="10482" NAME="?OnLButtonUp@CMFCCaptionBar@@IAEXIVCPoint@@@Z" PURGE="-1" COMMENT="" />
    <EXPORT ORDINAL="10481" NAME="?OnLButtonUp@CMFCButton@@IAEXIVCPoint@@@Z" PURGE="-1" COMMENT="" />
    <EXPORT ORDINAL="10480" NAME="?OnLButtonUp@CMFCBaseTabCtrl@@IAEXIVCPoint@@@Z" PURGE="-1" COMMENT="" />
    <EXPORT ORDINAL="10479" NAME="?OnLButtonUp@CMDIFrameWndEx@@IAEXIVCPoint@@@Z" PURGE="-1" COMMENT="" />
    <EXPORT ORDINAL="10478" NAME="?OnLButtonUp@CMDIChildWndEx@@IAEXIVCPoint@@@Z" PURGE="-1" COMMENT="" />
    <EXPORT ORDINAL="10477" NAME="?OnLButtonUp@CFrameWndEx@@QAEXIVCPoint@@@Z" PURGE="-1" COMMENT="" />
    <EXPORT ORDINAL="10476" NAME="?OnLButtonUp@CFrameImpl@@IAEXVCPoint@@@Z" PURGE="-1" COMMENT="" />
    <EXPORT ORDINAL="10475" NAME="?OnLButtonUp@CDockablePane@@IAEXIVCPoint@@@Z" PURGE="-1" COMMENT="" />
    <EXPORT ORDINAL="10474" NAME="?OnLButtonDown@CSplitterWnd@@IAEXIVCPoint@@@Z" PURGE="-1" COMMENT="" />
    <EXPORT ORDINAL="10473" NAME="?OnLButtonDown@CScreenWnd@@IAEXIVCPoint@@@Z" PURGE="-1" COMMENT="" />
    <EXPORT ORDINAL="10472" NAME="?OnLButtonDown@CPreviewView@@IAEXIVCPoint@@@Z" PURGE="-1" COMMENT="" />
    <EXPORT ORDINAL="10471" NAME="?OnLButtonDown@CPaneFrameWnd@@IAEXIVCPoint@@@Z" PURGE="-1" COMMENT="" />
    <EXPORT ORDINAL="10470" NAME="?OnLButtonDown@CPaneDivider@@IAEXIVCPoint@@@Z" PURGE="-1" COMMENT="" />
    <EXPORT ORDINAL="10469" NAME="?OnLButtonDown@CPaneDialog@@QAEXIVCPoint@@@Z" PURGE="-1" COMMENT="" />
    <EXPORT ORDINAL="10468" NAME="?OnLButtonDown@CPane@@IAEXIVCPoint@@@Z" PURGE="-1" COMMENT="" />
    <EXPORT ORDINAL="10467" NAME="?OnLButtonDown@COleResizeBar@@IAEXIVCPoint@@@Z" PURGE="-1" COMMENT="" />
    <EXPORT ORDINAL="10466" NAME="?OnLButtonDown@COleControl@@IAEXIVCPoint@@@Z" PURGE="-1" COMMENT="" />
    <EXPORT ORDINAL="10465" NAME="?OnLButtonDown@CMFCToolBarsListCheckBox@@IAEXIVCPoint@@@Z" PURGE="-1" COMMENT="" />
    <EXPORT ORDINAL="10464" NAME="?OnLButtonDown@CMFCToolBarsCommandsListBox@@IAEXIVCPoint@@@Z" PURGE="-1" COMMENT="" />
    <EXPORT ORDINAL="10463" NAME="?OnLButtonDown@CMFCToolBarButtonsListButton@@IAEXIVCPoint@@@Z" PURGE="-1" COMMENT="" />
    <EXPORT ORDINAL="10462" NAME="?OnLButtonDown@CMFCToolBar@@IAEXIVCPoint@@@Z" PURGE="-1" COMMENT="" />
    <EXPORT ORDINAL="10461" NAME="?OnLButtonDown@CMFCTasksPane@@IAEXIVCPoint@@@Z" PURGE="-1" COMMENT="" />
    <EXPORT ORDINAL="10460" NAME="?OnLButtonDown@CMFCTabCtrl@@IAEXIVCPoint@@@Z" PURGE="-1" COMMENT="" />
    <EXPORT ORDINAL="10459" NAME="?OnLButtonDown@CMFCSpinButtonCtrl@@IAEXIVCPoint@@@Z" PURGE="-1" COMMENT="" />
    <EXPORT ORDINAL="10458" NAME="?OnLButtonDown@CMFCRibbonTab@@UAEXVCPoint@@@Z" PURGE="-1" COMMENT="" />
    <EXPORT ORDINAL="10457" NAME="?OnLButtonDown@CMFCRibbonSlider@@MAEXVCPoint@@@Z" PURGE="-1" COMMENT="" />
    <EXPORT ORDINAL="10456" NAME="?OnLButtonDown@CMFCRibbonPanelMenuBar@@IAEXIVCPoint@@@Z" PURGE="-1" COMMENT="" />
    <EXPORT ORDINAL="10455" NAME="?OnLButtonDown@CMFCRibbonPanelMenu@@IAEXIVCPoint@@@Z" PURGE="-1" COMMENT="" />
    <EXPORT ORDINAL="10454" NAME="?OnLButtonDown@CMFCRibbonGalleryIcon@@MAEXVCPoint@@@Z" PURGE="-1" COMMENT="" />
    <EXPORT ORDINAL="10453" NAME="?OnLButtonDown@CMFCRibbonEdit@@UAEXVCPoint@@@Z" PURGE="-1" COMMENT="" />
    <EXPORT ORDINAL="10452" NAME="?OnLButtonDown@CMFCRibbonDefaultPanelButton@@UAEXVCPoint@@@Z" PURGE="-1" COMMENT="" />
    <EXPORT ORDINAL="10451" NAME="?OnLButtonDown@CMFCRibbonComboBox@@MAEXVCPoint@@@Z" PURGE="-1" COMMENT="" />
    <EXPORT ORDINAL="10450" NAME="?OnLButtonDown@CMFCRibbonCategory@@UAEPAVCMFCRibbonBaseElement@@VCPoint@@@Z" PURGE="-1" COMMENT="" />
    <EXPORT ORDINAL="10449" NAME="?OnLButtonDown@CMFCRibbonButton@@MAEXVCPoint@@@Z" PURGE="-1" COMMENT="" />
    <EXPORT ORDINAL="10448" NAME="?OnLButtonDown@CMFCRibbonBaseElement@@MAEXVCPoint@@@Z" PURGE="-1" COMMENT="" />
    <EXPORT ORDINAL="10447" NAME="?OnLButtonDown@CMFCRibbonBar@@IAEXIVCPoint@@@Z" PURGE="-1" COMMENT="" />
    <EXPORT ORDINAL="10446" NAME="?OnLButtonDown@CMFCRibbonApplicationButton@@MAEXVCPoint@@@Z" PURGE="-1" COMMENT="" />
    <EXPORT ORDINAL="10445" NAME="?OnLButtonDown@CMFCReBar@@IAEXIVCPoint@@@Z" PURGE="-1" COMMENT="" />
    <EXPORT ORDINAL="10444" NAME="?OnLButtonDown@CMFCPropertyGridCtrl@@IAEXIVCPoint@@@Z" PURGE="-1" COMMENT="" />
    <EXPORT ORDINAL="10443" NAME="?OnLButtonDown@CMFCPopupMenuBar@@IAEXIVCPoint@@@Z" PURGE="-1" COMMENT="" />
    <EXPORT ORDINAL="10442" NAME="?OnLButtonDown@CMFCPopupMenu@@IAEXIVCPoint@@@Z" PURGE="-1" COMMENT="" />
    <EXPORT ORDINAL="10441" NAME="?OnLButtonDown@CMFCOutlookBarTabCtrl@@IAEXIVCPoint@@@Z" PURGE="-1" COMMENT="" />
    <EXPORT ORDINAL="10440" NAME="?OnLButtonDown@CMFCMenuButton@@IAEXIVCPoint@@@Z" PURGE="-1" COMMENT="" />
    <EXPORT ORDINAL="10439" NAME="?OnLButtonDown@CMFCMenuBar@@IAEXIVCPoint@@@Z" PURGE="-1" COMMENT="" />
    <EXPORT ORDINAL="10438" NAME="?OnLButtonDown@CMFCImagePaintArea@@IAEXIVCPoint@@@Z" PURGE="-1" COMMENT="" />
    <EXPORT ORDINAL="10437" NAME="?OnLButtonDown@CMFCHeaderCtrl@@IAEXIVCPoint@@@Z" PURGE="-1" COMMENT="" />
    <EXPORT ORDINAL="10436" NAME="?OnLButtonDown@CMFCEditBrowseCtrl@@IAEXIVCPoint@@@Z" PURGE="-1" COMMENT="" />
    <EXPORT ORDINAL="10435" NAME="?OnLButtonDown@CMFCDesktopAlertWnd@@IAEXIVCPoint@@@Z" PURGE="-1" COMMENT="" />
    <EXPORT ORDINAL="10434" NAME="?OnLButtonDown@CMFCDesktopAlertDialog@@IAEXIVCPoint@@@Z" PURGE="-1" COMMENT="" />
    <EXPORT ORDINAL="10433" NAME="?OnLButtonDown@CMFCColorPickerCtrl@@IAEXIVCPoint@@@Z" PURGE="-1" COMMENT="" />
    <EXPORT ORDINAL="10432" NAME="?OnLButtonDown@CMFCColorDialog@@IAEXIVCPoint@@@Z" PURGE="-1" COMMENT="" />
    <EXPORT ORDINAL="10431" NAME="?OnLButtonDown@CMFCColorButton@@IAEXIVCPoint@@@Z" PURGE="-1" COMMENT="" />
    <EXPORT ORDINAL="10430" NAME="?OnLButtonDown@CMFCColorBar@@IAEXIVCPoint@@@Z" PURGE="-1" COMMENT="" />
    <EXPORT ORDINAL="10429" NAME="?OnLButtonDown@CMFCCaptionBar@@IAEXIVCPoint@@@Z" PURGE="-1" COMMENT="" />
    <EXPORT ORDINAL="10428" NAME="?OnLButtonDown@CMFCButton@@IAEXIVCPoint@@@Z" PURGE="-1" COMMENT="" />
    <EXPORT ORDINAL="10427" NAME="?OnLButtonDown@CMFCBaseTabCtrl@@IAEXIVCPoint@@@Z" PURGE="-1" COMMENT="" />
    <EXPORT ORDINAL="10426" NAME="?OnLButtonDown@CMFCAutoHideBar@@IAEXIVCPoint@@@Z" PURGE="-1" COMMENT="" />
    <EXPORT ORDINAL="10425" NAME="?OnLButtonDown@CMDIFrameWndEx@@IAEXIVCPoint@@@Z" PURGE="-1" COMMENT="" />
    <EXPORT ORDINAL="10424" NAME="?OnLButtonDown@CMDIChildWndEx@@IAEXIVCPoint@@@Z" PURGE="-1" COMMENT="" />
    <EXPORT ORDINAL="10423" NAME="?OnLButtonDown@CFrameWndEx@@QAEXIVCPoint@@@Z" PURGE="-1" COMMENT="" />
    <EXPORT ORDINAL="10422" NAME="?OnLButtonDown@CFrameImpl@@IAEXVCPoint@@@Z" PURGE="-1" COMMENT="" />
    <EXPORT ORDINAL="10421" NAME="?OnLButtonDown@CDockablePane@@IAEXIVCPoint@@@Z" PURGE="-1" COMMENT="" />
    <EXPORT ORDINAL="10420" NAME="?OnLButtonDown@CControlBar@@QAEXIVCPoint@@@Z" PURGE="-1" COMMENT="" />
    <EXPORT ORDINAL="10419" NAME="?OnLButtonDown@CCheckListBox@@IAEXIVCPoint@@@Z" PURGE="-1" COMMENT="" />
    <EXPORT ORDINAL="10418" NAME="?OnLButtonDblClk@CSplitterWnd@@IAEXIVCPoint@@@Z" PURGE="-1" COMMENT="" />
    <EXPORT ORDINAL="10417" NAME="?OnLButtonDblClk@CPaneFrameWnd@@IAEXIVCPoint@@@Z" PURGE="-1" COMMENT="" />
    <EXPORT ORDINAL="10416" NAME="?OnLButtonDblClk@CPaneDialog@@QAEXIVCPoint@@@Z" PURGE="-1" COMMENT="" />
    <EXPORT ORDINAL="10415" NAME="?OnLButtonDblClk@CPane@@IAEXIVCPoint@@@Z" PURGE="-1" COMMENT="" />
    <EXPORT ORDINAL="10414" NAME="?OnLButtonDblClk@COleControl@@IAEXIVCPoint@@@Z" PURGE="-1" COMMENT="" />
    <EXPORT ORDINAL="10413" NAME="?OnLButtonDblClk@CMultiPaneFrameWnd@@IAEXIVCPoint@@@Z" PURGE="-1" COMMENT="" />
    <EXPORT ORDINAL="10412" NAME="?OnLButtonDblClk@CMFCToolBarsListCheckBox@@IAEXIVCPoint@@@Z" PURGE="-1" COMMENT="" />
    <EXPORT ORDINAL="10411" NAME="?OnLButtonDblClk@CMFCToolBar@@IAEXIVCPoint@@@Z" PURGE="-1" COMMENT="" />
    <EXPORT ORDINAL="10410" NAME="?OnLButtonDblClk@CMFCTabCtrl@@IAEXIVCPoint@@@Z" PURGE="-1" COMMENT="" />
    <EXPORT ORDINAL="10409" NAME="?OnLButtonDblClk@CMFCStatusBar@@IAEXIVCPoint@@@Z" PURGE="-1" COMMENT="" />
    <EXPORT ORDINAL="10408" NAME="?OnLButtonDblClk@CMFCRibbonTab@@UAEXVCPoint@@@Z" PURGE="-1" COMMENT="" />
    <EXPORT ORDINAL="10407" NAME="?OnLButtonDblClk@CMFCRibbonPanelMenuBar@@IAEXIVCPoint@@@Z" PURGE="-1" COMMENT="" />
    <EXPORT ORDINAL="10406" NAME="?OnLButtonDblClk@CMFCRibbonBar@@IAEXIVCPoint@@@Z" PURGE="-1" COMMENT="" />
    <EXPORT ORDINAL="10405" NAME="?OnLButtonDblClk@CMFCRibbonApplicationButton@@MAEXVCPoint@@@Z" PURGE="-1" COMMENT="" />
    <EXPORT ORDINAL="10404" NAME="?OnLButtonDblClk@CMFCPropertyGridCtrl@@IAEXIVCPoint@@@Z" PURGE="-1" COMMENT="" />
    <EXPORT ORDINAL="10403" NAME="?OnLButtonDblClk@CMFCPopupMenuBar@@IAEXIVCPoint@@@Z" PURGE="-1" COMMENT="" />
    <EXPORT ORDINAL="10402" NAME="?OnLButtonDblClk@CMFCMenuButton@@IAEXIVCPoint@@@Z" PURGE="-1" COMMENT="" />
    <EXPORT ORDINAL="10401" NAME="?OnLButtonDblClk@CMFCMenuBar@@IAEXIVCPoint@@@Z" PURGE="-1" COMMENT="" />
    <EXPORT ORDINAL="10400" NAME="?OnLButtonDblClk@CMFCColorPickerCtrl@@IAEXIVCPoint@@@Z" PURGE="-1" COMMENT="" />
    <EXPORT ORDINAL="10399" NAME="?OnLButtonDblClk@CMFCColorBar@@IAEXIVCPoint@@@Z" PURGE="-1" COMMENT="" />
    <EXPORT ORDINAL="10398" NAME="?OnLButtonDblClk@CMFCButton@@IAEXIVCPoint@@@Z" PURGE="-1" COMMENT="" />
    <EXPORT ORDINAL="10397" NAME="?OnLButtonDblClk@CMFCBaseTabCtrl@@IAEXIVCPoint@@@Z" PURGE="-1" COMMENT="" />
    <EXPORT ORDINAL="10396" NAME="?OnLButtonDblClk@CDockablePane@@IAEXIVCPoint@@@Z" PURGE="-1" COMMENT="" />
    <EXPORT ORDINAL="10395" NAME="?OnLButtonDblClk@CControlBar@@QAEXIVCPoint@@@Z" PURGE="-1" COMMENT="" />
    <EXPORT ORDINAL="10394" NAME="?OnLButtonDblClk@CCheckListBox@@IAEXIVCPoint@@@Z" PURGE="-1" COMMENT="" />
    <EXPORT ORDINAL="10393" NAME="?OnLBSetItemHeight@CCheckListBox@@IAEJIJ@Z" PURGE="-1" COMMENT="" />
    <EXPORT ORDINAL="10392" NAME="?OnLBSetItemData@CCheckListBox@@IAEJIJ@Z" PURGE="-1" COMMENT="" />
    <EXPORT ORDINAL="10391" NAME="?OnLBSelectString@CCheckListBox@@IAEJIJ@Z" PURGE="-1" COMMENT="" />
    <EXPORT ORDINAL="10390" NAME="?OnLBSelChangedNotify@CFileDialog@@MAEXIII@Z" PURGE="-1" COMMENT="" />
    <EXPORT ORDINAL="10389" NAME="?OnLBResetContent@CMFCToolBarsListCheckBox@@IAEJIJ@Z" PURGE="-1" COMMENT="" />
    <EXPORT ORDINAL="10388" NAME="?OnLBInsertString@CMFCToolBarsListCheckBox@@IAEJIJ@Z" PURGE="-1" COMMENT="" />
    <EXPORT ORDINAL="10387" NAME="?OnLBInsertString@CCheckListBox@@IAEJIJ@Z" PURGE="-1" COMMENT="" />
    <EXPORT ORDINAL="10386" NAME="?OnLBGetText@CCheckListBox@@IAEJIJ@Z" PURGE="-1" COMMENT="" />
    <EXPORT ORDINAL="10385" NAME="?OnLBGetItemData@CCheckListBox@@IAEJIJ@Z" PURGE="-1" COMMENT="" />
    <EXPORT ORDINAL="10384" NAME="?OnLBFindStringExact@CCheckListBox@@IAEJIJ@Z" PURGE="-1" COMMENT="" />
    <EXPORT ORDINAL="10383" NAME="?OnLBFindString@CCheckListBox@@IAEJIJ@Z" PURGE="-1" COMMENT="" />
    <EXPORT ORDINAL="10382" NAME="?OnLBDeleteString@CMFCToolBarsListCheckBox@@IAEJIJ@Z" PURGE="-1" COMMENT="" />
    <EXPORT ORDINAL="10381" NAME="?OnLBAddString@CMFCToolBarsListCheckBox@@IAEJIJ@Z" PURGE="-1" COMMENT="" />
    <EXPORT ORDINAL="10380" NAME="?OnLBAddString@CCheckListBox@@IAEJIJ@Z" PURGE="-1" COMMENT="" />
    <EXPORT ORDINAL="10378" NAME="?OnKillRollUpTimer@CPaneFrameWnd@@UAEXXZ" PURGE="-1" COMMENT="" />
    <EXPORT ORDINAL="10377" NAME="?OnKillRollUpTimer@CMultiPaneFrameWnd@@UAEXXZ" PURGE="-1" COMMENT="" />
    <EXPORT ORDINAL="10376" NAME="?OnKillFocus@COleControl@@IAEXPAVCWnd@@@Z" PURGE="-1" COMMENT="" />
    <EXPORT ORDINAL="10375" NAME="?OnKillFocus@CMFCToolBarEditCtrl@@IAEXPAVCWnd@@@Z" PURGE="-1" COMMENT="" />
    <EXPORT ORDINAL="10374" NAME="?OnKillFocus@CMFCToolBarComboBoxEdit@@IAEXPAVCWnd@@@Z" PURGE="-1" COMMENT="" />
    <EXPORT ORDINAL="10373" NAME="?OnKillFocus@CMFCToolBar@@IAEXPAVCWnd@@@Z" PURGE="-1" COMMENT="" />
    <EXPORT ORDINAL="10372" NAME="?OnKillFocus@CMFCRibbonRichEditCtrl@@IAEXPAVCWnd@@@Z" PURGE="-1" COMMENT="" />
    <EXPORT ORDINAL="10371" NAME="?OnKillFocus@CMFCRibbonBar@@IAEXPAVCWnd@@@Z" PURGE="-1" COMMENT="" />
    <EXPORT ORDINAL="10370" NAME="?OnKillFocus@CMFCPropertyGridCtrl@@IAEXPAVCWnd@@@Z" PURGE="-1" COMMENT="" />
    <EXPORT ORDINAL="10369" NAME="?OnKillFocus@CMFCMenuButton@@IAEXPAVCWnd@@@Z" PURGE="-1" COMMENT="" />
    <EXPORT ORDINAL="10367" NAME="?OnKillFocus@CMFCColorPickerCtrl@@IAEXPAVCWnd@@@Z" PURGE="-1" COMMENT="" />
    <EXPORT ORDINAL="10366" NAME="?OnKillFocus@CMFCButton@@IAEXPAVCWnd@@@Z" PURGE="-1" COMMENT="" />
    <EXPORT ORDINAL="10365" NAME="?OnKillFocus@CMFCAcceleratorKeyAssignCtrl@@IAEXPAVCWnd@@@Z" PURGE="-1" COMMENT="" />
    <EXPORT ORDINAL="10364" NAME="?OnKillActive@CPropertyPage@@UAEHXZ" PURGE="-1" COMMENT="" />
    <EXPORT ORDINAL="10363" NAME="?OnKillActive@CMFCToolBarsToolsPropertyPage@@UAEHXZ" PURGE="-1" COMMENT="" />
    <EXPORT ORDINAL="10362" NAME="?OnKickIdle@CPropertySheet@@IAEJIJ@Z" PURGE="-1" COMMENT="" />
    <EXPORT ORDINAL="10361" NAME="?OnKickIdle@CMFCImageEditorDialog@@IAEJIJ@Z" PURGE="-1" COMMENT="" />
    <EXPORT ORDINAL="10360" NAME="?OnKeyUpEvent@COleControl@@UAEXGG@Z" PURGE="-1" COMMENT="" />
    <EXPORT ORDINAL="10359" NAME="?OnKeyUp@COleControl@@IAEXIII@Z" PURGE="-1" COMMENT="" />
    <EXPORT ORDINAL="10358" NAME="?OnKeyPressEvent@COleControl@@UAEXG@Z" PURGE="-1" COMMENT="" />
    <EXPORT ORDINAL="10357" NAME="?OnKeyDownEvent@COleControl@@UAEXGG@Z" PURGE="-1" COMMENT="" />
    <EXPORT ORDINAL="10356" NAME="?OnKeyDown@CVSListBoxEditCtrl@@IAEXIII@Z" PURGE="-1" COMMENT="" />
    <EXPORT ORDINAL="10355" NAME="?OnKeyDown@CVSListBox@@IAEXPAUtagNMHDR@@PAJ@Z" PURGE="-1" COMMENT="" />
    <EXPORT ORDINAL="10354" NAME="?OnKeyDown@CSplitterWnd@@IAEXIII@Z" PURGE="-1" COMMENT="" />
    <EXPORT ORDINAL="10353" NAME="?OnKeyDown@CRichEditView@@IAEXIII@Z" PURGE="-1" COMMENT="" />
    <EXPORT ORDINAL="10352" NAME="?OnKeyDown@COleControl@@IAEXIII@Z" PURGE="-1" COMMENT="" />
    <EXPORT ORDINAL="10351" NAME="?OnKeyDown@CMFCToolBarsListCheckBox@@IAEXIII@Z" PURGE="-1" COMMENT="" />
    <EXPORT ORDINAL="10350" NAME="?OnKeyDown@CMFCToolBarButtonsListButton@@IAEXIII@Z" PURGE="-1" COMMENT="" />
    <EXPORT ORDINAL="10349" NAME="?OnKeyDown@CMFCRibbonPanelMenu@@IAEXIII@Z" PURGE="-1" COMMENT="" />
    <EXPORT ORDINAL="10348" NAME="?OnKeyDown@CMFCPropertyGridCtrl@@IAEXIII@Z" PURGE="-1" COMMENT="" />
    <EXPORT ORDINAL="10347" NAME="?OnKeyDown@CMFCPopupMenu@@IAEXIII@Z" PURGE="-1" COMMENT="" />
    <EXPORT ORDINAL="10346" NAME="?OnKeyDown@CMFCMenuButton@@IAEXIII@Z" PURGE="-1" COMMENT="" />
    <EXPORT ORDINAL="10345" NAME="?OnKeyDown@CMFCMaskedEdit@@IAEXIII@Z" PURGE="-1" COMMENT="" />
    <EXPORT ORDINAL="10344" NAME="?OnKeyDown@CMFCDropDownListBox@@IAEXIII@Z" PURGE="-1" COMMENT="" />
    <EXPORT ORDINAL="10343" NAME="?OnKeyDown@CMFCColorPickerCtrl@@IAEXIII@Z" PURGE="-1" COMMENT="" />
    <EXPORT ORDINAL="10342" NAME="?OnKeyDown@CMFCColorButton@@IAEXIII@Z" PURGE="-1" COMMENT="" />
    <EXPORT ORDINAL="10341" NAME="?OnKeyDown@CCheckListBox@@IAEXIII@Z" PURGE="-1" COMMENT="" />
    <EXPORT ORDINAL="10340" NAME="?OnKey@CVSListBoxBase@@UAEXGE@Z" PURGE="-1" COMMENT="" />
    <EXPORT ORDINAL="10339" NAME="?OnKey@CMFCRibbonTab@@UAEHH@Z" PURGE="-1" COMMENT="" />
    <EXPORT ORDINAL="10338" NAME="?OnKey@CMFCRibbonPanelMenuBar@@UAEHI@Z" PURGE="-1" COMMENT="" />
    <EXPORT ORDINAL="10337" NAME="?OnKey@CMFCRibbonPanel@@UAEHI@Z" PURGE="-1" COMMENT="" />
    <EXPORT ORDINAL="10336" NAME="?OnKey@CMFCRibbonGallery@@MAEHH@Z" PURGE="-1" COMMENT="" />
    <EXPORT ORDINAL="10335" NAME="?OnKey@CMFCRibbonEdit@@UAEHH@Z" PURGE="-1" COMMENT="" />
    <EXPORT ORDINAL="10334" NAME="?OnKey@CMFCRibbonDefaultPanelButton@@UAEHH@Z" PURGE="-1" COMMENT="" />
    <EXPORT ORDINAL="10333" NAME="?OnKey@CMFCRibbonCategory@@UAEHI@Z" PURGE="-1" COMMENT="" />
    <EXPORT ORDINAL="10332" NAME="?OnKey@CMFCRibbonButton@@MAEHH@Z" PURGE="-1" COMMENT="" />
    <EXPORT ORDINAL="10331" NAME="?OnKey@CMFCRibbonBaseElement@@UAEHH@Z" PURGE="-1" COMMENT="" />
    <EXPORT ORDINAL="10330" NAME="?OnKey@CMFCRibbonApplicationButton@@MAEHH@Z" PURGE="-1" COMMENT="" />
    <EXPORT ORDINAL="10329" NAME="?OnKey@CMFCPopupMenuBar@@MAEHI@Z" PURGE="-1" COMMENT="" />
    <EXPORT ORDINAL="10328" NAME="?OnKey@CMFCColorBar@@MAEHI@Z" PURGE="-1" COMMENT="" />
    <EXPORT ORDINAL="10327" NAME="?OnKey@CDockContext@@QAEXHH@Z" PURGE="-1" COMMENT="" />
    <EXPORT ORDINAL="10324" NAME="?OnItemexpanding@CMFCShellTreeCtrl@@IAEXPAUtagNMHDR@@PAJ@Z" PURGE="-1" COMMENT="" />
    <EXPORT ORDINAL="10323" NAME="?OnItemchangedListViews@CMFCMousePropertyPage@@IAEXPAUtagNMHDR@@PAJ@Z" PURGE="-1" COMMENT="" />
    <EXPORT ORDINAL="10326" NAME="?OnItemSelected@XFileDialogControlEvents@CFileDialog@@UAGJPAUIFileDialogCustomize@@KK@Z" PURGE="-1" COMMENT="" />
    <EXPORT ORDINAL="10325" NAME="?OnItemSelected@CFileDialog@@MAEXKK@Z" PURGE="-1" COMMENT="" />
    <EXPORT ORDINAL="10322" NAME="?OnItemChanged@CVSListBox@@IAEXPAUtagNMHDR@@PAJ@Z" PURGE="-1" COMMENT="" />
    <EXPORT ORDINAL="10321" NAME="?OnInvertTracker@CSplitterWnd@@MAEXABVCRect@@@Z" PURGE="-1" COMMENT="" />
    <EXPORT ORDINAL="10320" NAME="?OnInsertRow@CDockSite@@UAEXPAU__POSITION@@@Z" PURGE="-1" COMMENT="" />
    <EXPORT ORDINAL="10319" NAME="?OnInsertPane@CDockingPanesRow@@MAEXPAVCPane@@@Z" PURGE="-1" COMMENT="" />
    <EXPORT ORDINAL="10318" NAME="?OnInsertObject@CRichEditView@@IAEXXZ" PURGE="-1" COMMENT="" />
    <EXPORT ORDINAL="10317" NAME="?OnInsertMenus@COleDocObjectItem@@UAEXPAVCMenu@@PAUtagOleMenuGroupWidths@@@Z" PURGE="-1" COMMENT="" />
    <EXPORT ORDINAL="10316" NAME="?OnInsertMenus@COleClientItem@@UAEXPAVCMenu@@PAUtagOleMenuGroupWidths@@@Z" PURGE="-1" COMMENT="" />
    <EXPORT ORDINAL="10315" NAME="?OnInsertItem@CMFCKeyMapDialog@@MAEXPAVCMFCToolBarButton@@H@Z" PURGE="-1" COMMENT="" />
    <EXPORT ORDINAL="10303" NAME="?OnInitialUpdate@CView@@UAEXXZ" PURGE="-1" COMMENT="" />
    <EXPORT ORDINAL="10302" NAME="?OnInitialUpdate@CTabView@@UAEXXZ" PURGE="-1" COMMENT="" />
    <EXPORT ORDINAL="10301" NAME="?OnInitialUpdate@CRichEditView@@MAEXXZ" PURGE="-1" COMMENT="" />
    <EXPORT ORDINAL="10300" NAME="?OnInitialUpdate@CRecordView@@UAEXXZ" PURGE="-1" COMMENT="" />
    <EXPORT ORDINAL="10299" NAME="?OnInitialUpdate@COleDBRecordView@@UAEXXZ" PURGE="-1" COMMENT="" />
    <EXPORT ORDINAL="10298" NAME="?OnInitialUpdate@CFormView@@UAEXXZ" PURGE="-1" COMMENT="" />
    <EXPORT ORDINAL="10297" NAME="?OnInitialUpdate@CDaoRecordView@@UAEXXZ" PURGE="-1" COMMENT="" />
    <EXPORT ORDINAL="10296" NAME="?OnInitialUpdate@CControlBar@@QAEXXZ" PURGE="-1" COMMENT="" />
    <EXPORT ORDINAL="10295" NAME="?OnInitialDirectoryOptions@CMFCToolBarsToolsPropertyPage@@IAEXXZ" PURGE="-1" COMMENT="" />
    <EXPORT ORDINAL="10308" NAME="?OnInitMenuPopup@COleFrameHook@@UAEHPAVCMenu@@HH@Z" PURGE="-1" COMMENT="" />
    <EXPORT ORDINAL="10307" NAME="?OnInitMenuPopup@COleControl@@IAEXPAVCMenu@@IH@Z" PURGE="-1" COMMENT="" />
    <EXPORT ORDINAL="10306" NAME="?OnInitMenuPopup@CFrameWnd@@IAEXPAVCMenu@@IH@Z" PURGE="-1" COMMENT="" />
    <EXPORT ORDINAL="10305" NAME="?OnInitMenu@COleFrameHook@@UAEXPAVCMenu@@@Z" PURGE="-1" COMMENT="" />
    <EXPORT ORDINAL="10304" NAME="?OnInitMenu@CFrameWnd@@IAEXPAVCMenu@@@Z" PURGE="-1" COMMENT="" />
    <EXPORT ORDINAL="10294" NAME="?OnInitFromData@COleServerItem@@UAEHPAVCOleDataObject@@H@Z" PURGE="-1" COMMENT="" />
    <EXPORT ORDINAL="10293" NAME="?OnInitDone@CFileDialog@@MAEXXZ" PURGE="-1" COMMENT="" />
    <EXPORT ORDINAL="10292" NAME="?OnInitDialog@CPropertySheet@@UAEHXZ" PURGE="-1" COMMENT="" />
    <EXPORT ORDINAL="10291" NAME="?OnInitDialog@COutlookOptionsDlg@@MAEHXZ" PURGE="-1" COMMENT="" />
    <EXPORT ORDINAL="10290" NAME="?OnInitDialog@COlePropertyPage@@UAEHXZ" PURGE="-1" COMMENT="" />
    <EXPORT ORDINAL="10289" NAME="?OnInitDialog@COlePropertiesDialog@@UAEHXZ" PURGE="-1" COMMENT="" />
    <EXPORT ORDINAL="10288" NAME="?OnInitDialog@CMFCWindowsManagerDialog@@MAEHXZ" PURGE="-1" COMMENT="" />
    <EXPORT ORDINAL="10287" NAME="?OnInitDialog@CMFCToolBarsToolsPropertyPage@@MAEHXZ" PURGE="-1" COMMENT="" />
    <EXPORT ORDINAL="10286" NAME="?OnInitDialog@CMFCToolBarsOptionsPropertyPage@@MAEHXZ" PURGE="-1" COMMENT="" />
    <EXPORT ORDINAL="10285" NAME="?OnInitDialog@CMFCToolBarsMenuPropertyPage@@MAEHXZ" PURGE="-1" COMMENT="" />
    <EXPORT ORDINAL="10284" NAME="?OnInitDialog@CMFCToolBarsListPropertyPage@@MAEHXZ" PURGE="-1" COMMENT="" />
    <EXPORT ORDINAL="10283" NAME="?OnInitDialog@CMFCToolBarsKeyboardPropertyPage@@MAEHXZ" PURGE="-1" COMMENT="" />
    <EXPORT ORDINAL="10282" NAME="?OnInitDialog@CMFCToolBarsCustomizeDialog@@UAEHXZ" PURGE="-1" COMMENT="" />
    <EXPORT ORDINAL="10281" NAME="?OnInitDialog@CMFCToolBarsCommandsPropertyPage@@MAEHXZ" PURGE="-1" COMMENT="" />
    <EXPORT ORDINAL="10280" NAME="?OnInitDialog@CMFCToolBarNameDialog@@MAEHXZ" PURGE="-1" COMMENT="" />
    <EXPORT ORDINAL="10279" NAME="?OnInitDialog@CMFCToolBarButtonCustomizeDialog@@MAEHXZ" PURGE="-1" COMMENT="" />
    <EXPORT ORDINAL="10278" NAME="?OnInitDialog@CMFCStandardColorsPropertyPage@@MAEHXZ" PURGE="-1" COMMENT="" />
    <EXPORT ORDINAL="10277" NAME="?OnInitDialog@CMFCRibbonKeyboardCustomizeDialog@@MAEHXZ" PURGE="-1" COMMENT="" />
    <EXPORT ORDINAL="10276" NAME="?OnInitDialog@CMFCRibbonCustomizePropertyPage@@MAEHXZ" PURGE="-1" COMMENT="" />
    <EXPORT ORDINAL="10275" NAME="?OnInitDialog@CMFCPropertySheet@@UAEHXZ" PURGE="-1" COMMENT="" />
    <EXPORT ORDINAL="10274" NAME="?OnInitDialog@CMFCPropertyPage@@MAEHXZ" PURGE="-1" COMMENT="" />
    <EXPORT ORDINAL="10273" NAME="?OnInitDialog@CMFCMousePropertyPage@@MAEHXZ" PURGE="-1" COMMENT="" />
    <EXPORT ORDINAL="10272" NAME="?OnInitDialog@CMFCKeyMapDialog@@MAEHXZ" PURGE="-1" COMMENT="" />
    <EXPORT ORDINAL="10271" NAME="?OnInitDialog@CMFCImageEditorDialog@@MAEHXZ" PURGE="-1" COMMENT="" />
    <EXPORT ORDINAL="10270" NAME="?OnInitDialog@CMFCDesktopAlertDialog@@MAEHXZ" PURGE="-1" COMMENT="" />
    <EXPORT ORDINAL="10269" NAME="?OnInitDialog@CMFCCustomColorsPropertyPage@@MAEHXZ" PURGE="-1" COMMENT="" />
    <EXPORT ORDINAL="10268" NAME="?OnInitDialog@CMFCColorPropertySheet@@UAEHXZ" PURGE="-1" COMMENT="" />
    <EXPORT ORDINAL="10267" NAME="?OnInitDialog@CMFCColorDialog@@MAEHXZ" PURGE="-1" COMMENT="" />
    <EXPORT ORDINAL="10266" NAME="?OnInitDialog@CDialog@@UAEHXZ" PURGE="-1" COMMENT="" />
    <EXPORT ORDINAL="10265" NAME="?OnInitDialog@CDHtmlDialog@@UAEHXZ" PURGE="-1" COMMENT="" />
    <EXPORT ORDINAL="10264" NAME="?OnInitControl@CVSListBox@@IAEJIJ@Z" PURGE="-1" COMMENT="" />
    <EXPORT ORDINAL="10263" NAME="?OnInitControl@CMFCShellTreeCtrl@@IAEJIJ@Z" PURGE="-1" COMMENT="" />
    <EXPORT ORDINAL="10262" NAME="?OnInitControl@CMFCShellListCtrl@@IAEJIJ@Z" PURGE="-1" COMMENT="" />
    <EXPORT ORDINAL="10261" NAME="?OnInitControl@CMFCPropertyGridCtrl@@IAEJIJ@Z" PURGE="-1" COMMENT="" />
    <EXPORT ORDINAL="10260" NAME="?OnInitControl@CMFCMenuButton@@IAEJIJ@Z" PURGE="-1" COMMENT="" />
    <EXPORT ORDINAL="10259" NAME="?OnInitControl@CMFCMaskedEdit@@IAEJIJ@Z" PURGE="-1" COMMENT="" />
    <EXPORT ORDINAL="10258" NAME="?OnInitControl@CMFCLinkCtrl@@IAEJIJ@Z" PURGE="-1" COMMENT="" />
    <EXPORT ORDINAL="10257" NAME="?OnInitControl@CMFCFontComboBox@@IAEJIJ@Z" PURGE="-1" COMMENT="" />
    <EXPORT ORDINAL="10256" NAME="?OnInitControl@CMFCEditBrowseCtrl@@IAEJIJ@Z" PURGE="-1" COMMENT="" />
    <EXPORT ORDINAL="10255" NAME="?OnInitControl@CMFCColorButton@@IAEJIJ@Z" PURGE="-1" COMMENT="" />
    <EXPORT ORDINAL="10254" NAME="?OnInitControl@CMFCButton@@IAEJIJ@Z" PURGE="-1" COMMENT="" />
    <EXPORT ORDINAL="10253" NAME="?OnInactiveSetCursor@XPointerInactive@COleControl@@UAGJPBUtagRECT@@JJKH@Z" PURGE="-1" COMMENT="" />
    <EXPORT ORDINAL="10252" NAME="?OnInactiveSetCursor@COleControl@@UAEHPBUtagRECT@@JJKH@Z" PURGE="-1" COMMENT="" />
    <EXPORT ORDINAL="10251" NAME="?OnInactiveMouseMove@XPointerInactive@COleControl@@UAGJPBUtagRECT@@JJK@Z" PURGE="-1" COMMENT="" />
    <EXPORT ORDINAL="10250" NAME="?OnInactiveMouseMove@COleControl@@UAEXPBUtagRECT@@JJK@Z" PURGE="-1" COMMENT="" />
    <EXPORT ORDINAL="10314" NAME="?OnInPlaceDeactivateEx@XOleIPSite@COleControlSite@@UAGJH@Z" PURGE="-1" COMMENT="" />
    <EXPORT ORDINAL="10313" NAME="?OnInPlaceDeactivate@XOleIPSite@COleControlSite@@UAGJXZ" PURGE="-1" COMMENT="" />
    <EXPORT ORDINAL="10312" NAME="?OnInPlaceDeactivate@XOleIPSite@COleClientItem@@UAGJXZ" PURGE="-1" COMMENT="" />
    <EXPORT ORDINAL="10311" NAME="?OnInPlaceActivateEx@XOleIPSite@COleControlSite@@UAGJPAHK@Z" PURGE="-1" COMMENT="" />
    <EXPORT ORDINAL="10310" NAME="?OnInPlaceActivate@XOleIPSite@COleControlSite@@UAGJXZ" PURGE="-1" COMMENT="" />
    <EXPORT ORDINAL="10309" NAME="?OnInPlaceActivate@XOleIPSite@COleClientItem@@UAGJXZ" PURGE="-1" COMMENT="" />
    <EXPORT ORDINAL="10249" NAME="?OnImageText@CMFCToolBarButtonCustomizeDialog@@IAEXXZ" PURGE="-1" COMMENT="" />
    <EXPORT ORDINAL="10248" NAME="?OnImageList@CMFCToolBarButtonCustomizeDialog@@IAEXXZ" PURGE="-1" COMMENT="" />
    <EXPORT ORDINAL="10247" NAME="?OnImage@CMFCToolBarButtonCustomizeDialog@@IAEXXZ" PURGE="-1" COMMENT="" />
    <EXPORT ORDINAL="10246" NAME="?OnIllegalFileName@CMFCEditBrowseCtrl@@UAEHAAV?$CStringT@DV?$StrTraitMFC_DLL@DV?$ChTraitsCRT@D@ATL@@@@@ATL@@@Z" PURGE="-1" COMMENT="" />
    <EXPORT ORDINAL="10245" NAME="?OnIdleUpdateCmdUI@CPaneFrameWnd@@IAEJIJ@Z" PURGE="-1" COMMENT="" />
    <EXPORT ORDINAL="10244" NAME="?OnIdleUpdateCmdUI@COleIPFrameWndEx@@IAEJIJ@Z" PURGE="-1" COMMENT="" />
    <EXPORT ORDINAL="10243" NAME="?OnIdleUpdateCmdUI@COleIPFrameWnd@@IAEXXZ" PURGE="-1" COMMENT="" />
    <EXPORT ORDINAL="10242" NAME="?OnIdleUpdateCmdUI@COleDocIPFrameWndEx@@IAEJIJ@Z" PURGE="-1" COMMENT="" />
    <EXPORT ORDINAL="10241" NAME="?OnIdleUpdateCmdUI@COleCntrFrameWndEx@@IAEXXZ" PURGE="-1" COMMENT="" />
    <EXPORT ORDINAL="10240" NAME="?OnIdleUpdateCmdUI@COleCntrFrameWnd@@QAEXXZ" PURGE="-1" COMMENT="" />
    <EXPORT ORDINAL="10239" NAME="?OnIdleUpdateCmdUI@CMultiPaneFrameWnd@@IAEJIJ@Z" PURGE="-1" COMMENT="" />
    <EXPORT ORDINAL="10238" NAME="?OnIdleUpdateCmdUI@CMFCTasksPaneToolBar@@IAEJIJ@Z" PURGE="-1" COMMENT="" />
    <EXPORT ORDINAL="10237" NAME="?OnIdleUpdateCmdUI@CMFCPopupMenuBar@@IAEJIJ@Z" PURGE="-1" COMMENT="" />
    <EXPORT ORDINAL="10236" NAME="?OnIdleUpdateCmdUI@CMDIFrameWndEx@@IAEJIJ@Z" PURGE="-1" COMMENT="" />
    <EXPORT ORDINAL="10235" NAME="?OnIdleUpdateCmdUI@CMDIFrameWnd@@IAEXXZ" PURGE="-1" COMMENT="" />
    <EXPORT ORDINAL="10234" NAME="?OnIdleUpdateCmdUI@CMDIChildWndEx@@IAEJIJ@Z" PURGE="-1" COMMENT="" />
    <EXPORT ORDINAL="10233" NAME="?OnIdleUpdateCmdUI@CFrameWndEx@@QAEJIJ@Z" PURGE="-1" COMMENT="" />
    <EXPORT ORDINAL="10232" NAME="?OnIdleUpdateCmdUI@CFrameWnd@@IAEXXZ" PURGE="-1" COMMENT="" />
    <EXPORT ORDINAL="10231" NAME="?OnIdleUpdateCmdUI@CControlBar@@QAEJIJ@Z" PURGE="-1" COMMENT="" />
    <EXPORT ORDINAL="10230" NAME="?OnIdleUpdateCmdUI@CBasePane@@IAEJIJ@Z" PURGE="-1" COMMENT="" />
    <EXPORT ORDINAL="10229" NAME="?OnIdle@CWinThread@@UAEHJ@Z" PURGE="-1" COMMENT="" />
    <EXPORT ORDINAL="10228" NAME="?OnIdle@CWinApp@@UAEHJ@Z" PURGE="-1" COMMENT="" />
    <EXPORT ORDINAL="10227" NAME="?OnIdle@COleDocument@@UAEXXZ" PURGE="-1" COMMENT="" />
    <EXPORT ORDINAL="10226" NAME="?OnIdle@CDocument@@UAEXXZ" PURGE="-1" COMMENT="" />
    <EXPORT ORDINAL="10225" NAME="?OnIdle@CDocTemplate@@UAEXXZ" PURGE="-1" COMMENT="" />
    <EXPORT ORDINAL="10218" NAME="?OnHome@CMFCTasksPane@@IAEXXZ" PURGE="-1" COMMENT="" />
    <EXPORT ORDINAL="10216" NAME="?OnHighlightRarelyUsedMenuItems@CMFCVisualManagerWindows@@UAEXPAVCDC@@VCRect@@@Z" PURGE="-1" COMMENT="" />
    <EXPORT ORDINAL="10215" NAME="?OnHighlightRarelyUsedMenuItems@CMFCVisualManagerVS2008@@UAEXPAVCDC@@VCRect@@@Z" PURGE="-1" COMMENT="" />
    <EXPORT ORDINAL="10214" NAME="?OnHighlightRarelyUsedMenuItems@CMFCVisualManagerOfficeXP@@MAEXPAVCDC@@VCRect@@@Z" PURGE="-1" COMMENT="" />
    <EXPORT ORDINAL="10213" NAME="?OnHighlightRarelyUsedMenuItems@CMFCVisualManagerOffice2007@@UAEXPAVCDC@@VCRect@@@Z" PURGE="-1" COMMENT="" />
    <EXPORT ORDINAL="10212" NAME="?OnHighlightRarelyUsedMenuItems@CMFCVisualManagerOffice2003@@UAEXPAVCDC@@VCRect@@@Z" PURGE="-1" COMMENT="" />
    <EXPORT ORDINAL="10211" NAME="?OnHighlightRarelyUsedMenuItems@CMFCVisualManager@@UAEXPAVCDC@@VCRect@@@Z" PURGE="-1" COMMENT="" />
    <EXPORT ORDINAL="10210" NAME="?OnHighlightQuickCustomizeMenuButton@CMFCVisualManagerOfficeXP@@MAEXPAVCDC@@PAVCMFCToolBarMenuButton@@VCRect@@@Z" PURGE="-1" COMMENT="" />
    <EXPORT ORDINAL="10209" NAME="?OnHighlightQuickCustomizeMenuButton@CMFCVisualManagerOffice2003@@UAEXPAVCDC@@PAVCMFCToolBarMenuButton@@VCRect@@@Z" PURGE="-1" COMMENT="" />
    <EXPORT ORDINAL="10207" NAME="?OnHighlightMenuItem@CMFCVisualManagerWindows@@UAEXPAVCDC@@PAVCMFCToolBarMenuButton@@VCRect@@AAK@Z" PURGE="-1" COMMENT="" />
    <EXPORT ORDINAL="10208" NAME="?OnHighlightMenuItem@CMFCVisualManagerWindows7@@UAEXPAVCDC@@PAVCMFCToolBarMenuButton@@VCRect@@AAK@Z" PURGE="-1" COMMENT="" />
    <EXPORT ORDINAL="10206" NAME="?OnHighlightMenuItem@CMFCVisualManagerVS2008@@UAEXPAVCDC@@PAVCMFCToolBarMenuButton@@VCRect@@AAK@Z" PURGE="-1" COMMENT="" />
    <EXPORT ORDINAL="10205" NAME="?OnHighlightMenuItem@CMFCVisualManagerOfficeXP@@MAEXPAVCDC@@PAVCMFCToolBarMenuButton@@VCRect@@AAK@Z" PURGE="-1" COMMENT="" />
    <EXPORT ORDINAL="10204" NAME="?OnHighlightMenuItem@CMFCVisualManagerOffice2007@@UAEXPAVCDC@@PAVCMFCToolBarMenuButton@@VCRect@@AAK@Z" PURGE="-1" COMMENT="" />
    <EXPORT ORDINAL="10203" NAME="?OnHighlightMenuItem@CMFCVisualManager@@UAEXPAVCDC@@PAVCMFCToolBarMenuButton@@VCRect@@AAK@Z" PURGE="-1" COMMENT="" />
    <EXPORT ORDINAL="10202" NAME="?OnHighlight@CMFCRibbonGalleryIcon@@MAEXH@Z" PURGE="-1" COMMENT="" />
    <EXPORT ORDINAL="10201" NAME="?OnHighlight@CMFCRibbonEdit@@UAEXH@Z" PURGE="-1" COMMENT="" />
    <EXPORT ORDINAL="10200" NAME="?OnHideUI@CHtmlView@@UAEJXZ" PURGE="-1" COMMENT="" />
    <EXPORT ORDINAL="10199" NAME="?OnHideToolBars@COleControl@@UAEXXZ" PURGE="-1" COMMENT="" />
    <EXPORT ORDINAL="10198" NAME="?OnHideMenuBar@CFrameWnd@@MAEXXZ" PURGE="-1" COMMENT="" />
    <EXPORT ORDINAL="10197" NAME="?OnHide@COleServerItem@@MAEXXZ" PURGE="-1" COMMENT="" />
    <EXPORT ORDINAL="10196" NAME="?OnHide@COleControl@@MAEJXZ" PURGE="-1" COMMENT="" />
    <EXPORT ORDINAL="10195" NAME="?OnHide@CDocObjectServerItem@@MAEXXZ" PURGE="-1" COMMENT="" />
    <EXPORT ORDINAL="10194" NAME="?OnHexColor@CMFCStandardColorsPropertyPage@@IAEXXZ" PURGE="-1" COMMENT="" />
    <EXPORT ORDINAL="10193" NAME="?OnHelpUsing@CWnd@@QAEXXZ" PURGE="-1" COMMENT="" />
    <EXPORT ORDINAL="10192" NAME="?OnHelpUsing@CWinApp@@IAEXXZ" PURGE="-1" COMMENT="" />
    <EXPORT ORDINAL="10191" NAME="?OnHelpPromptAddr@CFrameWnd@@IAEJIJ@Z" PURGE="-1" COMMENT="" />
    <EXPORT ORDINAL="10190" NAME="?OnHelpInfo@CWnd@@IAEHPAUtagHELPINFO@@@Z" PURGE="-1" COMMENT="" />
    <EXPORT ORDINAL="10189" NAME="?OnHelpInfo@CMFCWindowsManagerDialog@@IAEHPAUtagHELPINFO@@@Z" PURGE="-1" COMMENT="" />
    <EXPORT ORDINAL="10188" NAME="?OnHelpInfo@CMFCToolBarsCustomizeDialog@@IAEHPAUtagHELPINFO@@@Z" PURGE="-1" COMMENT="" />
    <EXPORT ORDINAL="10187" NAME="?OnHelpInfo@CCommonDialog@@IAEHPAUtagHELPINFO@@@Z" PURGE="-1" COMMENT="" />
    <EXPORT ORDINAL="10186" NAME="?OnHelpIndex@CWnd@@QAEXXZ" PURGE="-1" COMMENT="" />
    <EXPORT ORDINAL="10185" NAME="?OnHelpIndex@CWinApp@@IAEXXZ" PURGE="-1" COMMENT="" />
    <EXPORT ORDINAL="10184" NAME="?OnHelpHitTest@CMFCToolBar@@IAEJIJ@Z" PURGE="-1" COMMENT="" />
    <EXPORT ORDINAL="10183" NAME="?OnHelpHitTest@CFrameWnd@@IAEJIJ@Z" PURGE="-1" COMMENT="" />
    <EXPORT ORDINAL="10182" NAME="?OnHelpHitTest@CDialog@@IAEJIJ@Z" PURGE="-1" COMMENT="" />
    <EXPORT ORDINAL="10181" NAME="?OnHelpHitTest@CControlBar@@QAEJIJ@Z" PURGE="-1" COMMENT="" />
    <EXPORT ORDINAL="10180" NAME="?OnHelpHitTest@CBasePane@@IAEJIJ@Z" PURGE="-1" COMMENT="" />
    <EXPORT ORDINAL="10179" NAME="?OnHelpFinder@CWnd@@QAEXXZ" PURGE="-1" COMMENT="" />
    <EXPORT ORDINAL="10178" NAME="?OnHelpFinder@CWinApp@@IAEXXZ" PURGE="-1" COMMENT="" />
    <EXPORT ORDINAL="10177" NAME="?OnHelp@XFileDialogEvents@CFileDialog@@UAGJPAUIFileDialog@@@Z" PURGE="-1" COMMENT="" />
    <EXPORT ORDINAL="10176" NAME="?OnHelp@CWnd@@QAEXXZ" PURGE="-1" COMMENT="" />
    <EXPORT ORDINAL="10175" NAME="?OnHelp@CWinApp@@IAEXXZ" PURGE="-1" COMMENT="" />
    <EXPORT ORDINAL="10174" NAME="?OnHelp@COlePropertyPage@@UAEHPBD@Z" PURGE="-1" COMMENT="" />
    <EXPORT ORDINAL="10173" NAME="?OnHelp@CFrameWnd@@IAEXXZ" PURGE="-1" COMMENT="" />
    <EXPORT ORDINAL="10172" NAME="?OnHeightChange@CReBar@@IAEXPAUtagNMHDR@@PAJ@Z" PURGE="-1" COMMENT="" />
    <EXPORT ORDINAL="10171" NAME="?OnHeightChange@CMFCReBar@@IAEXPAUtagNMHDR@@PAJ@Z" PURGE="-1" COMMENT="" />
    <EXPORT ORDINAL="10170" NAME="?OnHeaderTrack@CMFCPropertyGridCtrl@@IAEXPAUtagNMHDR@@PAJ@Z" PURGE="-1" COMMENT="" />
    <EXPORT ORDINAL="10169" NAME="?OnHeaderItemChanged@CMFCPropertyGridCtrl@@IAEXPAUtagNMHDR@@PAJ@Z" PURGE="-1" COMMENT="" />
